---
triple:          'arm64-apple-darwin'
binary-path:     "/Users/matthew/Desktop/yacc部分/output/SeuYacc"
relocations:
  - { offsetInCU: 0x3F, offset: 0x3F, size: 0x8, addend: 0x0, symName: _leftTable, symObjAddr: 0x178760, symBinAddr: 0x10003C000, symSize: 0x0 }
  - { offsetInCU: 0x16BAF, offset: 0x16BAF, size: 0x8, addend: 0x0, symName: __ZNSt3__1L19piecewise_constructE, symObjAddr: 0x3237D, symBinAddr: 0x100036465, symSize: 0x0 }
  - { offsetInCU: 0x16C1D, offset: 0x16C1D, size: 0x8, addend: 0x0, symName: __ZNSt3__17advanceB7v160006INS_21__tree_const_iteratorIiPNS_11__tree_nodeIiPvEElEEllvEEvRT_T0_, symObjAddr: 0xA8D4, symBinAddr: 0x10000DBB4, symSize: 0x50 }
  - { offsetInCU: 0x1B04E, offset: 0x1B04E, size: 0x8, addend: 0x0, symName: __ZNSt3__124__put_character_sequenceB7v160006IcNS_11char_traitsIcEEEERNS_13basic_ostreamIT_T0_EES7_PKS4_m, symObjAddr: 0x11234, symBinAddr: 0x100014514, symSize: 0x1EC }
  - { offsetInCU: 0x1C1AC, offset: 0x1C1AC, size: 0x8, addend: 0x0, symName: __ZNSt3__17advanceB7v160006IPimmvEEvRT_T0_, symObjAddr: 0x182B8, symBinAddr: 0x10001B598, symSize: 0x50 }
  - { offsetInCU: 0x26427, offset: 0x26427, size: 0x8, addend: 0x0, symName: __ZNSt3__1neB7v160006ERKNS_21__tree_const_iteratorIiPNS_11__tree_nodeIiPvEElEES7_, symObjAddr: 0x7F8, symBinAddr: 0x100003AD8, symSize: 0x34 }
  - { offsetInCU: 0x26464, offset: 0x26464, size: 0x8, addend: 0x0, symName: __ZNSt3__1eqB7v160006IiNS_4lessIiEENS_9allocatorIiEEEEbRKNS_3setIT_T0_T1_EESB_, symObjAddr: 0xA6C, symBinAddr: 0x100003D4C, symSize: 0x98 }
  - { offsetInCU: 0x264BC, offset: 0x264BC, size: 0x8, addend: 0x0, symName: __ZNSt3__1neB7v160006IiNS_4lessIiEENS_9allocatorIiEEEEbRKNS_3setIT_T0_T1_EESB_, symObjAddr: 0xC68, symBinAddr: 0x100003F48, symSize: 0x34 }
  - { offsetInCU: 0x26514, offset: 0x26514, size: 0x8, addend: 0x0, symName: __ZNSt3__1lsB7v160006INS_11char_traitsIcEEEERNS_13basic_ostreamIcT_EES6_PKc, symObjAddr: 0x11AC, symBinAddr: 0x10000448C, symSize: 0x48 }
  - { offsetInCU: 0x2655A, offset: 0x2655A, size: 0x8, addend: 0x0, symName: __ZNSt3__1rsB7v160006IcNS_11char_traitsIcEENS_9allocatorIcEEEERNS_13basic_istreamIT_T0_EES9_RNS_12basic_stringIS6_S7_T1_EE, symObjAddr: 0x11F4, symBinAddr: 0x1000044D4, symSize: 0x30C }
  - { offsetInCU: 0x26627, offset: 0x26627, size: 0x8, addend: 0x0, symName: __ZNSt3__1lsB7v160006IcNS_11char_traitsIcEENS_9allocatorIcEEEERNS_13basic_ostreamIT_T0_EES9_RKNS_12basic_stringIS6_S7_T1_EE, symObjAddr: 0x15CC, symBinAddr: 0x1000048AC, symSize: 0x4C }
  - { offsetInCU: 0x2667F, offset: 0x2667F, size: 0x8, addend: 0x0, symName: __ZNSt3__17getlineB7v160006IcNS_11char_traitsIcEENS_9allocatorIcEEEERNS_13basic_istreamIT_T0_EES9_RNS_12basic_stringIS6_S7_T1_EE, symObjAddr: 0x4B6C, symBinAddr: 0x100007E4C, symSize: 0x5C }
  - { offsetInCU: 0x266D7, offset: 0x266D7, size: 0x8, addend: 0x0, symName: __ZNSt3__1neB7v160006IcNS_11char_traitsIcEENS_9allocatorIcEEEEbRKNS_12basic_stringIT_T0_T1_EEPKS6_, symObjAddr: 0x4BC8, symBinAddr: 0x100007EA8, symSize: 0x34 }
  - { offsetInCU: 0x2672F, offset: 0x2672F, size: 0x8, addend: 0x0, symName: __ZNSt3__14endlB7v160006IcNS_11char_traitsIcEEEERNS_13basic_ostreamIT_T0_EES7_, symObjAddr: 0x4C28, symBinAddr: 0x100007F08, symSize: 0x58 }
  - { offsetInCU: 0x2676F, offset: 0x2676F, size: 0x8, addend: 0x0, symName: __ZNSt3__1eqB7v160006IcNS_11char_traitsIcEENS_9allocatorIcEEEEbRKNS_12basic_stringIT_T0_T1_EEPKS6_, symObjAddr: 0x4CA8, symBinAddr: 0x100007F88, symSize: 0xAC }
  - { offsetInCU: 0x267D6, offset: 0x267D6, size: 0x8, addend: 0x0, symName: __ZNSt3__1lsB7v160006INS_11char_traitsIcEEEERNS_13basic_ostreamIcT_EES6_c, symObjAddr: 0x4D54, symBinAddr: 0x100008034, symSize: 0x34 }
  - { offsetInCU: 0x269AB, offset: 0x269AB, size: 0x8, addend: 0x0, symName: __ZNSt3__1eqB7v160006ERKNS_14__map_iteratorINS_15__tree_iteratorINS_12__value_typeIiNS_6vectorIiNS_9allocatorIiEEEEEEPNS_11__tree_nodeIS7_PvEElEEEESF_, symObjAddr: 0x6418, symBinAddr: 0x1000096F8, symSize: 0x30 }
  - { offsetInCU: 0x26AB5, offset: 0x26AB5, size: 0x8, addend: 0x0, symName: __ZNSt3__1neB7v160006ERKNS_14__map_iteratorINS_15__tree_iteratorINS_12__value_typeINS_12basic_stringIcNS_11char_traitsIcEENS_9allocatorIcEEEEiEEPNS_11__tree_nodeIS9_PvEElEEEESH_, symObjAddr: 0x6684, symBinAddr: 0x100009964, symSize: 0x30 }
  - { offsetInCU: 0x26AF2, offset: 0x26AF2, size: 0x8, addend: 0x0, symName: __ZNSt3__1eqB7v160006ERKNS_14__map_iteratorINS_15__tree_iteratorINS_12__value_typeINS_12basic_stringIcNS_11char_traitsIcEENS_9allocatorIcEEEEiEEPNS_11__tree_nodeIS9_PvEElEEEESH_, symObjAddr: 0x680C, symBinAddr: 0x100009AEC, symSize: 0x30 }
  - { offsetInCU: 0x26BFC, offset: 0x26BFC, size: 0x8, addend: 0x0, symName: __ZNSt3__1neB7v160006ERKNS_21__tree_const_iteratorI7LR1ItemPNS_11__tree_nodeIS1_PvEElEES8_, symObjAddr: 0x713C, symBinAddr: 0x10000A41C, symSize: 0x34 }
  - { offsetInCU: 0x26C39, offset: 0x26C39, size: 0x8, addend: 0x0, symName: __ZNSt3__1neB7v160006ERKNS_14__map_iteratorINS_15__tree_iteratorINS_12__value_typeIiiEEPNS_11__tree_nodeIS3_PvEElEEEESB_, symObjAddr: 0x78AC, symBinAddr: 0x10000AB8C, symSize: 0x30 }
  - { offsetInCU: 0x26C76, offset: 0x26C76, size: 0x8, addend: 0x0, symName: __ZNSt3__1eqB7v160006ERKNS_21__tree_const_iteratorIiPNS_11__tree_nodeIiPvEElEES7_, symObjAddr: 0x7954, symBinAddr: 0x10000AC34, symSize: 0x30 }
  - { offsetInCU: 0x26CB3, offset: 0x26CB3, size: 0x8, addend: 0x0, symName: __ZNSt3__1neB7v160006IPiEEbRKNS_11__wrap_iterIT_EES6_, symObjAddr: 0x7A5C, symBinAddr: 0x10000AD3C, symSize: 0x34 }
  - { offsetInCU: 0x2710C, offset: 0x2710C, size: 0x8, addend: 0x0, symName: __ZNSt3__1neB7v160006IP8LR1StateEEbRKNS_11__wrap_iterIT_EES7_, symObjAddr: 0x8A7C, symBinAddr: 0x10000BD5C, symSize: 0x34 }
  - { offsetInCU: 0x2714F, offset: 0x2714F, size: 0x8, addend: 0x0, symName: __ZNSt3__1neB7v160006ERKNS_19__hash_map_iteratorINS_15__hash_iteratorIPNS_11__hash_nodeINS_17__hash_value_typeIiNS_8multisetI7LR1ItemNS_4lessIS5_EENS_9allocatorIS5_EEEEEEPvEEEEEESI_, symObjAddr: 0x8C8C, symBinAddr: 0x10000BF6C, symSize: 0x30 }
  - { offsetInCU: 0x2718C, offset: 0x2718C, size: 0x8, addend: 0x0, symName: __ZNSt3__1eqB7v160006IPiEEbRKNS_11__wrap_iterIT_EES6_, symObjAddr: 0x959C, symBinAddr: 0x10000C87C, symSize: 0x48 }
  - { offsetInCU: 0x27202, offset: 0x27202, size: 0x8, addend: 0x0, symName: __ZNSt3__14nextB7v160006INS_21__tree_const_iteratorIiPNS_11__tree_nodeIiPvEElEEEENS_9enable_ifIXsr25__is_cpp17_input_iteratorIT_EE5valueES8_E4typeES8_NS_15iterator_traitsIS8_E15difference_typeE, symObjAddr: 0xA5DC, symBinAddr: 0x10000D8BC, symSize: 0x50 }
  - { offsetInCU: 0x27245, offset: 0x27245, size: 0x8, addend: 0x0, symName: __ZNSt3__116__tree_prev_iterB7v160006IPNS_16__tree_node_baseIPvEEPNS_15__tree_end_nodeIS4_EEEET_T0_, symObjAddr: 0xA6F0, symBinAddr: 0x10000D9D0, symSize: 0xA4 }
  - { offsetInCU: 0x27291, offset: 0x27291, size: 0x8, addend: 0x0, symName: __ZNSt3__110__tree_maxB7v160006IPNS_16__tree_node_baseIPvEEEET_S5_, symObjAddr: 0xA794, symBinAddr: 0x10000DA74, symSize: 0x40 }
  - { offsetInCU: 0x272C6, offset: 0x272C6, size: 0x8, addend: 0x0, symName: __ZNSt3__120__tree_is_left_childB7v160006IPNS_16__tree_node_baseIPvEEEEbT_, symObjAddr: 0xA7D4, symBinAddr: 0x10000DAB4, symSize: 0x2C }
  - { offsetInCU: 0x272FB, offset: 0x272FB, size: 0x8, addend: 0x0, symName: __ZNSt3__121__convert_to_integralB7v160006El, symObjAddr: 0xA924, symBinAddr: 0x10000DC04, symSize: 0x14 }
  - { offsetInCU: 0x27327, offset: 0x27327, size: 0x8, addend: 0x0, symName: __ZNSt3__19__advanceB7v160006INS_21__tree_const_iteratorIiPNS_11__tree_nodeIiPvEElEEEEvRT_NS_15iterator_traitsIS7_E15difference_typeENS_26bidirectional_iterator_tagE, symObjAddr: 0xA938, symBinAddr: 0x10000DC18, symSize: 0xA4 }
  - { offsetInCU: 0x2738E, offset: 0x2738E, size: 0x8, addend: 0x0, symName: __ZNSt3__117__libcpp_allocateB7v160006Emm, symObjAddr: 0xAC30, symBinAddr: 0x10000DF10, symSize: 0x28 }
  - { offsetInCU: 0x273CB, offset: 0x273CB, size: 0x8, addend: 0x0, symName: __ZNSt3__121__libcpp_operator_newB7v160006IJmEEEPvDpT_, symObjAddr: 0xAC6C, symBinAddr: 0x10000DF4C, symSize: 0x24 }
  - { offsetInCU: 0x27404, offset: 0x27404, size: 0x8, addend: 0x0, symName: __ZNSt3__127__tree_balance_after_insertB7v160006IPNS_16__tree_node_baseIPvEEEEvT_S5_, symObjAddr: 0xAE78, symBinAddr: 0x10000E158, symSize: 0x27C }
  - { offsetInCU: 0x27480, offset: 0x27480, size: 0x8, addend: 0x0, symName: __ZNSt3__118__tree_left_rotateB7v160006IPNS_16__tree_node_baseIPvEEEEvT_, symObjAddr: 0xB11C, symBinAddr: 0x10000E3FC, symSize: 0xD8 }
  - { offsetInCU: 0x274C2, offset: 0x274C2, size: 0x8, addend: 0x0, symName: __ZNSt3__119__tree_right_rotateB7v160006IPNS_16__tree_node_baseIPvEEEEvT_, symObjAddr: 0xB1F4, symBinAddr: 0x10000E4D4, symSize: 0xCC }
  - { offsetInCU: 0x27504, offset: 0x27504, size: 0x8, addend: 0x0, symName: __ZNSt3__119__libcpp_deallocateB7v160006EPvmm, symObjAddr: 0xB510, symBinAddr: 0x10000E7F0, symSize: 0x30 }
  - { offsetInCU: 0x2754C, offset: 0x2754C, size: 0x8, addend: 0x0, symName: __ZNSt3__127__do_deallocate_handle_sizeB7v160006IJEEEvPvmDpT_, symObjAddr: 0xB540, symBinAddr: 0x10000E820, symSize: 0x28 }
  - { offsetInCU: 0x2758A, offset: 0x2758A, size: 0x8, addend: 0x0, symName: __ZNSt3__124__libcpp_operator_deleteB7v160006IJPvEEEvDpT_, symObjAddr: 0xB568, symBinAddr: 0x10000E848, symSize: 0x24 }
  - { offsetInCU: 0x275BF, offset: 0x275BF, size: 0x8, addend: 0x0, symName: __ZNSt3__1neB7v160006ERKNS_16__deque_iteratorI7LR1ItemPS1_RS1_PS2_lLl128EEES7_, symObjAddr: 0xBB88, symBinAddr: 0x10000EE68, symSize: 0x34 }
  - { offsetInCU: 0x275FC, offset: 0x275FC, size: 0x8, addend: 0x0, symName: __ZNSt3__1eqB7v160006ERKNS_16__deque_iteratorI7LR1ItemPS1_RS1_PS2_lLl128EEES7_, symObjAddr: 0xBE1C, symBinAddr: 0x10000F0FC, symSize: 0x30 }
  - { offsetInCU: 0x27639, offset: 0x27639, size: 0x8, addend: 0x0, symName: __ZNSt3__112__to_addressB7v160006IP7LR1ItemEEPT_S4_, symObjAddr: 0xC184, symBinAddr: 0x10000F464, symSize: 0x14 }
  - { offsetInCU: 0x2766E, offset: 0x2766E, size: 0x8, addend: 0x0, symName: __ZNSt3__1eqB7v160006IP8LR1StateEEbRKNS_11__wrap_iterIT_EES7_, symObjAddr: 0xC2C0, symBinAddr: 0x10000F5A0, symSize: 0x48 }
  - { offsetInCU: 0x276B1, offset: 0x276B1, size: 0x8, addend: 0x0, symName: __ZNSt3__1neB7v160006ERKNS_16__deque_iteratorINS_8multisetI7LR1ItemNS_4lessIS2_EENS_9allocatorIS2_EEEEPS7_RS7_PS8_lLl170EEESD_, symObjAddr: 0xC80C, symBinAddr: 0x10000FAEC, symSize: 0x34 }
  - { offsetInCU: 0x276EE, offset: 0x276EE, size: 0x8, addend: 0x0, symName: __ZNSt3__1eqB7v160006ERKNS_16__deque_iteratorINS_8multisetI7LR1ItemNS_4lessIS2_EENS_9allocatorIS2_EEEEPS7_RS7_PS8_lLl170EEESD_, symObjAddr: 0xCA8C, symBinAddr: 0x10000FD6C, symSize: 0x30 }
  - { offsetInCU: 0x2772B, offset: 0x2772B, size: 0x8, addend: 0x0, symName: __ZNSt3__112__to_addressB7v160006IPNS_8multisetI7LR1ItemNS_4lessIS2_EENS_9allocatorIS2_EEEEEEPT_SA_, symObjAddr: 0xCDF8, symBinAddr: 0x1000100D8, symSize: 0x14 }
  - { offsetInCU: 0x27760, offset: 0x27760, size: 0x8, addend: 0x0, symName: __ZNSt3__119__debug_db_insert_cB7v160006INS_12basic_stringIcNS_11char_traitsIcEENS_9allocatorIcEEEEEEvPT_, symObjAddr: 0xCF88, symBinAddr: 0x100010268, symSize: 0x10 }
  - { offsetInCU: 0x277C4, offset: 0x277C4, size: 0x8, addend: 0x0, symName: __ZNSt3__119__debug_db_insert_cB7v160006INS_6vectorI8ProducerNS_9allocatorIS2_EEEEEEvPT_, symObjAddr: 0xE944, symBinAddr: 0x100011C24, symSize: 0x10 }
  - { offsetInCU: 0x277F5, offset: 0x277F5, size: 0x8, addend: 0x0, symName: __ZNSt3__118__debug_db_erase_cB7v160006INS_6vectorI8ProducerNS_9allocatorIS2_EEEEEEvPT_, symObjAddr: 0xEC08, symBinAddr: 0x100011EE8, symSize: 0x10 }
  - { offsetInCU: 0x27826, offset: 0x27826, size: 0x8, addend: 0x0, symName: __ZNSt3__112__to_addressB7v160006I8ProducerEEPT_S3_, symObjAddr: 0xED24, symBinAddr: 0x100012004, symSize: 0x14 }
  - { offsetInCU: 0x2785B, offset: 0x2785B, size: 0x8, addend: 0x0, symName: __ZNSt3__119__debug_db_insert_cB7v160006INS_6vectorIiNS_9allocatorIiEEEEEEvPT_, symObjAddr: 0xEF84, symBinAddr: 0x100012264, symSize: 0x10 }
  - { offsetInCU: 0x2788C, offset: 0x2788C, size: 0x8, addend: 0x0, symName: __ZNSt3__118__debug_db_erase_cB7v160006INS_6vectorIiNS_9allocatorIiEEEEEEvPT_, symObjAddr: 0xF248, symBinAddr: 0x100012528, symSize: 0x10 }
  - { offsetInCU: 0x278BD, offset: 0x278BD, size: 0x8, addend: 0x0, symName: __ZNSt3__112__to_addressB7v160006IiEEPT_S2_, symObjAddr: 0xF364, symBinAddr: 0x100012644, symSize: 0x14 }
  - { offsetInCU: 0x278F2, offset: 0x278F2, size: 0x8, addend: 0x0, symName: __ZNSt3__119__debug_db_insert_cB7v160006INS_6vectorINS_12basic_stringIcNS_11char_traitsIcEENS_9allocatorIcEEEENS5_IS7_EEEEEEvPT_, symObjAddr: 0xF5B0, symBinAddr: 0x100012890, symSize: 0x10 }
  - { offsetInCU: 0x27923, offset: 0x27923, size: 0x8, addend: 0x0, symName: __ZNSt3__118__debug_db_erase_cB7v160006INS_6vectorINS_12basic_stringIcNS_11char_traitsIcEENS_9allocatorIcEEEENS5_IS7_EEEEEEvPT_, symObjAddr: 0xF890, symBinAddr: 0x100012B70, symSize: 0x10 }
  - { offsetInCU: 0x27954, offset: 0x27954, size: 0x8, addend: 0x0, symName: __ZNSt3__112__to_addressB7v160006INS_12basic_stringIcNS_11char_traitsIcEENS_9allocatorIcEEEEEEPT_S8_, symObjAddr: 0xF9D4, symBinAddr: 0x100012CB4, symSize: 0x14 }
  - { offsetInCU: 0x27989, offset: 0x27989, size: 0x8, addend: 0x0, symName: __ZNSt3__119__debug_db_insert_cB7v160006INS_6vectorINS1_IiNS_9allocatorIiEEEENS2_IS4_EEEEEEvPT_, symObjAddr: 0x10274, symBinAddr: 0x100013554, symSize: 0x10 }
  - { offsetInCU: 0x279BA, offset: 0x279BA, size: 0x8, addend: 0x0, symName: __ZNSt3__118__debug_db_erase_cB7v160006INS_6vectorINS1_IiNS_9allocatorIiEEEENS2_IS4_EEEEEEvPT_, symObjAddr: 0x10554, symBinAddr: 0x100013834, symSize: 0x10 }
  - { offsetInCU: 0x279EB, offset: 0x279EB, size: 0x8, addend: 0x0, symName: __ZNSt3__112__to_addressB7v160006INS_6vectorIiNS_9allocatorIiEEEEEEPT_S6_, symObjAddr: 0x10670, symBinAddr: 0x100013950, symSize: 0x14 }
  - { offsetInCU: 0x27A20, offset: 0x27A20, size: 0x8, addend: 0x0, symName: __ZNSt3__116__tree_next_iterB7v160006IPNS_15__tree_end_nodeIPNS_16__tree_node_baseIPvEEEES5_EET_T0_, symObjAddr: 0x10910, symBinAddr: 0x100013BF0, symSize: 0x80 }
  - { offsetInCU: 0x27A5E, offset: 0x27A5E, size: 0x8, addend: 0x0, symName: __ZNSt3__110__tree_minB7v160006IPNS_16__tree_node_baseIPvEEEET_S5_, symObjAddr: 0x10990, symBinAddr: 0x100013C70, symSize: 0x40 }
  - { offsetInCU: 0x27A93, offset: 0x27A93, size: 0x8, addend: 0x0, symName: __ZNSt3__125__debug_db_invalidate_allB7v160006INS_6vectorIbNS_9allocatorIbEEE16__destroy_vectorEEEvPT_, symObjAddr: 0x10E68, symBinAddr: 0x100014148, symSize: 0x10 }
  - { offsetInCU: 0x27AC4, offset: 0x27AC4, size: 0x8, addend: 0x0, symName: __ZNSt3__15equalB7v160006INS_21__tree_const_iteratorIiPNS_11__tree_nodeIiPvEElEES6_EEbT_S7_T0_, symObjAddr: 0x10F3C, symBinAddr: 0x10001421C, symSize: 0x50 }
  - { offsetInCU: 0x27B1E, offset: 0x27B1E, size: 0x8, addend: 0x0, symName: __ZNSt3__15equalB7v160006INS_21__tree_const_iteratorIiPNS_11__tree_nodeIiPvEElEES6_NS_10__equal_toEEEbT_S8_T0_T1_, symObjAddr: 0x10FD8, symBinAddr: 0x1000142B8, symSize: 0xB0 }
  - { offsetInCU: 0x27BCA, offset: 0x27BCA, size: 0x8, addend: 0x0, symName: __ZNSt3__116__pad_and_outputB7v160006IcNS_11char_traitsIcEEEENS_19ostreambuf_iteratorIT_T0_EES6_PKS4_S8_S8_RNS_8ios_baseES4_, symObjAddr: 0x11470, symBinAddr: 0x100014750, symSize: 0x240 }
  - { offsetInCU: 0x27C99, offset: 0x27C99, size: 0x8, addend: 0x0, symName: __ZNSt3__112__to_addressB7v160006IKcEEPT_S3_, symObjAddr: 0x118E8, symBinAddr: 0x100014BC8, symSize: 0x14 }
  - { offsetInCU: 0x27D01, offset: 0x27D01, size: 0x8, addend: 0x0, symName: __ZNSt3__19use_facetB7v160006INS_5ctypeIcEEEERKT_RKNS_6localeE, symObjAddr: 0x11AF0, symBinAddr: 0x100014DD0, symSize: 0x2C }
  - { offsetInCU: 0x280E1, offset: 0x280E1, size: 0x8, addend: 0x0, symName: __ZNSt3__118__constexpr_strlenB7v160006EPKc, symObjAddr: 0x11B88, symBinAddr: 0x100014E68, symSize: 0x24 }
  - { offsetInCU: 0x2830E, offset: 0x2830E, size: 0x8, addend: 0x0, symName: __ZNSt3__125__debug_db_invalidate_allB7v160006INS_12basic_stringIcNS_11char_traitsIcEENS_9allocatorIcEEEEEEvPT_, symObjAddr: 0x11F14, symBinAddr: 0x1000151F4, symSize: 0x10 }
  - { offsetInCU: 0x2833F, offset: 0x2833F, size: 0x8, addend: 0x0, symName: __ZNSt3__17getlineB7v160006IcNS_11char_traitsIcEENS_9allocatorIcEEEERNS_13basic_istreamIT_T0_EES9_RNS_12basic_stringIS6_S7_T1_EES6_, symObjAddr: 0x1213C, symBinAddr: 0x10001541C, symSize: 0x234 }
  - { offsetInCU: 0x283FD, offset: 0x283FD, size: 0x8, addend: 0x0, symName: __ZNSt3__110__str_findB7v160006IcmNS_11char_traitsIcEELm18446744073709551615EEET0_PKT_S3_S6_S3_S3_, symObjAddr: 0x1241C, symBinAddr: 0x1000156FC, symSize: 0xE4 }
  - { offsetInCU: 0x284A4, offset: 0x284A4, size: 0x8, addend: 0x0, symName: __ZNSt3__118__search_substringB7v160006IcNS_11char_traitsIcEEEEPKT_S5_S5_S5_S5_, symObjAddr: 0x12500, symBinAddr: 0x1000157E0, symSize: 0x154 }
  - { offsetInCU: 0x2853E, offset: 0x2853E, size: 0x8, addend: 0x0, symName: __ZNSt3__123__constexpr_char_memchrB7v160006EPKcim, symObjAddr: 0x12730, symBinAddr: 0x100015A10, symSize: 0x34 }
  - { offsetInCU: 0x28586, offset: 0x28586, size: 0x8, addend: 0x0, symName: __ZNSt3__118__constexpr_memcmpB7v160006IcEEiPKT_S3_m, symObjAddr: 0x12764, symBinAddr: 0x100015A44, symSize: 0x34 }
  - { offsetInCU: 0x2860E, offset: 0x2860E, size: 0x8, addend: 0x0, symName: __ZNSt3__116forward_as_tupleB7v160006IJRKNS_12basic_stringIcNS_11char_traitsIcEENS_9allocatorIcEEEEEEENS_5tupleIJDpOT_EEESC_, symObjAddr: 0x12910, symBinAddr: 0x100015BF0, symSize: 0x2C }
  - { offsetInCU: 0x28647, offset: 0x28647, size: 0x8, addend: 0x0, symName: __ZNSt3__116forward_as_tupleB7v160006IJEEENS_5tupleIJDpOT_EEES4_, symObjAddr: 0x1293C, symBinAddr: 0x100015C1C, symSize: 0x4 }
  - { offsetInCU: 0x2866B, offset: 0x2866B, size: 0x8, addend: 0x0, symName: __ZNSt3__1ltB7v160006IcNS_11char_traitsIcEENS_9allocatorIcEEEEbRKNS_12basic_stringIT_T0_T1_EESB_, symObjAddr: 0x12F48, symBinAddr: 0x100016228, symSize: 0x38 }
  - { offsetInCU: 0x286E7, offset: 0x286E7, size: 0x8, addend: 0x0, symName: __ZNSt3__13minB7v160006ImEERKT_S3_S3_, symObjAddr: 0x13178, symBinAddr: 0x100016458, symSize: 0x2C }
  - { offsetInCU: 0x2872A, offset: 0x2872A, size: 0x8, addend: 0x0, symName: __ZNSt3__13minB7v160006ImNS_6__lessImmEEEERKT_S5_S5_T0_, symObjAddr: 0x131A4, symBinAddr: 0x100016484, symSize: 0x54 }
  - { offsetInCU: 0x287E8, offset: 0x287E8, size: 0x8, addend: 0x0, symName: __ZNSt3__13getB7v160006ILm0EJRKNS_12basic_stringIcNS_11char_traitsIcEENS_9allocatorIcEEEEEEERNS_13tuple_elementIXT_ENS_5tupleIJDpT0_EEEE4typeERSD_, symObjAddr: 0x136B4, symBinAddr: 0x100016994, symSize: 0x24 }
  - { offsetInCU: 0x28882, offset: 0x28882, size: 0x8, addend: 0x0, symName: __ZNSt3__125__debug_db_invalidate_allB7v160006INS_6vectorIiNS_9allocatorIiEEEEEEvPT_, symObjAddr: 0x13B4C, symBinAddr: 0x100016E2C, symSize: 0x10 }
  - { offsetInCU: 0x288B3, offset: 0x288B3, size: 0x8, addend: 0x0, symName: __ZNSt3__13maxB7v160006ImEERKT_S3_S3_, symObjAddr: 0x14188, symBinAddr: 0x100017468, symSize: 0x2C }
  - { offsetInCU: 0x288F6, offset: 0x288F6, size: 0x8, addend: 0x0, symName: __ZNSt3__120__throw_length_errorB7v160006EPKc, symObjAddr: 0x1424C, symBinAddr: 0x10001752C, symSize: 0x64 }
  - { offsetInCU: 0x2891E, offset: 0x2891E, size: 0x8, addend: 0x0, symName: __ZNSt3__13maxB7v160006ImNS_6__lessImmEEEERKT_S5_S5_T0_, symObjAddr: 0x14330, symBinAddr: 0x100017610, symSize: 0x54 }
  - { offsetInCU: 0x28978, offset: 0x28978, size: 0x8, addend: 0x0, symName: __ZNSt3__119__allocate_at_leastB7v160006INS_9allocatorI8ProducerEEEENS_19__allocation_resultINS_16allocator_traitsIT_E7pointerEEERS6_m, symObjAddr: 0x14494, symBinAddr: 0x100017774, symSize: 0x40 }
  - { offsetInCU: 0x289BB, offset: 0x289BB, size: 0x8, addend: 0x0, symName: __ZNSt3__142__uninitialized_allocator_move_if_noexceptB7v160006INS_9allocatorI8ProducerEENS_16reverse_iteratorIPS2_EES6_S6_EET2_RT_T0_T1_S7_, symObjAddr: 0x14648, symBinAddr: 0x100017928, symSize: 0x12C }
  - { offsetInCU: 0x28A5B, offset: 0x28A5B, size: 0x8, addend: 0x0, symName: __ZNSt3__14swapB7v160006IP8ProducerEENS_9enable_ifIXaasr21is_move_constructibleIT_EE5valuesr18is_move_assignableIS4_EE5valueEvE4typeERS4_S7_, symObjAddr: 0x147C0, symBinAddr: 0x100017AA0, symSize: 0x3C }
  - { offsetInCU: 0x28AAC, offset: 0x28AAC, size: 0x8, addend: 0x0, symName: __ZNSt3__125__debug_db_invalidate_allB7v160006INS_6vectorI8ProducerNS_9allocatorIS2_EEEEEEvPT_, symObjAddr: 0x148A8, symBinAddr: 0x100017B88, symSize: 0x10 }
  - { offsetInCU: 0x28ADD, offset: 0x28ADD, size: 0x8, addend: 0x0, symName: __ZNSt3__122__make_exception_guardB7v160006INS_29_AllocatorDestroyRangeReverseINS_9allocatorI8ProducerEENS_16reverse_iteratorIPS3_EEEEEENS_28__exception_guard_exceptionsIT_EESA_, symObjAddr: 0x148B8, symBinAddr: 0x100017B98, symSize: 0x4C }
  - { offsetInCU: 0x28B13, offset: 0x28B13, size: 0x8, addend: 0x0, symName: __ZNSt3__1neB7v160006IP8ProducerS2_EEbRKNS_16reverse_iteratorIT_EERKNS3_IT0_EE, symObjAddr: 0x14948, symBinAddr: 0x100017C28, symSize: 0x48 }
  - { offsetInCU: 0x28B5F, offset: 0x28B5F, size: 0x8, addend: 0x0, symName: __ZNSt3__112__to_addressB7v160006INS_16reverse_iteratorIP8ProducerEEvEENS_5decayIDTclsr19__to_address_helperIT_EE6__callclsr3stdE7declvalIRKS6_EEEEE4typeES8_, symObjAddr: 0x149C4, symBinAddr: 0x100017CA4, symSize: 0x24 }
  - { offsetInCU: 0x28B95, offset: 0x28B95, size: 0x8, addend: 0x0, symName: __ZNSt3__115__debug_db_swapB7v160006INS_6vectorIiNS_9allocatorIiEEEEEEvPT_S6_, symObjAddr: 0x14D0C, symBinAddr: 0x100017FEC, symSize: 0x14 }
  - { offsetInCU: 0x28BFD, offset: 0x28BFD, size: 0x8, addend: 0x0, symName: __ZNSt3__119__allocator_destroyB7v160006INS_9allocatorI8ProducerEENS_16reverse_iteratorINS4_IPS2_EEEES7_EEvRT_T0_T1_, symObjAddr: 0x14F3C, symBinAddr: 0x10001821C, symSize: 0x70 }
  - { offsetInCU: 0x28C62, offset: 0x28C62, size: 0x8, addend: 0x0, symName: __ZNSt3__1neB7v160006INS_16reverse_iteratorIP8ProducerEES4_EEbRKNS1_IT_EERKNS1_IT0_EE, symObjAddr: 0x14FE8, symBinAddr: 0x1000182C8, symSize: 0x60 }
  - { offsetInCU: 0x28CAE, offset: 0x28CAE, size: 0x8, addend: 0x0, symName: __ZNSt3__112__to_addressB7v160006INS_16reverse_iteratorINS1_IP8ProducerEEEEvEENS_5decayIDTclsr19__to_address_helperIT_EE6__callclsr3stdE7declvalIRKS7_EEEEE4typeES9_, symObjAddr: 0x15048, symBinAddr: 0x100018328, symSize: 0x24 }
  - { offsetInCU: 0x28D0D, offset: 0x28D0D, size: 0x8, addend: 0x0, symName: __ZNSt3__119__allocate_at_leastB7v160006INS_9allocatorIiEEEENS_19__allocation_resultINS_16allocator_traitsIT_E7pointerEEERS5_m, symObjAddr: 0x15AA0, symBinAddr: 0x100018D80, symSize: 0x40 }
  - { offsetInCU: 0x28D50, offset: 0x28D50, size: 0x8, addend: 0x0, symName: __ZNSt3__142__uninitialized_allocator_move_if_noexceptB7v160006INS_9allocatorIiEENS_16reverse_iteratorIPiEES5_ivEET1_RT_T0_S9_S6_, symObjAddr: 0x15C54, symBinAddr: 0x100018F34, symSize: 0x78 }
  - { offsetInCU: 0x28DCD, offset: 0x28DCD, size: 0x8, addend: 0x0, symName: __ZNSt3__14swapB7v160006IPiEENS_9enable_ifIXaasr21is_move_constructibleIT_EE5valuesr18is_move_assignableIS3_EE5valueEvE4typeERS3_S6_, symObjAddr: 0x15D18, symBinAddr: 0x100018FF8, symSize: 0x3C }
  - { offsetInCU: 0x28E1E, offset: 0x28E1E, size: 0x8, addend: 0x0, symName: __ZNSt3__14moveB7v160006INS_16reverse_iteratorIPiEES3_EET0_T_S5_S4_, symObjAddr: 0x15E00, symBinAddr: 0x1000190E0, symSize: 0x78 }
  - { offsetInCU: 0x28E78, offset: 0x28E78, size: 0x8, addend: 0x0, symName: __ZNSt3__16__moveB7v160006INS_17_ClassicAlgPolicyENS_16reverse_iteratorIPiEES4_S4_EENS_4pairIT0_T2_EES6_T1_S7_, symObjAddr: 0x15E78, symBinAddr: 0x100019158, symSize: 0x64 }
  - { offsetInCU: 0x28EE4, offset: 0x28EE4, size: 0x8, addend: 0x0, symName: __ZNSt3__123__dispatch_copy_or_moveB7v160006INS_17_ClassicAlgPolicyENS_11__move_loopIS1_EENS_14__move_trivialENS_16reverse_iteratorIPiEES7_S7_EENS_4pairIT2_T4_EES9_T3_SA_, symObjAddr: 0x15EDC, symBinAddr: 0x1000191BC, symSize: 0x64 }
  - { offsetInCU: 0x28F62, offset: 0x28F62, size: 0x8, addend: 0x0, symName: __ZNSt3__121__unwrap_and_dispatchB7v160006INS_10__overloadINS_11__move_loopINS_17_ClassicAlgPolicyEEENS_14__move_trivialEEENS_16reverse_iteratorIPiEES9_S9_Li0EEENS_4pairIT0_T2_EESB_T1_SC_, symObjAddr: 0x15F40, symBinAddr: 0x100019220, symSize: 0x12C }
  - { offsetInCU: 0x28FF2, offset: 0x28FF2, size: 0x8, addend: 0x0, symName: __ZNSt3__114__unwrap_rangeB7v160006INS_16reverse_iteratorIPiEES3_EENS_4pairIT0_S5_EET_S7_, symObjAddr: 0x1606C, symBinAddr: 0x10001934C, symSize: 0x84 }
  - { offsetInCU: 0x2916D, offset: 0x2916D, size: 0x8, addend: 0x0, symName: __ZNSt3__113__unwrap_iterB7v160006INS_16reverse_iteratorIPiEENS_18__unwrap_iter_implIS3_Lb0EEELi0EEEDTclsrT0_8__unwrapclsr3stdE7declvalIT_EEEES7_, symObjAddr: 0x16190, symBinAddr: 0x100019470, symSize: 0x44 }
  - { offsetInCU: 0x291B1, offset: 0x291B1, size: 0x8, addend: 0x0, symName: __ZNSt3__19make_pairB7v160006INS_16reverse_iteratorIPiEES3_EENS_4pairINS_18__unwrap_ref_decayIT_E4typeENS5_IT0_E4typeEEEOS6_OS9_, symObjAddr: 0x161D4, symBinAddr: 0x1000194B4, symSize: 0x38 }
  - { offsetInCU: 0x29200, offset: 0x29200, size: 0x8, addend: 0x0, symName: __ZNSt3__114__rewrap_rangeB7v160006INS_16reverse_iteratorIPiEES3_EET_S4_T0_, symObjAddr: 0x1620C, symBinAddr: 0x1000194EC, symSize: 0x5C }
  - { offsetInCU: 0x2924C, offset: 0x2924C, size: 0x8, addend: 0x0, symName: __ZNSt3__113__rewrap_iterB7v160006INS_16reverse_iteratorIPiEES3_NS_18__unwrap_iter_implIS3_Lb0EEEEET_S6_T0_, symObjAddr: 0x16268, symBinAddr: 0x100019548, symSize: 0x74 }
  - { offsetInCU: 0x292A1, offset: 0x292A1, size: 0x8, addend: 0x0, symName: __ZNSt3__1neB7v160006IPiS1_EEbRKNS_16reverse_iteratorIT_EERKNS2_IT0_EE, symObjAddr: 0x162DC, symBinAddr: 0x1000195BC, symSize: 0x48 }
  - { offsetInCU: 0x2939F, offset: 0x2939F, size: 0x8, addend: 0x0, symName: __ZNSt3__115__debug_db_swapB7v160006INS_12basic_stringIcNS_11char_traitsIcEENS_9allocatorIcEEEEEEvPT_S8_, symObjAddr: 0x16A00, symBinAddr: 0x100019CE0, symSize: 0x14 }
  - { offsetInCU: 0x293DE, offset: 0x293DE, size: 0x8, addend: 0x0, symName: __ZNSt3__119__allocate_at_leastB7v160006INS_9allocatorINS_12basic_stringIcNS_11char_traitsIcEENS1_IcEEEEEEEENS_19__allocation_resultINS_16allocator_traitsIT_E7pointerEEERSA_m, symObjAddr: 0x16EA4, symBinAddr: 0x10001A184, symSize: 0x40 }
  - { offsetInCU: 0x29421, offset: 0x29421, size: 0x8, addend: 0x0, symName: __ZNSt3__142__uninitialized_allocator_move_if_noexceptB7v160006INS_9allocatorINS_12basic_stringIcNS_11char_traitsIcEENS1_IcEEEEEENS_16reverse_iteratorIPS6_EESA_SA_EET2_RT_T0_T1_SB_, symObjAddr: 0x1705C, symBinAddr: 0x10001A33C, symSize: 0x12C }
  - { offsetInCU: 0x294C1, offset: 0x294C1, size: 0x8, addend: 0x0, symName: __ZNSt3__14swapB7v160006IPNS_12basic_stringIcNS_11char_traitsIcEENS_9allocatorIcEEEEEENS_9enable_ifIXaasr21is_move_constructibleIT_EE5valuesr18is_move_assignableIS9_EE5valueEvE4typeERS9_SC_, symObjAddr: 0x171D4, symBinAddr: 0x10001A4B4, symSize: 0x3C }
  - { offsetInCU: 0x29512, offset: 0x29512, size: 0x8, addend: 0x0, symName: __ZNSt3__125__debug_db_invalidate_allB7v160006INS_6vectorINS_12basic_stringIcNS_11char_traitsIcEENS_9allocatorIcEEEENS5_IS7_EEEEEEvPT_, symObjAddr: 0x172D8, symBinAddr: 0x10001A5B8, symSize: 0x10 }
  - { offsetInCU: 0x29543, offset: 0x29543, size: 0x8, addend: 0x0, symName: __ZNSt3__122__make_exception_guardB7v160006INS_29_AllocatorDestroyRangeReverseINS_9allocatorINS_12basic_stringIcNS_11char_traitsIcEENS2_IcEEEEEENS_16reverse_iteratorIPS7_EEEEEENS_28__exception_guard_exceptionsIT_EESE_, symObjAddr: 0x172E8, symBinAddr: 0x10001A5C8, symSize: 0x4C }
  - { offsetInCU: 0x29579, offset: 0x29579, size: 0x8, addend: 0x0, symName: __ZNSt3__1neB7v160006IPNS_12basic_stringIcNS_11char_traitsIcEENS_9allocatorIcEEEES7_EEbRKNS_16reverse_iteratorIT_EERKNS8_IT0_EE, symObjAddr: 0x17378, symBinAddr: 0x10001A658, symSize: 0x48 }
  - { offsetInCU: 0x295C5, offset: 0x295C5, size: 0x8, addend: 0x0, symName: __ZNSt3__112__to_addressB7v160006INS_16reverse_iteratorIPNS_12basic_stringIcNS_11char_traitsIcEENS_9allocatorIcEEEEEEvEENS_5decayIDTclsr19__to_address_helperIT_EE6__callclsr3stdE7declvalIRKSB_EEEEE4typeESD_, symObjAddr: 0x173C0, symBinAddr: 0x10001A6A0, symSize: 0x24 }
  - { offsetInCU: 0x29624, offset: 0x29624, size: 0x8, addend: 0x0, symName: __ZNSt3__119__allocator_destroyB7v160006INS_9allocatorINS_12basic_stringIcNS_11char_traitsIcEENS1_IcEEEEEENS_16reverse_iteratorINS8_IPS6_EEEESB_EEvRT_T0_T1_, symObjAddr: 0x17670, symBinAddr: 0x10001A950, symSize: 0x70 }
  - { offsetInCU: 0x29689, offset: 0x29689, size: 0x8, addend: 0x0, symName: __ZNSt3__1neB7v160006INS_16reverse_iteratorIPNS_12basic_stringIcNS_11char_traitsIcEENS_9allocatorIcEEEEEES9_EEbRKNS1_IT_EERKNS1_IT0_EE, symObjAddr: 0x1771C, symBinAddr: 0x10001A9FC, symSize: 0x60 }
  - { offsetInCU: 0x296D5, offset: 0x296D5, size: 0x8, addend: 0x0, symName: __ZNSt3__112__to_addressB7v160006INS_16reverse_iteratorINS1_IPNS_12basic_stringIcNS_11char_traitsIcEENS_9allocatorIcEEEEEEEEvEENS_5decayIDTclsr19__to_address_helperIT_EE6__callclsr3stdE7declvalIRKSC_EEEEE4typeESE_, symObjAddr: 0x1777C, symBinAddr: 0x10001AA5C, symSize: 0x24 }
  - { offsetInCU: 0x29734, offset: 0x29734, size: 0x8, addend: 0x0, symName: __ZNSt3__1neB7v160006ERKNS_15__tree_iteratorINS_12__value_typeIiNS_6vectorIiNS_9allocatorIiEEEEEEPNS_11__tree_nodeIS6_PvEElEESD_, symObjAddr: 0x17E78, symBinAddr: 0x10001B158, symSize: 0x34 }
  - { offsetInCU: 0x29771, offset: 0x29771, size: 0x8, addend: 0x0, symName: __ZNSt3__1eqB7v160006ERKNS_15__tree_iteratorINS_12__value_typeIiNS_6vectorIiNS_9allocatorIiEEEEEEPNS_11__tree_nodeIS6_PvEElEESD_, symObjAddr: 0x18030, symBinAddr: 0x10001B310, symSize: 0x30 }
  - { offsetInCU: 0x297AE, offset: 0x297AE, size: 0x8, addend: 0x0, symName: __ZNSt3__18distanceB7v160006IPiEENS_15iterator_traitsIT_E15difference_typeES3_S3_, symObjAddr: 0x1828C, symBinAddr: 0x10001B56C, symSize: 0x2C }
  - { offsetInCU: 0x297F1, offset: 0x297F1, size: 0x8, addend: 0x0, symName: __ZNSt3__14copyB7v160006IPiS1_EET0_T_S3_S2_, symObjAddr: 0x18308, symBinAddr: 0x10001B5E8, symSize: 0x40 }
  - { offsetInCU: 0x2984B, offset: 0x2984B, size: 0x8, addend: 0x0, symName: __ZNSt3__110__distanceB7v160006IPiEENS_15iterator_traitsIT_E15difference_typeES3_S3_NS_26random_access_iterator_tagE, symObjAddr: 0x1856C, symBinAddr: 0x10001B84C, symSize: 0x28 }
  - { offsetInCU: 0x29898, offset: 0x29898, size: 0x8, addend: 0x0, symName: __ZNSt3__121__convert_to_integralB7v160006Em, symObjAddr: 0x18594, symBinAddr: 0x10001B874, symSize: 0x14 }
  - { offsetInCU: 0x298C4, offset: 0x298C4, size: 0x8, addend: 0x0, symName: __ZNSt3__19__advanceB7v160006IPiEEvRT_NS_15iterator_traitsIS2_E15difference_typeENS_26random_access_iterator_tagE, symObjAddr: 0x185A8, symBinAddr: 0x10001B888, symSize: 0x28 }
  - { offsetInCU: 0x2990D, offset: 0x2990D, size: 0x8, addend: 0x0, symName: __ZNSt3__16__copyB7v160006INS_17_ClassicAlgPolicyEPiS2_S2_EENS_4pairIT0_T2_EES4_T1_S5_, symObjAddr: 0x185D0, symBinAddr: 0x10001B8B0, symSize: 0x44 }
  - { offsetInCU: 0x29979, offset: 0x29979, size: 0x8, addend: 0x0, symName: __ZNSt3__123__dispatch_copy_or_moveB7v160006INS_17_ClassicAlgPolicyENS_11__copy_loopIS1_EENS_14__copy_trivialEPiS5_S5_EENS_4pairIT2_T4_EES7_T3_S8_, symObjAddr: 0x18614, symBinAddr: 0x10001B8F4, symSize: 0x44 }
  - { offsetInCU: 0x299F7, offset: 0x299F7, size: 0x8, addend: 0x0, symName: __ZNSt3__121__unwrap_and_dispatchB7v160006INS_10__overloadINS_11__copy_loopINS_17_ClassicAlgPolicyEEENS_14__copy_trivialEEEPiS7_S7_Li0EEENS_4pairIT0_T2_EES9_T1_SA_, symObjAddr: 0x18658, symBinAddr: 0x10001B938, symSize: 0xB4 }
  - { offsetInCU: 0x29A85, offset: 0x29A85, size: 0x8, addend: 0x0, symName: __ZNSt3__114__unwrap_rangeB7v160006IPiS1_EENS_4pairIT0_S3_EET_S5_, symObjAddr: 0x1870C, symBinAddr: 0x10001B9EC, symSize: 0x60 }
  - { offsetInCU: 0x29C1A, offset: 0x29C1A, size: 0x8, addend: 0x0, symName: __ZNSt3__113__unwrap_iterB7v160006IPiNS_18__unwrap_iter_implIS1_Lb1EEELi0EEEDTclsrT0_8__unwrapclsr3stdE7declvalIT_EEEES5_, symObjAddr: 0x187B4, symBinAddr: 0x10001BA94, symSize: 0x24 }
  - { offsetInCU: 0x29C5E, offset: 0x29C5E, size: 0x8, addend: 0x0, symName: __ZNSt3__19make_pairB7v160006IPiS1_EENS_4pairINS_18__unwrap_ref_decayIT_E4typeENS3_IT0_E4typeEEEOS4_OS7_, symObjAddr: 0x187D8, symBinAddr: 0x10001BAB8, symSize: 0x38 }
  - { offsetInCU: 0x29CAD, offset: 0x29CAD, size: 0x8, addend: 0x0, symName: __ZNSt3__114__rewrap_rangeB7v160006IPiS1_EET_S2_T0_, symObjAddr: 0x18810, symBinAddr: 0x10001BAF0, symSize: 0x2C }
  - { offsetInCU: 0x29CF9, offset: 0x29CF9, size: 0x8, addend: 0x0, symName: __ZNSt3__113__rewrap_iterB7v160006IPiS1_NS_18__unwrap_iter_implIS1_Lb1EEEEET_S4_T0_, symObjAddr: 0x1883C, symBinAddr: 0x10001BB1C, symSize: 0x3C }
  - { offsetInCU: 0x29D4E, offset: 0x29D4E, size: 0x8, addend: 0x0, symName: __ZNSt3__119__copy_trivial_implB7v160006IiiEENS_4pairIPT_PT0_EES3_S3_S5_, symObjAddr: 0x18878, symBinAddr: 0x10001BB58, symSize: 0x84 }
  - { offsetInCU: 0x29DB6, offset: 0x29DB6, size: 0x8, addend: 0x0, symName: __ZNSt3__19make_pairB7v160006IRPiS1_EENS_4pairINS_18__unwrap_ref_decayIT_E4typeENS4_IT0_E4typeEEEOS5_OS8_, symObjAddr: 0x188FC, symBinAddr: 0x10001BBDC, symSize: 0x38 }
  - { offsetInCU: 0x29E58, offset: 0x29E58, size: 0x8, addend: 0x0, symName: __ZNSt3__130__uninitialized_allocator_copyB7v160006INS_9allocatorIiEEPiS3_S3_EET2_RT_T0_T1_S4_, symObjAddr: 0x18A88, symBinAddr: 0x10001BD68, symSize: 0xF4 }
  - { offsetInCU: 0x29EF6, offset: 0x29EF6, size: 0x8, addend: 0x0, symName: __ZNSt3__122__make_exception_guardB7v160006INS_29_AllocatorDestroyRangeReverseINS_9allocatorIiEEPiEEEENS_28__exception_guard_exceptionsIT_EES7_, symObjAddr: 0x18B7C, symBinAddr: 0x10001BE5C, symSize: 0x4C }
  - { offsetInCU: 0x29F2C, offset: 0x29F2C, size: 0x8, addend: 0x0, symName: __ZNSt3__119__allocator_destroyB7v160006INS_9allocatorIiEENS_16reverse_iteratorIPiEES5_EEvRT_T0_T1_, symObjAddr: 0x18E04, symBinAddr: 0x10001C0E4, symSize: 0x70 }
  - { offsetInCU: 0x29F8F, offset: 0x29F8F, size: 0x8, addend: 0x0, symName: __ZNSt3__112__to_addressB7v160006INS_16reverse_iteratorIPiEEvEENS_5decayIDTclsr19__to_address_helperIT_EE6__callclsr3stdE7declvalIRKS5_EEEEE4typeES7_, symObjAddr: 0x18E74, symBinAddr: 0x10001C154, symSize: 0x24 }
  - { offsetInCU: 0x2A015, offset: 0x2A015, size: 0x8, addend: 0x0, symName: __ZNSt3__13getB7v160006ILm0EiNS_6vectorIiNS_9allocatorIiEEEEEERNS_13tuple_elementIXT_ENS_4pairIT0_T1_EEE4typeERS9_, symObjAddr: 0x19938, symBinAddr: 0x10001CC18, symSize: 0x24 }
  - { offsetInCU: 0x2A05E, offset: 0x2A05E, size: 0x8, addend: 0x0, symName: __ZNSt3__13getB7v160006ILm1EiNS_6vectorIiNS_9allocatorIiEEEEEERNS_13tuple_elementIXT_ENS_4pairIT0_T1_EEE4typeERS9_, symObjAddr: 0x1995C, symBinAddr: 0x10001CC3C, symSize: 0x24 }
  - { offsetInCU: 0x2A261, offset: 0x2A261, size: 0x8, addend: 0x0, symName: __ZNSt3__116forward_as_tupleB7v160006IJRKiEEENS_5tupleIJDpOT_EEES6_, symObjAddr: 0x19D88, symBinAddr: 0x10001D068, symSize: 0x2C }
  - { offsetInCU: 0x2A29A, offset: 0x2A29A, size: 0x8, addend: 0x0, symName: __ZNSt3__13getB7v160006ILm0EJRKiEEERNS_13tuple_elementIXT_ENS_5tupleIJDpT0_EEEE4typeERS7_, symObjAddr: 0x1A054, symBinAddr: 0x10001D334, symSize: 0x24 }
  - { offsetInCU: 0x2A325, offset: 0x2A325, size: 0x8, addend: 0x0, symName: __ZNSt3__1neB7v160006ERKNS_15__tree_iteratorINS_12__value_typeINS_12basic_stringIcNS_11char_traitsIcEENS_9allocatorIcEEEEiEEPNS_11__tree_nodeIS8_PvEElEESF_, symObjAddr: 0x1A2A4, symBinAddr: 0x10001D584, symSize: 0x34 }
  - { offsetInCU: 0x2A362, offset: 0x2A362, size: 0x8, addend: 0x0, symName: __ZNSt3__1eqB7v160006ERKNS_15__tree_iteratorINS_12__value_typeINS_12basic_stringIcNS_11char_traitsIcEENS_9allocatorIcEEEEiEEPNS_11__tree_nodeIS8_PvEElEESF_, symObjAddr: 0x1A2D8, symBinAddr: 0x10001D5B8, symSize: 0x30 }
  - { offsetInCU: 0x2A474, offset: 0x2A474, size: 0x8, addend: 0x0, symName: __ZNSt3__13getB7v160006ILm0ENS_12basic_stringIcNS_11char_traitsIcEENS_9allocatorIcEEEEiEERNS_13tuple_elementIXT_ENS_4pairIT0_T1_EEE4typeERSB_, symObjAddr: 0x1C5F8, symBinAddr: 0x10001F8D8, symSize: 0x24 }
  - { offsetInCU: 0x2A4BD, offset: 0x2A4BD, size: 0x8, addend: 0x0, symName: __ZNSt3__13getB7v160006ILm1ENS_12basic_stringIcNS_11char_traitsIcEENS_9allocatorIcEEEEiEERNS_13tuple_elementIXT_ENS_4pairIT0_T1_EEE4typeERSB_, symObjAddr: 0x1C61C, symBinAddr: 0x10001F8FC, symSize: 0x24 }
  - { offsetInCU: 0x2A506, offset: 0x2A506, size: 0x8, addend: 0x0, symName: __ZNSt3__13getB7v160006ILm0EiiEERNS_13tuple_elementIXT_ENS_4pairIT0_T1_EEE4typeERS5_, symObjAddr: 0x1CAE0, symBinAddr: 0x10001FDC0, symSize: 0x24 }
  - { offsetInCU: 0x2A54F, offset: 0x2A54F, size: 0x8, addend: 0x0, symName: __ZNSt3__13getB7v160006ILm1EiiEERNS_13tuple_elementIXT_ENS_4pairIT0_T1_EEE4typeERS5_, symObjAddr: 0x1CB04, symBinAddr: 0x10001FDE4, symSize: 0x24 }
  - { offsetInCU: 0x2A598, offset: 0x2A598, size: 0x8, addend: 0x0, symName: __ZNSt3__13getB7v160006ILm0EiNS_12basic_stringIcNS_11char_traitsIcEENS_9allocatorIcEEEEEERNS_13tuple_elementIXT_ENS_4pairIT0_T1_EEE4typeERSB_, symObjAddr: 0x1CFD4, symBinAddr: 0x1000202B4, symSize: 0x24 }
  - { offsetInCU: 0x2A5E1, offset: 0x2A5E1, size: 0x8, addend: 0x0, symName: __ZNSt3__13getB7v160006ILm1EiNS_12basic_stringIcNS_11char_traitsIcEENS_9allocatorIcEEEEEERNS_13tuple_elementIXT_ENS_4pairIT0_T1_EEE4typeERSB_, symObjAddr: 0x1CFF8, symBinAddr: 0x1000202D8, symSize: 0x24 }
  - { offsetInCU: 0x2A648, offset: 0x2A648, size: 0x8, addend: 0x0, symName: __ZNSt3__1eqB7v160006ERKNS_21__tree_const_iteratorI7LR1ItemPNS_11__tree_nodeIS1_PvEElEES8_, symObjAddr: 0x1E0B0, symBinAddr: 0x100021390, symSize: 0x30 }
  - { offsetInCU: 0x2A685, offset: 0x2A685, size: 0x8, addend: 0x0, symName: __ZNSt3__122__make_exception_guardB7v160006INS_6vectorIiNS_9allocatorIiEEE16__destroy_vectorEEENS_28__exception_guard_exceptionsIT_EES7_, symObjAddr: 0x1EB80, symBinAddr: 0x100021E60, symSize: 0x40 }
  - { offsetInCU: 0x2A6BA, offset: 0x2A6BA, size: 0x8, addend: 0x0, symName: __ZNSt3__1neB7v160006ERKNS_15__tree_iteratorINS_12__value_typeIiiEEPNS_11__tree_nodeIS2_PvEElEES9_, symObjAddr: 0x1EE4C, symBinAddr: 0x10002212C, symSize: 0x34 }
  - { offsetInCU: 0x2A6F7, offset: 0x2A6F7, size: 0x8, addend: 0x0, symName: __ZNSt3__1eqB7v160006ERKNS_15__tree_iteratorINS_12__value_typeIiiEEPNS_11__tree_nodeIS2_PvEElEES9_, symObjAddr: 0x1EF30, symBinAddr: 0x100022210, symSize: 0x30 }
  - { offsetInCU: 0x2A734, offset: 0x2A734, size: 0x8, addend: 0x0, symName: __ZNSt3__1neB7v160006ERKNS_15__tree_iteratorIiPNS_11__tree_nodeIiPvEElEES7_, symObjAddr: 0x1F0FC, symBinAddr: 0x1000223DC, symSize: 0x34 }
  - { offsetInCU: 0x2A771, offset: 0x2A771, size: 0x8, addend: 0x0, symName: __ZNSt3__1eqB7v160006ERKNS_15__tree_iteratorIiPNS_11__tree_nodeIiPvEElEES7_, symObjAddr: 0x1F158, symBinAddr: 0x100022438, symSize: 0x30 }
  - { offsetInCU: 0x2A7AE, offset: 0x2A7AE, size: 0x8, addend: 0x0, symName: __ZNSt3__111__tree_leafB7v160006IPNS_16__tree_node_baseIPvEEEET_S5_, symObjAddr: 0x1F8FC, symBinAddr: 0x100022BDC, symSize: 0x70 }
  - { offsetInCU: 0x2AC3C, offset: 0x2AC3C, size: 0x8, addend: 0x0, symName: __ZNSt3__14swapB7v160006IPP7LR1ItemEENS_9enable_ifIXaasr21is_move_constructibleIT_EE5valuesr18is_move_assignableIS5_EE5valueEvE4typeERS5_S8_, symObjAddr: 0x20FD0, symBinAddr: 0x1000242B0, symSize: 0x3C }
  - { offsetInCU: 0x2AC8D, offset: 0x2AC8D, size: 0x8, addend: 0x0, symName: __ZNSt3__14moveB7v160006IPP7LR1ItemS3_EET0_T_S5_S4_, symObjAddr: 0x210B4, symBinAddr: 0x100024394, symSize: 0x40 }
  - { offsetInCU: 0x2AD03, offset: 0x2AD03, size: 0x8, addend: 0x0, symName: __ZNSt3__16__moveB7v160006INS_17_ClassicAlgPolicyEPP7LR1ItemS4_S4_EENS_4pairIT0_T2_EES6_T1_S7_, symObjAddr: 0x21258, symBinAddr: 0x100024538, symSize: 0x44 }
  - { offsetInCU: 0x2AD6F, offset: 0x2AD6F, size: 0x8, addend: 0x0, symName: __ZNSt3__123__dispatch_copy_or_moveB7v160006INS_17_ClassicAlgPolicyENS_11__move_loopIS1_EENS_14__move_trivialEPP7LR1ItemS7_S7_EENS_4pairIT2_T4_EES9_T3_SA_, symObjAddr: 0x2129C, symBinAddr: 0x10002457C, symSize: 0x44 }
  - { offsetInCU: 0x2ADED, offset: 0x2ADED, size: 0x8, addend: 0x0, symName: __ZNSt3__121__unwrap_and_dispatchB7v160006INS_10__overloadINS_11__move_loopINS_17_ClassicAlgPolicyEEENS_14__move_trivialEEEPP7LR1ItemS9_S9_Li0EEENS_4pairIT0_T2_EESB_T1_SC_, symObjAddr: 0x212E0, symBinAddr: 0x1000245C0, symSize: 0xB4 }
  - { offsetInCU: 0x2AE7B, offset: 0x2AE7B, size: 0x8, addend: 0x0, symName: __ZNSt3__114__unwrap_rangeB7v160006IPP7LR1ItemS3_EENS_4pairIT0_S5_EET_S7_, symObjAddr: 0x21394, symBinAddr: 0x100024674, symSize: 0x60 }
  - { offsetInCU: 0x2B07B, offset: 0x2B07B, size: 0x8, addend: 0x0, symName: __ZNSt3__113__unwrap_iterB7v160006IPP7LR1ItemNS_18__unwrap_iter_implIS3_Lb1EEELi0EEEDTclsrT0_8__unwrapclsr3stdE7declvalIT_EEEES7_, symObjAddr: 0x2143C, symBinAddr: 0x10002471C, symSize: 0x24 }
  - { offsetInCU: 0x2B0BF, offset: 0x2B0BF, size: 0x8, addend: 0x0, symName: __ZNSt3__19make_pairB7v160006IPP7LR1ItemS3_EENS_4pairINS_18__unwrap_ref_decayIT_E4typeENS5_IT0_E4typeEEEOS6_OS9_, symObjAddr: 0x21460, symBinAddr: 0x100024740, symSize: 0x38 }
  - { offsetInCU: 0x2B10E, offset: 0x2B10E, size: 0x8, addend: 0x0, symName: __ZNSt3__114__rewrap_rangeB7v160006IPP7LR1ItemS3_EET_S4_T0_, symObjAddr: 0x21498, symBinAddr: 0x100024778, symSize: 0x2C }
  - { offsetInCU: 0x2B15A, offset: 0x2B15A, size: 0x8, addend: 0x0, symName: __ZNSt3__113__rewrap_iterB7v160006IPP7LR1ItemS3_NS_18__unwrap_iter_implIS3_Lb1EEEEET_S6_T0_, symObjAddr: 0x214C4, symBinAddr: 0x1000247A4, symSize: 0x3C }
  - { offsetInCU: 0x2B1AF, offset: 0x2B1AF, size: 0x8, addend: 0x0, symName: __ZNSt3__119__copy_trivial_implB7v160006IP7LR1ItemS2_EENS_4pairIPT_PT0_EES5_S5_S7_, symObjAddr: 0x21500, symBinAddr: 0x1000247E0, symSize: 0x84 }
  - { offsetInCU: 0x2B217, offset: 0x2B217, size: 0x8, addend: 0x0, symName: __ZNSt3__19make_pairB7v160006IRPP7LR1ItemS3_EENS_4pairINS_18__unwrap_ref_decayIT_E4typeENS6_IT0_E4typeEEEOS7_OSA_, symObjAddr: 0x21584, symBinAddr: 0x100024864, symSize: 0x38 }
  - { offsetInCU: 0x2B2B9, offset: 0x2B2B9, size: 0x8, addend: 0x0, symName: __ZNSt3__18distanceB7v160006INS_13move_iteratorIPP7LR1ItemEEEENS_15iterator_traitsIT_E15difference_typeES7_S7_, symObjAddr: 0x21710, symBinAddr: 0x1000249F0, symSize: 0x3C }
  - { offsetInCU: 0x2B2FC, offset: 0x2B2FC, size: 0x8, addend: 0x0, symName: __ZNSt3__110__distanceB7v160006INS_13move_iteratorIPP7LR1ItemEEEENS_15iterator_traitsIT_E15difference_typeES7_S7_NS_26random_access_iterator_tagE, symObjAddr: 0x21848, symBinAddr: 0x100024B28, symSize: 0x30 }
  - { offsetInCU: 0x2B349, offset: 0x2B349, size: 0x8, addend: 0x0, symName: __ZNSt3__1miB7v160006IPP7LR1ItemS3_EEDTmicldtfp_4baseEcldtfp0_4baseEERKNS_13move_iteratorIT_EERKNS5_IT0_EE, symObjAddr: 0x21878, symBinAddr: 0x100024B58, symSize: 0x48 }
  - { offsetInCU: 0x2B398, offset: 0x2B398, size: 0x8, addend: 0x0, symName: __ZNSt3__113move_backwardB7v160006IPP7LR1ItemS3_EET0_T_S5_S4_, symObjAddr: 0x21A7C, symBinAddr: 0x100024D5C, symSize: 0x40 }
  - { offsetInCU: 0x2B3F2, offset: 0x2B3F2, size: 0x8, addend: 0x0, symName: __ZNSt3__115__move_backwardB7v160006INS_17_ClassicAlgPolicyEPP7LR1ItemS4_S4_EENS_4pairIT0_T2_EES6_T1_S7_, symObjAddr: 0x21ABC, symBinAddr: 0x100024D9C, symSize: 0x44 }
  - { offsetInCU: 0x2B45E, offset: 0x2B45E, size: 0x8, addend: 0x0, symName: __ZNSt3__123__dispatch_copy_or_moveB7v160006INS_17_ClassicAlgPolicyENS_20__move_backward_loopIS1_EENS_23__move_backward_trivialEPP7LR1ItemS7_S7_EENS_4pairIT2_T4_EES9_T3_SA_, symObjAddr: 0x21B00, symBinAddr: 0x100024DE0, symSize: 0x44 }
  - { offsetInCU: 0x2B4DC, offset: 0x2B4DC, size: 0x8, addend: 0x0, symName: __ZNSt3__121__unwrap_and_dispatchB7v160006INS_10__overloadINS_20__move_backward_loopINS_17_ClassicAlgPolicyEEENS_23__move_backward_trivialEEEPP7LR1ItemS9_S9_Li0EEENS_4pairIT0_T2_EESB_T1_SC_, symObjAddr: 0x21B44, symBinAddr: 0x100024E24, symSize: 0xB4 }
  - { offsetInCU: 0x2B5EC, offset: 0x2B5EC, size: 0x8, addend: 0x0, symName: __ZNSt3__128__copy_backward_trivial_implB7v160006IP7LR1ItemS2_EENS_4pairIPT_PT0_EES5_S5_S7_, symObjAddr: 0x21C40, symBinAddr: 0x100024F20, symSize: 0x94 }
  - { offsetInCU: 0x2B654, offset: 0x2B654, size: 0x8, addend: 0x0, symName: __ZNSt3__19make_pairB7v160006IRPP7LR1ItemS4_EENS_4pairINS_18__unwrap_ref_decayIT_E4typeENS6_IT0_E4typeEEEOS7_OSA_, symObjAddr: 0x21CD4, symBinAddr: 0x100024FB4, symSize: 0x38 }
  - { offsetInCU: 0x2B6A3, offset: 0x2B6A3, size: 0x8, addend: 0x0, symName: __ZNSt3__119__allocate_at_leastB7v160006INS_9allocatorIP7LR1ItemEEEENS_19__allocation_resultINS_16allocator_traitsIT_E7pointerEEERS7_m, symObjAddr: 0x21E8C, symBinAddr: 0x10002516C, symSize: 0x40 }
  - { offsetInCU: 0x2B6E6, offset: 0x2B6E6, size: 0x8, addend: 0x0, symName: __ZNSt3__112__to_addressB7v160006I7LR1ItemEEPT_S3_, symObjAddr: 0x22630, symBinAddr: 0x100025910, symSize: 0x14 }
  - { offsetInCU: 0x2B71B, offset: 0x2B71B, size: 0x8, addend: 0x0, symName: __ZNSt3__116forward_as_tupleB7v160006IJiEEENS_5tupleIJDpOT_EEES4_, symObjAddr: 0x2284C, symBinAddr: 0x100025B2C, symSize: 0x2C }
  - { offsetInCU: 0x2B754, offset: 0x2B754, size: 0x8, addend: 0x0, symName: __ZNSt3__13getB7v160006ILm0EJOiEEERNS_13tuple_elementIXT_ENS_5tupleIJDpT0_EEEE4typeERS6_, symObjAddr: 0x22AEC, symBinAddr: 0x100025DCC, symSize: 0x24 }
  - { offsetInCU: 0x2B7AC, offset: 0x2B7AC, size: 0x8, addend: 0x0, symName: __ZNSt3__1neB7v160006ERKNS_15__tree_iteratorI7LR1ItemPNS_11__tree_nodeIS1_PvEElEES8_, symObjAddr: 0x230B4, symBinAddr: 0x100026394, symSize: 0x34 }
  - { offsetInCU: 0x2B7E9, offset: 0x2B7E9, size: 0x8, addend: 0x0, symName: __ZNSt3__1eqB7v160006ERKNS_15__tree_iteratorI7LR1ItemPNS_11__tree_nodeIS1_PvEElEES8_, symObjAddr: 0x23110, symBinAddr: 0x1000263F0, symSize: 0x30 }
  - { offsetInCU: 0x2B826, offset: 0x2B826, size: 0x8, addend: 0x0, symName: __ZNSt3__113__tree_removeB7v160006IPNS_16__tree_node_baseIPvEEEEvT_S5_, symObjAddr: 0x232DC, symBinAddr: 0x1000265BC, symSize: 0x6E0 }
  - { offsetInCU: 0x2B8A4, offset: 0x2B8A4, size: 0x8, addend: 0x0, symName: __ZNSt3__111__tree_nextB7v160006IPNS_16__tree_node_baseIPvEEEET_S5_, symObjAddr: 0x239BC, symBinAddr: 0x100026C9C, symSize: 0x80 }
  - { offsetInCU: 0x2B8D9, offset: 0x2B8D9, size: 0x8, addend: 0x0, symName: __ZNSt3__119__debug_db_insert_cB7v160006INS_6vectorI8LR1StateNS_9allocatorIS2_EEEEEEvPT_, symObjAddr: 0x23DE0, symBinAddr: 0x1000270C0, symSize: 0x10 }
  - { offsetInCU: 0x2B90A, offset: 0x2B90A, size: 0x8, addend: 0x0, symName: __ZNSt3__118__debug_db_erase_cB7v160006INS_6vectorI8LR1StateNS_9allocatorIS2_EEEEEEvPT_, symObjAddr: 0x240C0, symBinAddr: 0x1000273A0, symSize: 0x10 }
  - { offsetInCU: 0x2B93B, offset: 0x2B93B, size: 0x8, addend: 0x0, symName: __ZNSt3__112__to_addressB7v160006I8LR1StateEEPT_S3_, symObjAddr: 0x24204, symBinAddr: 0x1000274E4, symSize: 0x14 }
  - { offsetInCU: 0x2B970, offset: 0x2B970, size: 0x8, addend: 0x0, symName: __ZNSt3__119__debug_db_insert_cB7v160006INS_13unordered_mapIiNS_8multisetI7LR1ItemNS_4lessIS3_EENS_9allocatorIS3_EEEENS_4hashIiEENS_8equal_toIiEENS6_INS_4pairIKiS8_EEEEEEEEvPT_, symObjAddr: 0x2443C, symBinAddr: 0x10002771C, symSize: 0x10 }
  - { offsetInCU: 0x2B9A1, offset: 0x2B9A1, size: 0x8, addend: 0x0, symName: __ZNSt3__118__debug_db_erase_cB7v160006INS_12__hash_tableINS_17__hash_value_typeIiNS_8multisetI7LR1ItemNS_4lessIS4_EENS_9allocatorIS4_EEEEEENS_22__unordered_map_hasherIiSA_NS_4hashIiEENS_8equal_toIiEELb1EEENS_21__unordered_map_equalIiSA_SF_SD_Lb1EEENS7_ISA_EEEEEEvPT_, symObjAddr: 0x24B98, symBinAddr: 0x100027E78, symSize: 0x10 }
  - { offsetInCU: 0x2BE5E, offset: 0x2BE5E, size: 0x8, addend: 0x0, symName: __ZNSt3__14swapB7v160006IPPNS_8multisetI7LR1ItemNS_4lessIS2_EENS_9allocatorIS2_EEEEEENS_9enable_ifIXaasr21is_move_constructibleIT_EE5valuesr18is_move_assignableISB_EE5valueEvE4typeERSB_SE_, symObjAddr: 0x264FC, symBinAddr: 0x1000297DC, symSize: 0x3C }
  - { offsetInCU: 0x2BEAF, offset: 0x2BEAF, size: 0x8, addend: 0x0, symName: __ZNSt3__14moveB7v160006IPPNS_8multisetI7LR1ItemNS_4lessIS2_EENS_9allocatorIS2_EEEES9_EET0_T_SB_SA_, symObjAddr: 0x265E0, symBinAddr: 0x1000298C0, symSize: 0x40 }
  - { offsetInCU: 0x2BF09, offset: 0x2BF09, size: 0x8, addend: 0x0, symName: __ZNSt3__16__moveB7v160006INS_17_ClassicAlgPolicyEPPNS_8multisetI7LR1ItemNS_4lessIS3_EENS_9allocatorIS3_EEEESA_SA_EENS_4pairIT0_T2_EESC_T1_SD_, symObjAddr: 0x26784, symBinAddr: 0x100029A64, symSize: 0x44 }
  - { offsetInCU: 0x2BF75, offset: 0x2BF75, size: 0x8, addend: 0x0, symName: __ZNSt3__123__dispatch_copy_or_moveB7v160006INS_17_ClassicAlgPolicyENS_11__move_loopIS1_EENS_14__move_trivialEPPNS_8multisetI7LR1ItemNS_4lessIS6_EENS_9allocatorIS6_EEEESD_SD_EENS_4pairIT2_T4_EESF_T3_SG_, symObjAddr: 0x267C8, symBinAddr: 0x100029AA8, symSize: 0x44 }
  - { offsetInCU: 0x2BFF3, offset: 0x2BFF3, size: 0x8, addend: 0x0, symName: __ZNSt3__121__unwrap_and_dispatchB7v160006INS_10__overloadINS_11__move_loopINS_17_ClassicAlgPolicyEEENS_14__move_trivialEEEPPNS_8multisetI7LR1ItemNS_4lessIS8_EENS_9allocatorIS8_EEEESF_SF_Li0EEENS_4pairIT0_T2_EESH_T1_SI_, symObjAddr: 0x2680C, symBinAddr: 0x100029AEC, symSize: 0xB4 }
  - { offsetInCU: 0x2C081, offset: 0x2C081, size: 0x8, addend: 0x0, symName: __ZNSt3__114__unwrap_rangeB7v160006IPPNS_8multisetI7LR1ItemNS_4lessIS2_EENS_9allocatorIS2_EEEES9_EENS_4pairIT0_SB_EET_SD_, symObjAddr: 0x268C0, symBinAddr: 0x100029BA0, symSize: 0x60 }
  - { offsetInCU: 0x2C1FF, offset: 0x2C1FF, size: 0x8, addend: 0x0, symName: __ZNSt3__113__unwrap_iterB7v160006IPPNS_8multisetI7LR1ItemNS_4lessIS2_EENS_9allocatorIS2_EEEENS_18__unwrap_iter_implIS9_Lb1EEELi0EEEDTclsrT0_8__unwrapclsr3stdE7declvalIT_EEEESD_, symObjAddr: 0x26968, symBinAddr: 0x100029C48, symSize: 0x24 }
  - { offsetInCU: 0x2C243, offset: 0x2C243, size: 0x8, addend: 0x0, symName: __ZNSt3__19make_pairB7v160006IPPNS_8multisetI7LR1ItemNS_4lessIS2_EENS_9allocatorIS2_EEEES9_EENS_4pairINS_18__unwrap_ref_decayIT_E4typeENSB_IT0_E4typeEEEOSC_OSF_, symObjAddr: 0x2698C, symBinAddr: 0x100029C6C, symSize: 0x38 }
  - { offsetInCU: 0x2C292, offset: 0x2C292, size: 0x8, addend: 0x0, symName: __ZNSt3__114__rewrap_rangeB7v160006IPPNS_8multisetI7LR1ItemNS_4lessIS2_EENS_9allocatorIS2_EEEES9_EET_SA_T0_, symObjAddr: 0x269C4, symBinAddr: 0x100029CA4, symSize: 0x2C }
  - { offsetInCU: 0x2C2DE, offset: 0x2C2DE, size: 0x8, addend: 0x0, symName: __ZNSt3__113__rewrap_iterB7v160006IPPNS_8multisetI7LR1ItemNS_4lessIS2_EENS_9allocatorIS2_EEEES9_NS_18__unwrap_iter_implIS9_Lb1EEEEET_SC_T0_, symObjAddr: 0x269F0, symBinAddr: 0x100029CD0, symSize: 0x3C }
  - { offsetInCU: 0x2C333, offset: 0x2C333, size: 0x8, addend: 0x0, symName: __ZNSt3__119__copy_trivial_implB7v160006IPNS_8multisetI7LR1ItemNS_4lessIS2_EENS_9allocatorIS2_EEEES8_EENS_4pairIPT_PT0_EESB_SB_SD_, symObjAddr: 0x26A2C, symBinAddr: 0x100029D0C, symSize: 0x84 }
  - { offsetInCU: 0x2C39B, offset: 0x2C39B, size: 0x8, addend: 0x0, symName: __ZNSt3__19make_pairB7v160006IRPPNS_8multisetI7LR1ItemNS_4lessIS2_EENS_9allocatorIS2_EEEES9_EENS_4pairINS_18__unwrap_ref_decayIT_E4typeENSC_IT0_E4typeEEEOSD_OSG_, symObjAddr: 0x26AB0, symBinAddr: 0x100029D90, symSize: 0x38 }
  - { offsetInCU: 0x2C43D, offset: 0x2C43D, size: 0x8, addend: 0x0, symName: __ZNSt3__18distanceB7v160006INS_13move_iteratorIPPNS_8multisetI7LR1ItemNS_4lessIS3_EENS_9allocatorIS3_EEEEEEEENS_15iterator_traitsIT_E15difference_typeESD_SD_, symObjAddr: 0x26C3C, symBinAddr: 0x100029F1C, symSize: 0x3C }
  - { offsetInCU: 0x2C480, offset: 0x2C480, size: 0x8, addend: 0x0, symName: __ZNSt3__110__distanceB7v160006INS_13move_iteratorIPPNS_8multisetI7LR1ItemNS_4lessIS3_EENS_9allocatorIS3_EEEEEEEENS_15iterator_traitsIT_E15difference_typeESD_SD_NS_26random_access_iterator_tagE, symObjAddr: 0x26D74, symBinAddr: 0x10002A054, symSize: 0x30 }
  - { offsetInCU: 0x2C4CD, offset: 0x2C4CD, size: 0x8, addend: 0x0, symName: __ZNSt3__1miB7v160006IPPNS_8multisetI7LR1ItemNS_4lessIS2_EENS_9allocatorIS2_EEEES9_EEDTmicldtfp_4baseEcldtfp0_4baseEERKNS_13move_iteratorIT_EERKNSB_IT0_EE, symObjAddr: 0x26DA4, symBinAddr: 0x10002A084, symSize: 0x48 }
  - { offsetInCU: 0x2C51C, offset: 0x2C51C, size: 0x8, addend: 0x0, symName: __ZNSt3__113move_backwardB7v160006IPPNS_8multisetI7LR1ItemNS_4lessIS2_EENS_9allocatorIS2_EEEES9_EET0_T_SB_SA_, symObjAddr: 0x26FB0, symBinAddr: 0x10002A290, symSize: 0x40 }
  - { offsetInCU: 0x2C576, offset: 0x2C576, size: 0x8, addend: 0x0, symName: __ZNSt3__115__move_backwardB7v160006INS_17_ClassicAlgPolicyEPPNS_8multisetI7LR1ItemNS_4lessIS3_EENS_9allocatorIS3_EEEESA_SA_EENS_4pairIT0_T2_EESC_T1_SD_, symObjAddr: 0x26FF0, symBinAddr: 0x10002A2D0, symSize: 0x44 }
  - { offsetInCU: 0x2C5E2, offset: 0x2C5E2, size: 0x8, addend: 0x0, symName: __ZNSt3__123__dispatch_copy_or_moveB7v160006INS_17_ClassicAlgPolicyENS_20__move_backward_loopIS1_EENS_23__move_backward_trivialEPPNS_8multisetI7LR1ItemNS_4lessIS6_EENS_9allocatorIS6_EEEESD_SD_EENS_4pairIT2_T4_EESF_T3_SG_, symObjAddr: 0x27034, symBinAddr: 0x10002A314, symSize: 0x44 }
  - { offsetInCU: 0x2C660, offset: 0x2C660, size: 0x8, addend: 0x0, symName: __ZNSt3__121__unwrap_and_dispatchB7v160006INS_10__overloadINS_20__move_backward_loopINS_17_ClassicAlgPolicyEEENS_23__move_backward_trivialEEEPPNS_8multisetI7LR1ItemNS_4lessIS8_EENS_9allocatorIS8_EEEESF_SF_Li0EEENS_4pairIT0_T2_EESH_T1_SI_, symObjAddr: 0x27078, symBinAddr: 0x10002A358, symSize: 0xB4 }
  - { offsetInCU: 0x2C6EE, offset: 0x2C6EE, size: 0x8, addend: 0x0, symName: __ZNSt3__128__copy_backward_trivial_implB7v160006IPNS_8multisetI7LR1ItemNS_4lessIS2_EENS_9allocatorIS2_EEEES8_EENS_4pairIPT_PT0_EESB_SB_SD_, symObjAddr: 0x27174, symBinAddr: 0x10002A454, symSize: 0x94 }
  - { offsetInCU: 0x2C756, offset: 0x2C756, size: 0x8, addend: 0x0, symName: __ZNSt3__19make_pairB7v160006IRPPNS_8multisetI7LR1ItemNS_4lessIS2_EENS_9allocatorIS2_EEEESA_EENS_4pairINS_18__unwrap_ref_decayIT_E4typeENSC_IT0_E4typeEEEOSD_OSG_, symObjAddr: 0x27208, symBinAddr: 0x10002A4E8, symSize: 0x38 }
  - { offsetInCU: 0x2C7A5, offset: 0x2C7A5, size: 0x8, addend: 0x0, symName: __ZNSt3__119__allocate_at_leastB7v160006INS_9allocatorIPNS_8multisetI7LR1ItemNS_4lessIS3_EENS1_IS3_EEEEEEEENS_19__allocation_resultINS_16allocator_traitsIT_E7pointerEEERSC_m, symObjAddr: 0x273C0, symBinAddr: 0x10002A6A0, symSize: 0x40 }
  - { offsetInCU: 0x2C806, offset: 0x2C806, size: 0x8, addend: 0x0, symName: __ZNSt3__116__is_hash_power2B7v160006Em, symObjAddr: 0x291AC, symBinAddr: 0x10002C48C, symSize: 0x50 }
  - { offsetInCU: 0x2C832, offset: 0x2C832, size: 0x8, addend: 0x0, symName: __ZNSt3__116__next_hash_pow2B7v160006Em, symObjAddr: 0x291FC, symBinAddr: 0x10002C4DC, symSize: 0x6C }
  - { offsetInCU: 0x2C85E, offset: 0x2C85E, size: 0x8, addend: 0x0, symName: __ZNSt3__125__debug_db_invalidate_allB7v160006INS_12__hash_tableINS_17__hash_value_typeIiNS_8multisetI7LR1ItemNS_4lessIS4_EENS_9allocatorIS4_EEEEEENS_22__unordered_map_hasherIiSA_NS_4hashIiEENS_8equal_toIiEELb1EEENS_21__unordered_map_equalIiSA_SF_SD_Lb1EEENS7_ISA_EEEEEEvPT_, symObjAddr: 0x2931C, symBinAddr: 0x10002C5FC, symSize: 0x10 }
  - { offsetInCU: 0x2C88F, offset: 0x2C88F, size: 0x8, addend: 0x0, symName: __ZNSt3__116__constrain_hashB7v160006Emm, symObjAddr: 0x2944C, symBinAddr: 0x10002C72C, symSize: 0x98 }
  - { offsetInCU: 0x2C8C9, offset: 0x2C8C9, size: 0x8, addend: 0x0, symName: __ZNSt3__112__libcpp_clzB7v160006Em, symObjAddr: 0x295C4, symBinAddr: 0x10002C8A4, symSize: 0x1C }
  - { offsetInCU: 0x2C8F5, offset: 0x2C8F5, size: 0x8, addend: 0x0, symName: __ZNSt3__1neB7v160006ERKNS_25__hash_map_const_iteratorINS_21__hash_const_iteratorIPNS_11__hash_nodeINS_17__hash_value_typeIiNS_8multisetI7LR1ItemNS_4lessIS5_EENS_9allocatorIS5_EEEEEEPvEEEEEESI_, symObjAddr: 0x2963C, symBinAddr: 0x10002C91C, symSize: 0x30 }
  - { offsetInCU: 0x2C932, offset: 0x2C932, size: 0x8, addend: 0x0, symName: __ZNSt3__1neB7v160006ERKNS_21__hash_const_iteratorIPNS_11__hash_nodeINS_17__hash_value_typeIiNS_8multisetI7LR1ItemNS_4lessIS4_EENS_9allocatorIS4_EEEEEEPvEEEESG_, symObjAddr: 0x29710, symBinAddr: 0x10002C9F0, symSize: 0x34 }
  - { offsetInCU: 0x2C96F, offset: 0x2C96F, size: 0x8, addend: 0x0, symName: __ZNSt3__1eqB7v160006ERKNS_21__hash_const_iteratorIPNS_11__hash_nodeINS_17__hash_value_typeIiNS_8multisetI7LR1ItemNS_4lessIS4_EENS_9allocatorIS4_EEEEEEPvEEEESG_, symObjAddr: 0x29744, symBinAddr: 0x10002CA24, symSize: 0x30 }
  - { offsetInCU: 0x2C9FD, offset: 0x2C9FD, size: 0x8, addend: 0x0, symName: __ZNSt3__119__allocate_at_leastB7v160006INS_9allocatorI8LR1StateEEEENS_19__allocation_resultINS_16allocator_traitsIT_E7pointerEEERS6_m, symObjAddr: 0x2AC54, symBinAddr: 0x10002DF34, symSize: 0x40 }
  - { offsetInCU: 0x2CA40, offset: 0x2CA40, size: 0x8, addend: 0x0, symName: __ZNSt3__142__uninitialized_allocator_move_if_noexceptB7v160006INS_9allocatorI8LR1StateEENS_16reverse_iteratorIPS2_EES6_S6_EET2_RT_T0_T1_S7_, symObjAddr: 0x2AE0C, symBinAddr: 0x10002E0EC, symSize: 0x12C }
  - { offsetInCU: 0x2CAE0, offset: 0x2CAE0, size: 0x8, addend: 0x0, symName: __ZNSt3__14swapB7v160006IP8LR1StateEENS_9enable_ifIXaasr21is_move_constructibleIT_EE5valuesr18is_move_assignableIS4_EE5valueEvE4typeERS4_S7_, symObjAddr: 0x2AF84, symBinAddr: 0x10002E264, symSize: 0x3C }
  - { offsetInCU: 0x2CB31, offset: 0x2CB31, size: 0x8, addend: 0x0, symName: __ZNSt3__125__debug_db_invalidate_allB7v160006INS_6vectorI8LR1StateNS_9allocatorIS2_EEEEEEvPT_, symObjAddr: 0x2B088, symBinAddr: 0x10002E368, symSize: 0x10 }
  - { offsetInCU: 0x2CB62, offset: 0x2CB62, size: 0x8, addend: 0x0, symName: __ZNSt3__122__make_exception_guardB7v160006INS_29_AllocatorDestroyRangeReverseINS_9allocatorI8LR1StateEENS_16reverse_iteratorIPS3_EEEEEENS_28__exception_guard_exceptionsIT_EESA_, symObjAddr: 0x2B098, symBinAddr: 0x10002E378, symSize: 0x4C }
  - { offsetInCU: 0x2CB98, offset: 0x2CB98, size: 0x8, addend: 0x0, symName: __ZNSt3__1neB7v160006IP8LR1StateS2_EEbRKNS_16reverse_iteratorIT_EERKNS3_IT0_EE, symObjAddr: 0x2B128, symBinAddr: 0x10002E408, symSize: 0x48 }
  - { offsetInCU: 0x2CBE4, offset: 0x2CBE4, size: 0x8, addend: 0x0, symName: __ZNSt3__112__to_addressB7v160006INS_16reverse_iteratorIP8LR1StateEEvEENS_5decayIDTclsr19__to_address_helperIT_EE6__callclsr3stdE7declvalIRKS6_EEEEE4typeES8_, symObjAddr: 0x2B1A4, symBinAddr: 0x10002E484, symSize: 0x24 }
  - { offsetInCU: 0x2CC1A, offset: 0x2CC1A, size: 0x8, addend: 0x0, symName: __ZNSt3__115__debug_db_swapB7v160006INS_13unordered_mapIiNS_8multisetI7LR1ItemNS_4lessIS3_EENS_9allocatorIS3_EEEENS_4hashIiEENS_8equal_toIiEENS6_INS_4pairIKiS8_EEEEEEEEvPT_SJ_, symObjAddr: 0x2B604, symBinAddr: 0x10002E8E4, symSize: 0x14 }
  - { offsetInCU: 0x2CC82, offset: 0x2CC82, size: 0x8, addend: 0x0, symName: __ZNSt3__119__allocator_destroyB7v160006INS_9allocatorI8LR1StateEENS_16reverse_iteratorINS4_IPS2_EEEES7_EEvRT_T0_T1_, symObjAddr: 0x2B9F0, symBinAddr: 0x10002ECD0, symSize: 0x70 }
  - { offsetInCU: 0x2CCE7, offset: 0x2CCE7, size: 0x8, addend: 0x0, symName: __ZNSt3__1neB7v160006INS_16reverse_iteratorIP8LR1StateEES4_EEbRKNS1_IT_EERKNS1_IT0_EE, symObjAddr: 0x2BA9C, symBinAddr: 0x10002ED7C, symSize: 0x60 }
  - { offsetInCU: 0x2CD33, offset: 0x2CD33, size: 0x8, addend: 0x0, symName: __ZNSt3__112__to_addressB7v160006INS_16reverse_iteratorINS1_IP8LR1StateEEEEvEENS_5decayIDTclsr19__to_address_helperIT_EE6__callclsr3stdE7declvalIRKS7_EEEEE4typeES9_, symObjAddr: 0x2BAFC, symBinAddr: 0x10002EDDC, symSize: 0x24 }
  - { offsetInCU: 0x2CD92, offset: 0x2CD92, size: 0x8, addend: 0x0, symName: __ZNSt3__112__to_addressB7v160006INS_8multisetI7LR1ItemNS_4lessIS2_EENS_9allocatorIS2_EEEEEEPT_S9_, symObjAddr: 0x2BFA0, symBinAddr: 0x10002F280, symSize: 0x14 }
  - { offsetInCU: 0x2CDC7, offset: 0x2CDC7, size: 0x8, addend: 0x0, symName: __ZNSt3__119__allocate_at_leastB7v160006INS_9allocatorINS_6vectorIiNS1_IiEEEEEEEENS_19__allocation_resultINS_16allocator_traitsIT_E7pointerEEERS8_m, symObjAddr: 0x2CAE4, symBinAddr: 0x10002FDC4, symSize: 0x40 }
  - { offsetInCU: 0x2CE0A, offset: 0x2CE0A, size: 0x8, addend: 0x0, symName: __ZNSt3__142__uninitialized_allocator_move_if_noexceptB7v160006INS_9allocatorINS_6vectorIiNS1_IiEEEEEENS_16reverse_iteratorIPS4_EES8_S8_EET2_RT_T0_T1_S9_, symObjAddr: 0x2CC9C, symBinAddr: 0x10002FF7C, symSize: 0x12C }
  - { offsetInCU: 0x2CEAA, offset: 0x2CEAA, size: 0x8, addend: 0x0, symName: __ZNSt3__14swapB7v160006IPNS_6vectorIiNS_9allocatorIiEEEEEENS_9enable_ifIXaasr21is_move_constructibleIT_EE5valuesr18is_move_assignableIS7_EE5valueEvE4typeERS7_SA_, symObjAddr: 0x2CE14, symBinAddr: 0x1000300F4, symSize: 0x3C }
  - { offsetInCU: 0x2CEFB, offset: 0x2CEFB, size: 0x8, addend: 0x0, symName: __ZNSt3__125__debug_db_invalidate_allB7v160006INS_6vectorINS1_IiNS_9allocatorIiEEEENS2_IS4_EEEEEEvPT_, symObjAddr: 0x2CF18, symBinAddr: 0x1000301F8, symSize: 0x10 }
  - { offsetInCU: 0x2CF2C, offset: 0x2CF2C, size: 0x8, addend: 0x0, symName: __ZNSt3__122__make_exception_guardB7v160006INS_29_AllocatorDestroyRangeReverseINS_9allocatorINS_6vectorIiNS2_IiEEEEEENS_16reverse_iteratorIPS5_EEEEEENS_28__exception_guard_exceptionsIT_EESC_, symObjAddr: 0x2CF28, symBinAddr: 0x100030208, symSize: 0x4C }
  - { offsetInCU: 0x2CF62, offset: 0x2CF62, size: 0x8, addend: 0x0, symName: __ZNSt3__1neB7v160006IPNS_6vectorIiNS_9allocatorIiEEEES5_EEbRKNS_16reverse_iteratorIT_EERKNS6_IT0_EE, symObjAddr: 0x2CFB8, symBinAddr: 0x100030298, symSize: 0x48 }
  - { offsetInCU: 0x2CFAE, offset: 0x2CFAE, size: 0x8, addend: 0x0, symName: __ZNSt3__112__to_addressB7v160006INS_16reverse_iteratorIPNS_6vectorIiNS_9allocatorIiEEEEEEvEENS_5decayIDTclsr19__to_address_helperIT_EE6__callclsr3stdE7declvalIRKS9_EEEEE4typeESB_, symObjAddr: 0x2D034, symBinAddr: 0x100030314, symSize: 0x24 }
  - { offsetInCU: 0x2D00D, offset: 0x2D00D, size: 0x8, addend: 0x0, symName: __ZNSt3__119__allocator_destroyB7v160006INS_9allocatorINS_6vectorIiNS1_IiEEEEEENS_16reverse_iteratorINS6_IPS4_EEEES9_EEvRT_T0_T1_, symObjAddr: 0x2D314, symBinAddr: 0x1000305F4, symSize: 0x70 }
  - { offsetInCU: 0x2D072, offset: 0x2D072, size: 0x8, addend: 0x0, symName: __ZNSt3__1neB7v160006INS_16reverse_iteratorIPNS_6vectorIiNS_9allocatorIiEEEEEES7_EEbRKNS1_IT_EERKNS1_IT0_EE, symObjAddr: 0x2D3C0, symBinAddr: 0x1000306A0, symSize: 0x60 }
  - { offsetInCU: 0x2D0BE, offset: 0x2D0BE, size: 0x8, addend: 0x0, symName: __ZNSt3__112__to_addressB7v160006INS_16reverse_iteratorINS1_IPNS_6vectorIiNS_9allocatorIiEEEEEEEEvEENS_5decayIDTclsr19__to_address_helperIT_EE6__callclsr3stdE7declvalIRKSA_EEEEE4typeESC_, symObjAddr: 0x2D420, symBinAddr: 0x100030700, symSize: 0x24 }
  - { offsetInCU: 0x2D174, offset: 0x2D174, size: 0x8, addend: 0x0, symName: __ZNSt3__13getB7v160006ILm0EKiNS_8multisetI7LR1ItemNS_4lessIS3_EENS_9allocatorIS3_EEEEEERKNS_13tuple_elementIXT_ENS_4pairIT0_T1_EEE4typeERKSD_, symObjAddr: 0x2E62C, symBinAddr: 0x10003190C, symSize: 0x24 }
  - { offsetInCU: 0x2D1BD, offset: 0x2D1BD, size: 0x8, addend: 0x0, symName: __ZNSt3__13getB7v160006ILm1EKiNS_8multisetI7LR1ItemNS_4lessIS3_EENS_9allocatorIS3_EEEEEERKNS_13tuple_elementIXT_ENS_4pairIT0_T1_EEE4typeERKSD_, symObjAddr: 0x2E650, symBinAddr: 0x100031930, symSize: 0x24 }
  - { offsetInCU: 0x2D206, offset: 0x2D206, size: 0x8, addend: 0x0, symName: __ZNSt3__1neB7v160006ERKNS_15__hash_iteratorIPNS_11__hash_nodeINS_17__hash_value_typeIiNS_8multisetI7LR1ItemNS_4lessIS4_EENS_9allocatorIS4_EEEEEEPvEEEESG_, symObjAddr: 0x2F334, symBinAddr: 0x100032614, symSize: 0x34 }
  - { offsetInCU: 0x2D243, offset: 0x2D243, size: 0x8, addend: 0x0, symName: __ZNSt3__1eqB7v160006ERKNS_15__hash_iteratorIPNS_11__hash_nodeINS_17__hash_value_typeIiNS_8multisetI7LR1ItemNS_4lessIS4_EENS_9allocatorIS4_EEEEEEPvEEEESG_, symObjAddr: 0x2F368, symBinAddr: 0x100032648, symSize: 0x30 }
  - { offsetInCU: 0x2DBFC, offset: 0x2DBFC, size: 0x8, addend: 0x0, symName: __ZSt28__throw_bad_array_new_lengthB7v160006v, symObjAddr: 0xABFC, symBinAddr: 0x10000DEDC, symSize: 0x34 }
  - { offsetInCU: 0x2DFEF, offset: 0x2DFEF, size: 0x8, addend: 0x0, symName: _rightTable, symObjAddr: 0x178778, symBinAddr: 0x10003C018, symSize: 0x0 }
  - { offsetInCU: 0x2E004, offset: 0x2E004, size: 0x8, addend: 0x0, symName: _nonterminalTable, symObjAddr: 0x178790, symBinAddr: 0x10003C030, symSize: 0x0 }
  - { offsetInCU: 0x2E537, offset: 0x2E537, size: 0x8, addend: 0x0, symName: _terminatorTable, symObjAddr: 0x1787A8, symBinAddr: 0x10003C048, symSize: 0x0 }
  - { offsetInCU: 0x2E54C, offset: 0x2E54C, size: 0x8, addend: 0x0, symName: _terminSet, symObjAddr: 0x1787C0, symBinAddr: 0x10003C060, symSize: 0x0 }
  - { offsetInCU: 0x2E8C2, offset: 0x2E8C2, size: 0x8, addend: 0x0, symName: _nonterminSet, symObjAddr: 0x1787D8, symBinAddr: 0x10003C078, symSize: 0x0 }
  - { offsetInCU: 0x2E8D7, offset: 0x2E8D7, size: 0x8, addend: 0x0, symName: _PriorityTable, symObjAddr: 0x1787F0, symBinAddr: 0x10003C090, symSize: 0x0 }
  - { offsetInCU: 0x2E8EC, offset: 0x2E8EC, size: 0x8, addend: 0x0, symName: _tokenTypeTable, symObjAddr: 0x178808, symBinAddr: 0x10003C0A8, symSize: 0x0 }
  - { offsetInCU: 0x2EC62, offset: 0x2EC62, size: 0x8, addend: 0x0, symName: _producerVector, symObjAddr: 0x178820, symBinAddr: 0x10003C0C0, symSize: 0x0 }
  - { offsetInCU: 0x2EF93, offset: 0x2EF93, size: 0x8, addend: 0x0, symName: _producerPriorVector, symObjAddr: 0x178838, symBinAddr: 0x10003C0D8, symSize: 0x0 }
  - { offsetInCU: 0x2EFA8, offset: 0x2EFA8, size: 0x8, addend: 0x0, symName: _producerActionVector, symObjAddr: 0x178850, symBinAddr: 0x10003C0F0, symSize: 0x0 }
  - { offsetInCU: 0x2F129, offset: 0x2F129, size: 0x8, addend: 0x0, symName: _producerMap, symObjAddr: 0x178868, symBinAddr: 0x10003C108, symSize: 0x0 }
  - { offsetInCU: 0x2F49F, offset: 0x2F49F, size: 0x8, addend: 0x0, symName: _actionTable, symObjAddr: 0x178880, symBinAddr: 0x10003C120, symSize: 0x0 }
  - { offsetInCU: 0x2F616, offset: 0x2F616, size: 0x8, addend: 0x0, symName: _ifile, symObjAddr: 0x178898, symBinAddr: 0x10003C138, symSize: 0x0 }
  - { offsetInCU: 0x2FB55, offset: 0x2FB55, size: 0x8, addend: 0x0, symName: _ofile, symObjAddr: 0x178AD8, symBinAddr: 0x10003C378, symSize: 0x0 }
  - { offsetInCU: 0x2FB78, offset: 0x2FB78, size: 0x8, addend: 0x0, symName: __Z13SymbolProcessv, symObjAddr: 0x4110, symBinAddr: 0x1000073F0, symSize: 0x738 }
  - { offsetInCU: 0x2FBA3, offset: 0x2FBA3, size: 0x8, addend: 0x0, symName: __ZZ13SymbolProcessvE8priority, symObjAddr: 0x178D10, symBinAddr: 0x10003C5B0, symSize: 0x0 }
  - { offsetInCU: 0x30457, offset: 0x30457, size: 0x8, addend: 0x0, symName: __ZNSt3__16vectorI8ProducerNS_9allocatorIS1_EEE26__swap_out_circular_bufferERNS_14__split_bufferIS1_RS3_EE, symObjAddr: 0x13FC8, symBinAddr: 0x1000172A8, symSize: 0x118 }
  - { offsetInCU: 0x304EB, offset: 0x304EB, size: 0x8, addend: 0x0, symName: __ZNSt3__16vectorIiNS_9allocatorIiEEE26__swap_out_circular_bufferERNS_14__split_bufferIiRS2_EE, symObjAddr: 0x15738, symBinAddr: 0x100018A18, symSize: 0x118 }
  - { offsetInCU: 0x30542, offset: 0x30542, size: 0x8, addend: 0x0, symName: __ZNSt3__16vectorINS_12basic_stringIcNS_11char_traitsIcEENS_9allocatorIcEEEENS4_IS6_EEE26__swap_out_circular_bufferERNS_14__split_bufferIS6_RS7_EE, symObjAddr: 0x16B2C, symBinAddr: 0x100019E0C, symSize: 0x118 }
  - { offsetInCU: 0x30F44, offset: 0x30F44, size: 0x8, addend: 0x0, symName: __ZNSt3__16vectorI8LR1StateNS_9allocatorIS1_EEE26__swap_out_circular_bufferERNS_14__split_bufferIS1_RS3_EE, symObjAddr: 0x2A8D4, symBinAddr: 0x10002DBB4, symSize: 0x118 }
  - { offsetInCU: 0x30FD8, offset: 0x30FD8, size: 0x8, addend: 0x0, symName: __ZNSt3__16vectorINS0_IiNS_9allocatorIiEEEENS1_IS3_EEE26__swap_out_circular_bufferERNS_14__split_bufferIS3_RS4_EE, symObjAddr: 0x2C76C, symBinAddr: 0x10002FA4C, symSize: 0x118 }
  - { offsetInCU: 0x331C4, offset: 0x331C4, size: 0x8, addend: 0x0, symName: __ZNSt3__13setIiNS_4lessIiEENS_9allocatorIiEEEC1B7v160006Ev, symObjAddr: 0x0, symBinAddr: 0x1000032E0, symSize: 0x2C }
  - { offsetInCU: 0x331EE, offset: 0x331EE, size: 0x8, addend: 0x0, symName: __ZNSt3__13setIiNS_4lessIiEENS_9allocatorIiEEED1B7v160006Ev, symObjAddr: 0x2C, symBinAddr: 0x10000330C, symSize: 0x2C }
  - { offsetInCU: 0x33218, offset: 0x33218, size: 0x8, addend: 0x0, symName: __ZNSt3__13mapINS_12basic_stringIcNS_11char_traitsIcEENS_9allocatorIcEEEEiNS_4lessIS6_EENS4_INS_4pairIKS6_iEEEEEC1B7v160006Ev, symObjAddr: 0x58, symBinAddr: 0x100003338, symSize: 0x2C }
  - { offsetInCU: 0x33242, offset: 0x33242, size: 0x8, addend: 0x0, symName: __ZNSt3__13mapINS_12basic_stringIcNS_11char_traitsIcEENS_9allocatorIcEEEEiNS_4lessIS6_EENS4_INS_4pairIKS6_iEEEEED1B7v160006Ev, symObjAddr: 0x84, symBinAddr: 0x100003364, symSize: 0x2C }
  - { offsetInCU: 0x3326C, offset: 0x3326C, size: 0x8, addend: 0x0, symName: __ZNSt3__13mapIiiNS_4lessIiEENS_9allocatorINS_4pairIKiiEEEEEC1B7v160006Ev, symObjAddr: 0xB0, symBinAddr: 0x100003390, symSize: 0x2C }
  - { offsetInCU: 0x33296, offset: 0x33296, size: 0x8, addend: 0x0, symName: __ZNSt3__13mapIiiNS_4lessIiEENS_9allocatorINS_4pairIKiiEEEEED1B7v160006Ev, symObjAddr: 0xDC, symBinAddr: 0x1000033BC, symSize: 0x2C }
  - { offsetInCU: 0x332C0, offset: 0x332C0, size: 0x8, addend: 0x0, symName: __ZNSt3__13mapIiNS_12basic_stringIcNS_11char_traitsIcEENS_9allocatorIcEEEENS_4lessIiEENS4_INS_4pairIKiS6_EEEEEC1B7v160006Ev, symObjAddr: 0x108, symBinAddr: 0x1000033E8, symSize: 0x2C }
  - { offsetInCU: 0x332EA, offset: 0x332EA, size: 0x8, addend: 0x0, symName: __ZNSt3__13mapIiNS_12basic_stringIcNS_11char_traitsIcEENS_9allocatorIcEEEENS_4lessIiEENS4_INS_4pairIKiS6_EEEEED1B7v160006Ev, symObjAddr: 0x134, symBinAddr: 0x100003414, symSize: 0x2C }
  - { offsetInCU: 0x33314, offset: 0x33314, size: 0x8, addend: 0x0, symName: __ZNSt3__16vectorI8ProducerNS_9allocatorIS1_EEEC1B7v160006Ev, symObjAddr: 0x160, symBinAddr: 0x100003440, symSize: 0x2C }
  - { offsetInCU: 0x3333E, offset: 0x3333E, size: 0x8, addend: 0x0, symName: __ZNSt3__16vectorI8ProducerNS_9allocatorIS1_EEED1B7v160006Ev, symObjAddr: 0x18C, symBinAddr: 0x10000346C, symSize: 0x2C }
  - { offsetInCU: 0x33368, offset: 0x33368, size: 0x8, addend: 0x0, symName: __ZNSt3__16vectorIiNS_9allocatorIiEEEC1B7v160006Ev, symObjAddr: 0x1B8, symBinAddr: 0x100003498, symSize: 0x2C }
  - { offsetInCU: 0x33392, offset: 0x33392, size: 0x8, addend: 0x0, symName: __ZNSt3__16vectorIiNS_9allocatorIiEEED1B7v160006Ev, symObjAddr: 0x1E4, symBinAddr: 0x1000034C4, symSize: 0x2C }
  - { offsetInCU: 0x333BC, offset: 0x333BC, size: 0x8, addend: 0x0, symName: __ZNSt3__16vectorINS_12basic_stringIcNS_11char_traitsIcEENS_9allocatorIcEEEENS4_IS6_EEEC1B7v160006Ev, symObjAddr: 0x210, symBinAddr: 0x1000034F0, symSize: 0x2C }
  - { offsetInCU: 0x333E6, offset: 0x333E6, size: 0x8, addend: 0x0, symName: __ZNSt3__16vectorINS_12basic_stringIcNS_11char_traitsIcEENS_9allocatorIcEEEENS4_IS6_EEED1B7v160006Ev, symObjAddr: 0x23C, symBinAddr: 0x10000351C, symSize: 0x2C }
  - { offsetInCU: 0x33410, offset: 0x33410, size: 0x8, addend: 0x0, symName: __ZNSt3__13mapIiNS_6vectorIiNS_9allocatorIiEEEENS_4lessIiEENS2_INS_4pairIKiS4_EEEEEC1B7v160006Ev, symObjAddr: 0x268, symBinAddr: 0x100003548, symSize: 0x2C }
  - { offsetInCU: 0x3343A, offset: 0x3343A, size: 0x8, addend: 0x0, symName: __ZNSt3__13mapIiNS_6vectorIiNS_9allocatorIiEEEENS_4lessIiEENS2_INS_4pairIKiS4_EEEEED1B7v160006Ev, symObjAddr: 0x294, symBinAddr: 0x100003574, symSize: 0x2C }
  - { offsetInCU: 0x33464, offset: 0x33464, size: 0x8, addend: 0x0, symName: __ZNSt3__16vectorINS0_IiNS_9allocatorIiEEEENS1_IS3_EEEC1B7v160006Ev, symObjAddr: 0x2C0, symBinAddr: 0x1000035A0, symSize: 0x2C }
  - { offsetInCU: 0x3348E, offset: 0x3348E, size: 0x8, addend: 0x0, symName: __ZNSt3__16vectorINS0_IiNS_9allocatorIiEEEENS1_IS3_EEED1B7v160006Ev, symObjAddr: 0x2EC, symBinAddr: 0x1000035CC, symSize: 0x2C }
  - { offsetInCU: 0x334B8, offset: 0x334B8, size: 0x8, addend: 0x0, symName: __ZN7LR1ItemC2Eii, symObjAddr: 0x318, symBinAddr: 0x1000035F8, symSize: 0x48 }
  - { offsetInCU: 0x33500, offset: 0x33500, size: 0x8, addend: 0x0, symName: __ZN7LR1ItemC1Eii, symObjAddr: 0x360, symBinAddr: 0x100003640, symSize: 0x3C }
  - { offsetInCU: 0x33548, offset: 0x33548, size: 0x8, addend: 0x0, symName: __ZN7LR1Item4moveEv, symObjAddr: 0x39C, symBinAddr: 0x10000367C, symSize: 0x20 }
  - { offsetInCU: 0x33570, offset: 0x33570, size: 0x8, addend: 0x0, symName: __ZNK7LR1Item16getCurrentSymbolEv, symObjAddr: 0x3BC, symBinAddr: 0x10000369C, symSize: 0x98 }
  - { offsetInCU: 0x33598, offset: 0x33598, size: 0x8, addend: 0x0, symName: __ZNSt3__16vectorI8ProducerNS_9allocatorIS1_EEEixB7v160006Em, symObjAddr: 0x454, symBinAddr: 0x100003734, symSize: 0x24 }
  - { offsetInCU: 0x335CF, offset: 0x335CF, size: 0x8, addend: 0x0, symName: __ZNKSt3__16vectorIiNS_9allocatorIiEEE4sizeB7v160006Ev, symObjAddr: 0x478, symBinAddr: 0x100003758, symSize: 0x28 }
  - { offsetInCU: 0x335F5, offset: 0x335F5, size: 0x8, addend: 0x0, symName: __ZNSt3__16vectorIiNS_9allocatorIiEEEixB7v160006Em, symObjAddr: 0x4A0, symBinAddr: 0x100003780, symSize: 0x24 }
  - { offsetInCU: 0x3362C, offset: 0x3362C, size: 0x8, addend: 0x0, symName: __ZNK7LR1Item18getCurrentPositionEv, symObjAddr: 0x4C4, symBinAddr: 0x1000037A4, symSize: 0x18 }
  - { offsetInCU: 0x33654, offset: 0x33654, size: 0x8, addend: 0x0, symName: __ZNK7LR1Item13getNextSymbolEv, symObjAddr: 0x4DC, symBinAddr: 0x1000037BC, symSize: 0xB0 }
  - { offsetInCU: 0x3367C, offset: 0x3367C, size: 0x8, addend: 0x0, symName: __ZNK7LR1Item13getProducerIDEv, symObjAddr: 0x58C, symBinAddr: 0x10000386C, symSize: 0x18 }
  - { offsetInCU: 0x336A4, offset: 0x336A4, size: 0x8, addend: 0x0, symName: __ZNK7LR1Item5isEndEv, symObjAddr: 0x5A4, symBinAddr: 0x100003884, symSize: 0xD4 }
  - { offsetInCU: 0x336CC, offset: 0x336CC, size: 0x8, addend: 0x0, symName: __ZNK7LR1Item9nextIsEndEv, symObjAddr: 0x678, symBinAddr: 0x100003958, symSize: 0x94 }
  - { offsetInCU: 0x33702, offset: 0x33702, size: 0x8, addend: 0x0, symName: __ZN7LR1Item16setPredictiveSymERKNSt3__13setIiNS0_4lessIiEENS0_9allocatorIiEEEE, symObjAddr: 0x70C, symBinAddr: 0x1000039EC, symSize: 0x94 }
  - { offsetInCU: 0x33789, offset: 0x33789, size: 0x8, addend: 0x0, symName: __ZNKSt3__13setIiNS_4lessIiEENS_9allocatorIiEEE5beginB7v160006Ev, symObjAddr: 0x7A0, symBinAddr: 0x100003A80, symSize: 0x2C }
  - { offsetInCU: 0x337AF, offset: 0x337AF, size: 0x8, addend: 0x0, symName: __ZNKSt3__13setIiNS_4lessIiEENS_9allocatorIiEEE3endB7v160006Ev, symObjAddr: 0x7CC, symBinAddr: 0x100003AAC, symSize: 0x2C }
  - { offsetInCU: 0x337D5, offset: 0x337D5, size: 0x8, addend: 0x0, symName: __ZNKSt3__121__tree_const_iteratorIiPNS_11__tree_nodeIiPvEElEdeB7v160006Ev, symObjAddr: 0x82C, symBinAddr: 0x100003B0C, symSize: 0x28 }
  - { offsetInCU: 0x337FB, offset: 0x337FB, size: 0x8, addend: 0x0, symName: __ZNSt3__13setIiNS_4lessIiEENS_9allocatorIiEEE6insertB7v160006ERKi, symObjAddr: 0x854, symBinAddr: 0x100003B34, symSize: 0x4C }
  - { offsetInCU: 0x33830, offset: 0x33830, size: 0x8, addend: 0x0, symName: __ZNSt3__121__tree_const_iteratorIiPNS_11__tree_nodeIiPvEElEppB7v160006Ev, symObjAddr: 0x8A0, symBinAddr: 0x100003B80, symSize: 0x38 }
  - { offsetInCU: 0x33856, offset: 0x33856, size: 0x8, addend: 0x0, symName: __ZNK7LR1Item16getPredictiveSymEv, symObjAddr: 0x8D8, symBinAddr: 0x100003BB8, symSize: 0x18 }
  - { offsetInCU: 0x3387E, offset: 0x3387E, size: 0x8, addend: 0x0, symName: __ZNK7LR1Item10checkEqualERKS_, symObjAddr: 0x8F0, symBinAddr: 0x100003BD0, symSize: 0x138 }
  - { offsetInCU: 0x338C2, offset: 0x338C2, size: 0x8, addend: 0x0, symName: __ZNSt3__16vectorIbNS_9allocatorIbEEEC1B7v160006Ev, symObjAddr: 0xA28, symBinAddr: 0x100003D08, symSize: 0x2C }
  - { offsetInCU: 0x338EE, offset: 0x338EE, size: 0x8, addend: 0x0, symName: __ZNSt3__16vectorIbNS_9allocatorIbEEE5clearB7v160006Ev, symObjAddr: 0xA54, symBinAddr: 0x100003D34, symSize: 0x18 }
  - { offsetInCU: 0x33914, offset: 0x33914, size: 0x8, addend: 0x0, symName: __ZNSt3__16vectorIbNS_9allocatorIbEEED1B7v160006Ev, symObjAddr: 0xB04, symBinAddr: 0x100003DE4, symSize: 0x2C }
  - { offsetInCU: 0x3393E, offset: 0x3393E, size: 0x8, addend: 0x0, symName: __ZNK7LR1Item9checkLikeERKS_, symObjAddr: 0xB30, symBinAddr: 0x100003E10, symSize: 0x138 }
  - { offsetInCU: 0x33981, offset: 0x33981, size: 0x8, addend: 0x0, symName: __ZltRK7LR1ItemS1_, symObjAddr: 0xC9C, symBinAddr: 0x100003F7C, symSize: 0x8C }
  - { offsetInCU: 0x339BC, offset: 0x339BC, size: 0x8, addend: 0x0, symName: __ZNSt3__114basic_ifstreamIcNS_11char_traitsIcEEEC1Ev, symObjAddr: 0xD28, symBinAddr: 0x100004008, symSize: 0xE8 }
  - { offsetInCU: 0x339ED, offset: 0x339ED, size: 0x8, addend: 0x0, symName: __ZNSt3__114basic_ifstreamIcNS_11char_traitsIcEEED1Ev, symObjAddr: 0xE10, symBinAddr: 0x1000040F0, symSize: 0x40 }
  - { offsetInCU: 0x33A1A, offset: 0x33A1A, size: 0x8, addend: 0x0, symName: __ZNSt3__114basic_ofstreamIcNS_11char_traitsIcEEEC1Ev, symObjAddr: 0xE50, symBinAddr: 0x100004130, symSize: 0xE8 }
  - { offsetInCU: 0x33A4B, offset: 0x33A4B, size: 0x8, addend: 0x0, symName: __ZNSt3__114basic_ofstreamIcNS_11char_traitsIcEEED1Ev, symObjAddr: 0xF38, symBinAddr: 0x100004218, symSize: 0x40 }
  - { offsetInCU: 0x33A78, offset: 0x33A78, size: 0x8, addend: 0x0, symName: _main, symObjAddr: 0xF78, symBinAddr: 0x100004258, symSize: 0x208 }
  - { offsetInCU: 0x33AA1, offset: 0x33AA1, size: 0x8, addend: 0x0, symName: __ZNSt3__112basic_stringIcNS_11char_traitsIcEENS_9allocatorIcEEEC1B7v160006Ev, symObjAddr: 0x1180, symBinAddr: 0x100004460, symSize: 0x2C }
  - { offsetInCU: 0x33ACB, offset: 0x33ACB, size: 0x8, addend: 0x0, symName: __ZNKSt3__19basic_iosIcNS_11char_traitsIcEEE4failB7v160006Ev, symObjAddr: 0x1500, symBinAddr: 0x1000047E0, symSize: 0x28 }
  - { offsetInCU: 0x33AF1, offset: 0x33AF1, size: 0x8, addend: 0x0, symName: __Z13analysisInputv, symObjAddr: 0x1528, symBinAddr: 0x100004808, symSize: 0xA4 }
  - { offsetInCU: 0x33B0E, offset: 0x33B0E, size: 0x8, addend: 0x0, symName: __Z16PrintSymbolTablev, symObjAddr: 0x1618, symBinAddr: 0x1000048F8, symSize: 0x1F0 }
  - { offsetInCU: 0x33B38, offset: 0x33B38, size: 0x8, addend: 0x0, symName: __Z14ProcessItemSetv, symObjAddr: 0x1808, symBinAddr: 0x100004AE8, symSize: 0x1098 }
  - { offsetInCU: 0x33E48, offset: 0x33E48, size: 0x8, addend: 0x0, symName: __Z12GenerateCodev, symObjAddr: 0x28A0, symBinAddr: 0x100005B80, symSize: 0x16E0 }
  - { offsetInCU: 0x33FBB, offset: 0x33FBB, size: 0x8, addend: 0x0, symName: __Z18ExplanationProcessv, symObjAddr: 0x3F80, symBinAddr: 0x100007260, symSize: 0x190 }
  - { offsetInCU: 0x33FE7, offset: 0x33FE7, size: 0x8, addend: 0x0, symName: __Z11RuleProcessv, symObjAddr: 0x4848, symBinAddr: 0x100007B28, symSize: 0x264 }
  - { offsetInCU: 0x34015, offset: 0x34015, size: 0x8, addend: 0x0, symName: __Z24AdditionalProgramProcessv, symObjAddr: 0x4AAC, symBinAddr: 0x100007D8C, symSize: 0xC0 }
  - { offsetInCU: 0x34040, offset: 0x34040, size: 0x8, addend: 0x0, symName: __ZNSt3__113basic_ostreamIcNS_11char_traitsIcEEElsB7v160006EPFRS3_S4_E, symObjAddr: 0x4BFC, symBinAddr: 0x100007EDC, symSize: 0x2C }
  - { offsetInCU: 0x34074, offset: 0x34074, size: 0x8, addend: 0x0, symName: __ZNKSt3__19basic_iosIcNS_11char_traitsIcEEE3eofB7v160006Ev, symObjAddr: 0x4C80, symBinAddr: 0x100007F60, symSize: 0x28 }
  - { offsetInCU: 0x3409F, offset: 0x3409F, size: 0x8, addend: 0x0, symName: __ZNSt3__112basic_stringIcNS_11char_traitsIcEENS_9allocatorIcEEEC1B7v160006IDnEEPKc, symObjAddr: 0x4D88, symBinAddr: 0x100008068, symSize: 0x34 }
  - { offsetInCU: 0x340DD, offset: 0x340DD, size: 0x8, addend: 0x0, symName: __ZNKSt3__112basic_stringIcNS_11char_traitsIcEENS_9allocatorIcEEE4findB7v160006EPKcm, symObjAddr: 0x4DBC, symBinAddr: 0x10000809C, symSize: 0x74 }
  - { offsetInCU: 0x34123, offset: 0x34123, size: 0x8, addend: 0x0, symName: __ZNKSt3__112basic_stringIcNS_11char_traitsIcEENS_9allocatorIcEEE6substrB7v160006Emm, symObjAddr: 0x4E30, symBinAddr: 0x100008110, symSize: 0x68 }
  - { offsetInCU: 0x34167, offset: 0x34167, size: 0x8, addend: 0x0, symName: __ZNSt3__112basic_stringIcNS_11char_traitsIcEENS_9allocatorIcEEEaSB7v160006EOS5_, symObjAddr: 0x4E98, symBinAddr: 0x100008178, symSize: 0x34 }
  - { offsetInCU: 0x3419B, offset: 0x3419B, size: 0x8, addend: 0x0, symName: __Z20addtoTerminatorTableNSt3__112basic_stringIcNS_11char_traitsIcEENS_9allocatorIcEEEEiiS5_i, symObjAddr: 0x4ECC, symBinAddr: 0x1000081AC, symSize: 0x218 }
  - { offsetInCU: 0x34258, offset: 0x34258, size: 0x8, addend: 0x0, symName: __ZNKSt3__13mapINS_12basic_stringIcNS_11char_traitsIcEENS_9allocatorIcEEEEiNS_4lessIS6_EENS4_INS_4pairIKS6_iEEEEE4sizeB7v160006Ev, symObjAddr: 0x50E4, symBinAddr: 0x1000083C4, symSize: 0x28 }
  - { offsetInCU: 0x3427E, offset: 0x3427E, size: 0x8, addend: 0x0, symName: __ZNSt3__13mapINS_12basic_stringIcNS_11char_traitsIcEENS_9allocatorIcEEEEiNS_4lessIS6_EENS4_INS_4pairIKS6_iEEEEEixERSA_, symObjAddr: 0x510C, symBinAddr: 0x1000083EC, symSize: 0x80 }
  - { offsetInCU: 0x342CF, offset: 0x342CF, size: 0x8, addend: 0x0, symName: __ZNSt3__14pairINS_12basic_stringIcNS_11char_traitsIcEENS_9allocatorIcEEEEiEC1B7v160006ILb1ELPv0EEEv, symObjAddr: 0x518C, symBinAddr: 0x10000846C, symSize: 0x2C }
  - { offsetInCU: 0x34323, offset: 0x34323, size: 0x8, addend: 0x0, symName: __ZNSt3__14pairIiiEC1B7v160006ILb1ELPv0EEEv, symObjAddr: 0x51B8, symBinAddr: 0x100008498, symSize: 0x2C }
  - { offsetInCU: 0x3435D, offset: 0x3435D, size: 0x8, addend: 0x0, symName: __ZNSt3__14pairINS_12basic_stringIcNS_11char_traitsIcEENS_9allocatorIcEEEEiED1Ev, symObjAddr: 0x51E4, symBinAddr: 0x1000084C4, symSize: 0x2C }
  - { offsetInCU: 0x3438E, offset: 0x3438E, size: 0x8, addend: 0x0, symName: __ZN8ProducerC1Ev, symObjAddr: 0x5210, symBinAddr: 0x1000084F0, symSize: 0x2C }
  - { offsetInCU: 0x343BA, offset: 0x343BA, size: 0x8, addend: 0x0, symName: __ZNSt3__16vectorIiNS_9allocatorIiEEE5clearB7v160006Ev, symObjAddr: 0x523C, symBinAddr: 0x10000851C, symSize: 0x54 }
  - { offsetInCU: 0x343EF, offset: 0x343EF, size: 0x8, addend: 0x0, symName: __ZNSt3__16vectorI8ProducerNS_9allocatorIS1_EEE9push_backB7v160006ERKS1_, symObjAddr: 0x5290, symBinAddr: 0x100008570, symSize: 0x6C }
  - { offsetInCU: 0x34426, offset: 0x34426, size: 0x8, addend: 0x0, symName: __ZNSt3__16vectorIiNS_9allocatorIiEEE9push_backB7v160006EOi, symObjAddr: 0x52FC, symBinAddr: 0x1000085DC, symSize: 0x6C }
  - { offsetInCU: 0x3445D, offset: 0x3445D, size: 0x8, addend: 0x0, symName: __ZNSt3__16vectorINS_12basic_stringIcNS_11char_traitsIcEENS_9allocatorIcEEEENS4_IS6_EEE9push_backB7v160006EOS6_, symObjAddr: 0x5368, symBinAddr: 0x100008648, symSize: 0x6C }
  - { offsetInCU: 0x34493, offset: 0x34493, size: 0x8, addend: 0x0, symName: __Z15ProducerProcessv, symObjAddr: 0x53D4, symBinAddr: 0x1000086B4, symSize: 0xDD8 }
  - { offsetInCU: 0x34569, offset: 0x34569, size: 0x8, addend: 0x0, symName: __ZNKSt3__16vectorI8ProducerNS_9allocatorIS1_EEE4sizeB7v160006Ev, symObjAddr: 0x61AC, symBinAddr: 0x10000948C, symSize: 0x28 }
  - { offsetInCU: 0x3458F, offset: 0x3458F, size: 0x8, addend: 0x0, symName: __ZNSt3__16vectorIiNS_9allocatorIiEEE9push_backB7v160006ERKi, symObjAddr: 0x61D4, symBinAddr: 0x1000094B4, symSize: 0x6C }
  - { offsetInCU: 0x345C5, offset: 0x345C5, size: 0x8, addend: 0x0, symName: __Z19GenerateProducerMapv, symObjAddr: 0x6240, symBinAddr: 0x100009520, symSize: 0x1AC }
  - { offsetInCU: 0x3461B, offset: 0x3461B, size: 0x8, addend: 0x0, symName: __ZN8ProducerD1Ev, symObjAddr: 0x63EC, symBinAddr: 0x1000096CC, symSize: 0x2C }
  - { offsetInCU: 0x34647, offset: 0x34647, size: 0x8, addend: 0x0, symName: __ZNSt3__13mapIiNS_6vectorIiNS_9allocatorIiEEEENS_4lessIiEENS2_INS_4pairIKiS4_EEEEE4findB7v160006ERS8_, symObjAddr: 0x6448, symBinAddr: 0x100009728, symSize: 0x40 }
  - { offsetInCU: 0x3467C, offset: 0x3467C, size: 0x8, addend: 0x0, symName: __ZNSt3__13mapIiNS_6vectorIiNS_9allocatorIiEEEENS_4lessIiEENS2_INS_4pairIKiS4_EEEEE3endB7v160006Ev, symObjAddr: 0x6488, symBinAddr: 0x100009768, symSize: 0x38 }
  - { offsetInCU: 0x346BC, offset: 0x346BC, size: 0x8, addend: 0x0, symName: __ZNSt3__14pairIiNS_6vectorIiNS_9allocatorIiEEEEEC1B7v160006ILb1ELPv0EEEv, symObjAddr: 0x64C0, symBinAddr: 0x1000097A0, symSize: 0x2C }
  - { offsetInCU: 0x346F6, offset: 0x346F6, size: 0x8, addend: 0x0, symName: __ZNSt3__16vectorIiNS_9allocatorIiEEEaSB7v160006ERKS3_, symObjAddr: 0x64EC, symBinAddr: 0x1000097CC, symSize: 0x68 }
  - { offsetInCU: 0x3472D, offset: 0x3472D, size: 0x8, addend: 0x0, symName: __ZNSt3__13mapIiNS_6vectorIiNS_9allocatorIiEEEENS_4lessIiEENS2_INS_4pairIKiS4_EEEEE6insertB7v160006IRNS7_IiS4_EEvEENS7_INS_14__map_iteratorINS_15__tree_iteratorINS_12__value_typeIiS4_EEPNS_11__tree_nodeISI_PvEElEEEEbEEOT_, symObjAddr: 0x6554, symBinAddr: 0x100009834, symSize: 0x4C }
  - { offsetInCU: 0x3476C, offset: 0x3476C, size: 0x8, addend: 0x0, symName: __ZNSt3__14pairIiNS_6vectorIiNS_9allocatorIiEEEEED1Ev, symObjAddr: 0x65A0, symBinAddr: 0x100009880, symSize: 0x2C }
  - { offsetInCU: 0x34798, offset: 0x34798, size: 0x8, addend: 0x0, symName: __ZNSt3__13mapIiNS_6vectorIiNS_9allocatorIiEEEENS_4lessIiEENS2_INS_4pairIKiS4_EEEEEixERS8_, symObjAddr: 0x65CC, symBinAddr: 0x1000098AC, symSize: 0x80 }
  - { offsetInCU: 0x347CF, offset: 0x347CF, size: 0x8, addend: 0x0, symName: __ZNSt3__13mapINS_12basic_stringIcNS_11char_traitsIcEENS_9allocatorIcEEEEiNS_4lessIS6_EENS4_INS_4pairIKS6_iEEEEE5beginB7v160006Ev, symObjAddr: 0x664C, symBinAddr: 0x10000992C, symSize: 0x38 }
  - { offsetInCU: 0x347F5, offset: 0x347F5, size: 0x8, addend: 0x0, symName: __ZNSt3__13mapINS_12basic_stringIcNS_11char_traitsIcEENS_9allocatorIcEEEEiNS_4lessIS6_EENS4_INS_4pairIKS6_iEEEEE3endB7v160006Ev, symObjAddr: 0x66B4, symBinAddr: 0x100009994, symSize: 0x38 }
  - { offsetInCU: 0x3481B, offset: 0x3481B, size: 0x8, addend: 0x0, symName: __ZNKSt3__114__map_iteratorINS_15__tree_iteratorINS_12__value_typeINS_12basic_stringIcNS_11char_traitsIcEENS_9allocatorIcEEEEiEEPNS_11__tree_nodeIS9_PvEElEEEptB7v160006Ev, symObjAddr: 0x66EC, symBinAddr: 0x1000099CC, symSize: 0x2C }
  - { offsetInCU: 0x34841, offset: 0x34841, size: 0x8, addend: 0x0, symName: __ZNSt3__13mapIiNS_12basic_stringIcNS_11char_traitsIcEENS_9allocatorIcEEEENS_4lessIiEENS4_INS_4pairIKiS6_EEEEEixERSA_, symObjAddr: 0x6718, symBinAddr: 0x1000099F8, symSize: 0x80 }
  - { offsetInCU: 0x34878, offset: 0x34878, size: 0x8, addend: 0x0, symName: __ZNSt3__114__map_iteratorINS_15__tree_iteratorINS_12__value_typeINS_12basic_stringIcNS_11char_traitsIcEENS_9allocatorIcEEEEiEEPNS_11__tree_nodeIS9_PvEElEEEppB7v160006Ei, symObjAddr: 0x6798, symBinAddr: 0x100009A78, symSize: 0x34 }
  - { offsetInCU: 0x348B8, offset: 0x348B8, size: 0x8, addend: 0x0, symName: __ZNSt3__13mapINS_12basic_stringIcNS_11char_traitsIcEENS_9allocatorIcEEEEiNS_4lessIS6_EENS4_INS_4pairIKS6_iEEEEE4findB7v160006ERSA_, symObjAddr: 0x67CC, symBinAddr: 0x100009AAC, symSize: 0x40 }
  - { offsetInCU: 0x348EC, offset: 0x348EC, size: 0x8, addend: 0x0, symName: __Z21addtoNonterminalTableNSt3__112basic_stringIcNS_11char_traitsIcEENS_9allocatorIcEEEEiiS5_, symObjAddr: 0x683C, symBinAddr: 0x100009B1C, symSize: 0x1B0 }
  - { offsetInCU: 0x3497C, offset: 0x3497C, size: 0x8, addend: 0x0, symName: __ZNSt3__13mapIiiNS_4lessIiEENS_9allocatorINS_4pairIKiiEEEEEixERS5_, symObjAddr: 0x69EC, symBinAddr: 0x100009CCC, symSize: 0x80 }
  - { offsetInCU: 0x349B3, offset: 0x349B3, size: 0x8, addend: 0x0, symName: __ZNSt3__16vectorINS_12basic_stringIcNS_11char_traitsIcEENS_9allocatorIcEEEENS4_IS6_EEE9push_backB7v160006ERKS6_, symObjAddr: 0x6A6C, symBinAddr: 0x100009D4C, symSize: 0x6C }
  - { offsetInCU: 0x349E9, offset: 0x349E9, size: 0x8, addend: 0x0, symName: __Z9getSymboli, symObjAddr: 0x6AD8, symBinAddr: 0x100009DB8, symSize: 0x1F4 }
  - { offsetInCU: 0x34ABC, offset: 0x34ABC, size: 0x8, addend: 0x0, symName: __ZNSt3__13mapINS_12basic_stringIcNS_11char_traitsIcEENS_9allocatorIcEEEEiNS_4lessIS6_EENS4_INS_4pairIKS6_iEEEEE6insertB7v160006IRNS9_IS6_iEEvEENS9_INS_14__map_iteratorINS_15__tree_iteratorINS_12__value_typeIS6_iEEPNS_11__tree_nodeISK_PvEElEEEEbEEOT_, symObjAddr: 0x6CCC, symBinAddr: 0x100009FAC, symSize: 0x4C }
  - { offsetInCU: 0x34AFB, offset: 0x34AFB, size: 0x8, addend: 0x0, symName: __ZNKSt3__13mapIiiNS_4lessIiEENS_9allocatorINS_4pairIKiiEEEEE4sizeB7v160006Ev, symObjAddr: 0x6D18, symBinAddr: 0x100009FF8, symSize: 0x28 }
  - { offsetInCU: 0x34B21, offset: 0x34B21, size: 0x8, addend: 0x0, symName: __ZNSt3__13mapIiiNS_4lessIiEENS_9allocatorINS_4pairIKiiEEEEE6insertB7v160006IRNS4_IiiEEvEENS4_INS_14__map_iteratorINS_15__tree_iteratorINS_12__value_typeIiiEEPNS_11__tree_nodeISF_PvEElEEEEbEEOT_, symObjAddr: 0x6D40, symBinAddr: 0x10000A020, symSize: 0x4C }
  - { offsetInCU: 0x34B7A, offset: 0x34B7A, size: 0x8, addend: 0x0, symName: __ZNSt3__14pairIiNS_12basic_stringIcNS_11char_traitsIcEENS_9allocatorIcEEEEEC1B7v160006ILb1ELPv0EEEv, symObjAddr: 0x6D8C, symBinAddr: 0x10000A06C, symSize: 0x2C }
  - { offsetInCU: 0x34BB4, offset: 0x34BB4, size: 0x8, addend: 0x0, symName: __ZNSt3__13mapIiNS_12basic_stringIcNS_11char_traitsIcEENS_9allocatorIcEEEENS_4lessIiEENS4_INS_4pairIKiS6_EEEEE6insertB7v160006IRNS9_IiS6_EEvEENS9_INS_14__map_iteratorINS_15__tree_iteratorINS_12__value_typeIiS6_EEPNS_11__tree_nodeISK_PvEElEEEEbEEOT_, symObjAddr: 0x6DB8, symBinAddr: 0x10000A098, symSize: 0x4C }
  - { offsetInCU: 0x34BF3, offset: 0x34BF3, size: 0x8, addend: 0x0, symName: __ZNSt3__14pairIiNS_12basic_stringIcNS_11char_traitsIcEENS_9allocatorIcEEEEED1Ev, symObjAddr: 0x6E04, symBinAddr: 0x10000A0E4, symSize: 0x2C }
  - { offsetInCU: 0x34C1E, offset: 0x34C1E, size: 0x8, addend: 0x0, symName: __Z12checkItemSetNSt3__18multisetI7LR1ItemNS_4lessIS1_EENS_9allocatorIS1_EEEES6_, symObjAddr: 0x6E30, symBinAddr: 0x10000A110, symSize: 0x240 }
  - { offsetInCU: 0x34D27, offset: 0x34D27, size: 0x8, addend: 0x0, symName: __ZNSt3__18multisetI7LR1ItemNS_4lessIS1_EENS_9allocatorIS1_EEEC1B7v160006ERKS6_, symObjAddr: 0x7070, symBinAddr: 0x10000A350, symSize: 0x34 }
  - { offsetInCU: 0x34D60, offset: 0x34D60, size: 0x8, addend: 0x0, symName: __ZNKSt3__18multisetI7LR1ItemNS_4lessIS1_EENS_9allocatorIS1_EEE4sizeB7v160006Ev, symObjAddr: 0x70A4, symBinAddr: 0x10000A384, symSize: 0x28 }
  - { offsetInCU: 0x34D86, offset: 0x34D86, size: 0x8, addend: 0x0, symName: __ZNSt3__18multisetI7LR1ItemNS_4lessIS1_EENS_9allocatorIS1_EEE5beginB7v160006Ev, symObjAddr: 0x70CC, symBinAddr: 0x10000A3AC, symSize: 0x38 }
  - { offsetInCU: 0x34DAC, offset: 0x34DAC, size: 0x8, addend: 0x0, symName: __ZNSt3__18multisetI7LR1ItemNS_4lessIS1_EENS_9allocatorIS1_EEE3endB7v160006Ev, symObjAddr: 0x7104, symBinAddr: 0x10000A3E4, symSize: 0x38 }
  - { offsetInCU: 0x34DD2, offset: 0x34DD2, size: 0x8, addend: 0x0, symName: __ZNKSt3__121__tree_const_iteratorI7LR1ItemPNS_11__tree_nodeIS1_PvEElEdeB7v160006Ev, symObjAddr: 0x7170, symBinAddr: 0x10000A450, symSize: 0x28 }
  - { offsetInCU: 0x34DF8, offset: 0x34DF8, size: 0x8, addend: 0x0, symName: __ZNSt3__121__tree_const_iteratorI7LR1ItemPNS_11__tree_nodeIS1_PvEElEppB7v160006Ev, symObjAddr: 0x7198, symBinAddr: 0x10000A478, symSize: 0x38 }
  - { offsetInCU: 0x34E1E, offset: 0x34E1E, size: 0x8, addend: 0x0, symName: __ZNSt3__18multisetI7LR1ItemNS_4lessIS1_EENS_9allocatorIS1_EEED1B7v160006Ev, symObjAddr: 0x71D0, symBinAddr: 0x10000A4B0, symSize: 0x2C }
  - { offsetInCU: 0x34E47, offset: 0x34E47, size: 0x8, addend: 0x0, symName: __Z11getFirstSetiRNSt3__13setIiNS_4lessIiEENS_9allocatorIiEEEES6_, symObjAddr: 0x71FC, symBinAddr: 0x10000A4DC, symSize: 0x67C }
  - { offsetInCU: 0x34FA1, offset: 0x34FA1, size: 0x8, addend: 0x0, symName: __ZNSt3__16vectorIiNS_9allocatorIiEEEC1ERKS3_, symObjAddr: 0x7878, symBinAddr: 0x10000AB58, symSize: 0x34 }
  - { offsetInCU: 0x34FDC, offset: 0x34FDC, size: 0x8, addend: 0x0, symName: __ZNSt3__13mapIiiNS_4lessIiEENS_9allocatorINS_4pairIKiiEEEEE4findB7v160006ERS5_, symObjAddr: 0x78DC, symBinAddr: 0x10000ABBC, symSize: 0x40 }
  - { offsetInCU: 0x35011, offset: 0x35011, size: 0x8, addend: 0x0, symName: __ZNSt3__13mapIiiNS_4lessIiEENS_9allocatorINS_4pairIKiiEEEEE3endB7v160006Ev, symObjAddr: 0x791C, symBinAddr: 0x10000ABFC, symSize: 0x38 }
  - { offsetInCU: 0x35037, offset: 0x35037, size: 0x8, addend: 0x0, symName: __ZNSt3__13setIiNS_4lessIiEENS_9allocatorIiEEE4findB7v160006ERKi, symObjAddr: 0x7984, symBinAddr: 0x10000AC64, symSize: 0x40 }
  - { offsetInCU: 0x3506C, offset: 0x3506C, size: 0x8, addend: 0x0, symName: __ZNSt3__13setIiNS_4lessIiEENS_9allocatorIiEEE3endB7v160006Ev, symObjAddr: 0x79C4, symBinAddr: 0x10000ACA4, symSize: 0x38 }
  - { offsetInCU: 0x35092, offset: 0x35092, size: 0x8, addend: 0x0, symName: __ZNSt3__16vectorIiNS_9allocatorIiEEE5beginB7v160006Ev, symObjAddr: 0x79FC, symBinAddr: 0x10000ACDC, symSize: 0x30 }
  - { offsetInCU: 0x350BA, offset: 0x350BA, size: 0x8, addend: 0x0, symName: __ZNSt3__16vectorIiNS_9allocatorIiEEE3endB7v160006Ev, symObjAddr: 0x7A2C, symBinAddr: 0x10000AD0C, symSize: 0x30 }
  - { offsetInCU: 0x350E2, offset: 0x350E2, size: 0x8, addend: 0x0, symName: __ZNKSt3__111__wrap_iterIPiEdeB7v160006Ev, symObjAddr: 0x7A90, symBinAddr: 0x10000AD70, symSize: 0x18 }
  - { offsetInCU: 0x35108, offset: 0x35108, size: 0x8, addend: 0x0, symName: __ZNSt3__111__wrap_iterIPiEppB7v160006Ev, symObjAddr: 0x7AA8, symBinAddr: 0x10000AD88, symSize: 0x20 }
  - { offsetInCU: 0x3512D, offset: 0x3512D, size: 0x8, addend: 0x0, symName: __Z17findPredictiveSymRK7LR1ItemRNSt3__13setIiNS2_4lessIiEENS2_9allocatorIiEEEE, symObjAddr: 0x7AC8, symBinAddr: 0x10000ADA8, symSize: 0x178 }
  - { offsetInCU: 0x351C6, offset: 0x351C6, size: 0x8, addend: 0x0, symName: __ZNSt3__13setIiNS_4lessIiEENS_9allocatorIiEEEaSB7v160006ERKS5_, symObjAddr: 0x7C40, symBinAddr: 0x10000AF20, symSize: 0x34 }
  - { offsetInCU: 0x351FA, offset: 0x351FA, size: 0x8, addend: 0x0, symName: __Z7closureRNSt3__18multisetI7LR1ItemNS_4lessIS1_EENS_9allocatorIS1_EEEE, symObjAddr: 0x7C74, symBinAddr: 0x10000AF54, symSize: 0x444 }
  - { offsetInCU: 0x353A2, offset: 0x353A2, size: 0x8, addend: 0x0, symName: __ZNSt3__15queueI7LR1ItemNS_5dequeIS1_NS_9allocatorIS1_EEEEEC1B7v160006Ev, symObjAddr: 0x80B8, symBinAddr: 0x10000B398, symSize: 0x2C }
  - { offsetInCU: 0x353CC, offset: 0x353CC, size: 0x8, addend: 0x0, symName: __ZNSt3__15queueI7LR1ItemNS_5dequeIS1_NS_9allocatorIS1_EEEEE4pushB7v160006ERKS1_, symObjAddr: 0x80E4, symBinAddr: 0x10000B3C4, symSize: 0x2C }
  - { offsetInCU: 0x35401, offset: 0x35401, size: 0x8, addend: 0x0, symName: __ZNKSt3__15queueI7LR1ItemNS_5dequeIS1_NS_9allocatorIS1_EEEEE5emptyB7v160006Ev, symObjAddr: 0x8110, symBinAddr: 0x10000B3F0, symSize: 0x28 }
  - { offsetInCU: 0x35427, offset: 0x35427, size: 0x8, addend: 0x0, symName: __ZNSt3__15queueI7LR1ItemNS_5dequeIS1_NS_9allocatorIS1_EEEEE5frontB7v160006Ev, symObjAddr: 0x8138, symBinAddr: 0x10000B418, symSize: 0x24 }
  - { offsetInCU: 0x3544D, offset: 0x3544D, size: 0x8, addend: 0x0, symName: __ZN7LR1ItemC1ERKS_, symObjAddr: 0x815C, symBinAddr: 0x10000B43C, symSize: 0x34 }
  - { offsetInCU: 0x35482, offset: 0x35482, size: 0x8, addend: 0x0, symName: __ZNSt3__15queueI7LR1ItemNS_5dequeIS1_NS_9allocatorIS1_EEEEE3popB7v160006Ev, symObjAddr: 0x8190, symBinAddr: 0x10000B470, symSize: 0x24 }
  - { offsetInCU: 0x354A8, offset: 0x354A8, size: 0x8, addend: 0x0, symName: __ZNSt3__13mapIiNS_6vectorIiNS_9allocatorIiEEEENS_4lessIiEENS2_INS_4pairIKiS4_EEEEEixEOi, symObjAddr: 0x81B4, symBinAddr: 0x10000B494, symSize: 0x80 }
  - { offsetInCU: 0x354DF, offset: 0x354DF, size: 0x8, addend: 0x0, symName: __ZNSt3__18multisetI7LR1ItemNS_4lessIS1_EENS_9allocatorIS1_EEE6insertB7v160006ERKS1_, symObjAddr: 0x8234, symBinAddr: 0x10000B514, symSize: 0x40 }
  - { offsetInCU: 0x35514, offset: 0x35514, size: 0x8, addend: 0x0, symName: __ZN7LR1ItemD1Ev, symObjAddr: 0x8274, symBinAddr: 0x10000B554, symSize: 0x2C }
  - { offsetInCU: 0x35540, offset: 0x35540, size: 0x8, addend: 0x0, symName: __ZNSt3__15queueI7LR1ItemNS_5dequeIS1_NS_9allocatorIS1_EEEEED1Ev, symObjAddr: 0x82A0, symBinAddr: 0x10000B580, symSize: 0x2C }
  - { offsetInCU: 0x3556C, offset: 0x3556C, size: 0x8, addend: 0x0, symName: __Z15minimizeItemsetNSt3__18multisetI7LR1ItemNS_4lessIS1_EENS_9allocatorIS1_EEEE, symObjAddr: 0x82CC, symBinAddr: 0x10000B5AC, symSize: 0x380 }
  - { offsetInCU: 0x356DF, offset: 0x356DF, size: 0x8, addend: 0x0, symName: __ZNSt3__18multisetI7LR1ItemNS_4lessIS1_EENS_9allocatorIS1_EEEC1B7v160006Ev, symObjAddr: 0x864C, symBinAddr: 0x10000B92C, symSize: 0x2C }
  - { offsetInCU: 0x35709, offset: 0x35709, size: 0x8, addend: 0x0, symName: __ZNSt3__18multisetI7LR1ItemNS_4lessIS1_EENS_9allocatorIS1_EEE5clearB7v160006Ev, symObjAddr: 0x8678, symBinAddr: 0x10000B958, symSize: 0x24 }
  - { offsetInCU: 0x3572F, offset: 0x3572F, size: 0x8, addend: 0x0, symName: __ZNSt3__121__tree_const_iteratorI7LR1ItemPNS_11__tree_nodeIS1_PvEElEC1B7v160006Ev, symObjAddr: 0x869C, symBinAddr: 0x10000B97C, symSize: 0x2C }
  - { offsetInCU: 0x35759, offset: 0x35759, size: 0x8, addend: 0x0, symName: __ZNSt3__18multisetI7LR1ItemNS_4lessIS1_EENS_9allocatorIS1_EEE4findB7v160006ERKS1_, symObjAddr: 0x86C8, symBinAddr: 0x10000B9A8, symSize: 0x40 }
  - { offsetInCU: 0x3578E, offset: 0x3578E, size: 0x8, addend: 0x0, symName: __ZNSt3__18multisetI7LR1ItemNS_4lessIS1_EENS_9allocatorIS1_EEE5eraseB7v160006ENS_21__tree_const_iteratorIS1_PNS_11__tree_nodeIS1_PvEElEE, symObjAddr: 0x8708, symBinAddr: 0x10000B9E8, symSize: 0x48 }
  - { offsetInCU: 0x35802, offset: 0x35802, size: 0x8, addend: 0x0, symName: __ZNSt3__15queueINS_8multisetI7LR1ItemNS_4lessIS2_EENS_9allocatorIS2_EEEENS_5dequeIS7_NS5_IS7_EEEEEC1B7v160006Ev, symObjAddr: 0x8750, symBinAddr: 0x10000BA30, symSize: 0x2C }
  - { offsetInCU: 0x3582C, offset: 0x3582C, size: 0x8, addend: 0x0, symName: __ZNSt3__16vectorI8LR1StateNS_9allocatorIS1_EEEC1B7v160006Ev, symObjAddr: 0x877C, symBinAddr: 0x10000BA5C, symSize: 0x2C }
  - { offsetInCU: 0x35856, offset: 0x35856, size: 0x8, addend: 0x0, symName: __ZNSt3__113unordered_mapIiNS_8multisetI7LR1ItemNS_4lessIS2_EENS_9allocatorIS2_EEEENS_4hashIiEENS_8equal_toIiEENS5_INS_4pairIKiS7_EEEEEC1B7v160006Ev, symObjAddr: 0x87A8, symBinAddr: 0x10000BA88, symSize: 0x2C }
  - { offsetInCU: 0x35880, offset: 0x35880, size: 0x8, addend: 0x0, symName: __ZNSt3__13setIiNS_4lessIiEENS_9allocatorIiEEE6insertB7v160006EOi, symObjAddr: 0x87D4, symBinAddr: 0x10000BAB4, symSize: 0x4C }
  - { offsetInCU: 0x358B5, offset: 0x358B5, size: 0x8, addend: 0x0, symName: __ZNSt3__15queueINS_8multisetI7LR1ItemNS_4lessIS2_EENS_9allocatorIS2_EEEENS_5dequeIS7_NS5_IS7_EEEEE4pushB7v160006ERKS7_, symObjAddr: 0x8820, symBinAddr: 0x10000BB00, symSize: 0x2C }
  - { offsetInCU: 0x358EF, offset: 0x358EF, size: 0x8, addend: 0x0, symName: __ZN8LR1StateC1Ev, symObjAddr: 0x884C, symBinAddr: 0x10000BB2C, symSize: 0x2C }
  - { offsetInCU: 0x3591B, offset: 0x3591B, size: 0x8, addend: 0x0, symName: __ZNSt3__18multisetI7LR1ItemNS_4lessIS1_EENS_9allocatorIS1_EEEaSB7v160006ERKS6_, symObjAddr: 0x8878, symBinAddr: 0x10000BB58, symSize: 0x34 }
  - { offsetInCU: 0x35950, offset: 0x35950, size: 0x8, addend: 0x0, symName: __ZNSt3__16vectorI8LR1StateNS_9allocatorIS1_EEE9push_backB7v160006ERKS1_, symObjAddr: 0x88AC, symBinAddr: 0x10000BB8C, symSize: 0x6C }
  - { offsetInCU: 0x35987, offset: 0x35987, size: 0x8, addend: 0x0, symName: __ZNKSt3__15queueINS_8multisetI7LR1ItemNS_4lessIS2_EENS_9allocatorIS2_EEEENS_5dequeIS7_NS5_IS7_EEEEE5emptyB7v160006Ev, symObjAddr: 0x8918, symBinAddr: 0x10000BBF8, symSize: 0x28 }
  - { offsetInCU: 0x359AD, offset: 0x359AD, size: 0x8, addend: 0x0, symName: __ZNSt3__15queueINS_8multisetI7LR1ItemNS_4lessIS2_EENS_9allocatorIS2_EEEENS_5dequeIS7_NS5_IS7_EEEEE5frontB7v160006Ev, symObjAddr: 0x8940, symBinAddr: 0x10000BC20, symSize: 0x24 }
  - { offsetInCU: 0x359D3, offset: 0x359D3, size: 0x8, addend: 0x0, symName: __ZNSt3__15queueINS_8multisetI7LR1ItemNS_4lessIS2_EENS_9allocatorIS2_EEEENS_5dequeIS7_NS5_IS7_EEEEE3popB7v160006Ev, symObjAddr: 0x8964, symBinAddr: 0x10000BC44, symSize: 0x24 }
  - { offsetInCU: 0x359F9, offset: 0x359F9, size: 0x8, addend: 0x0, symName: __ZNSt3__113unordered_mapIiNS_8multisetI7LR1ItemNS_4lessIS2_EENS_9allocatorIS2_EEEENS_4hashIiEENS_8equal_toIiEENS5_INS_4pairIKiS7_EEEEE5clearB7v160006Ev, symObjAddr: 0x8988, symBinAddr: 0x10000BC68, symSize: 0x24 }
  - { offsetInCU: 0x35A1F, offset: 0x35A1F, size: 0x8, addend: 0x0, symName: __ZNSt3__16vectorIiNS_9allocatorIiEEEC1Em, symObjAddr: 0x89AC, symBinAddr: 0x10000BC8C, symSize: 0x34 }
  - { offsetInCU: 0x35A5A, offset: 0x35A5A, size: 0x8, addend: 0x0, symName: __ZNSt3__16vectorINS0_IiNS_9allocatorIiEEEENS1_IS3_EEE9push_backB7v160006ERKS3_, symObjAddr: 0x89E0, symBinAddr: 0x10000BCC0, symSize: 0x6C }
  - { offsetInCU: 0x35A91, offset: 0x35A91, size: 0x8, addend: 0x0, symName: __ZNSt3__16vectorI8LR1StateNS_9allocatorIS1_EEE5beginB7v160006Ev, symObjAddr: 0x8A4C, symBinAddr: 0x10000BD2C, symSize: 0x30 }
  - { offsetInCU: 0x35AB9, offset: 0x35AB9, size: 0x8, addend: 0x0, symName: __ZNSt3__16vectorI8LR1StateNS_9allocatorIS1_EEE3endB7v160006Ev, symObjAddr: 0x8AB0, symBinAddr: 0x10000BD90, symSize: 0x30 }
  - { offsetInCU: 0x35AE1, offset: 0x35AE1, size: 0x8, addend: 0x0, symName: __ZNKSt3__111__wrap_iterIP8LR1StateEptB7v160006Ev, symObjAddr: 0x8AE0, symBinAddr: 0x10000BDC0, symSize: 0x28 }
  - { offsetInCU: 0x35B07, offset: 0x35B07, size: 0x8, addend: 0x0, symName: __ZNSt3__111__wrap_iterIP8LR1StateEppB7v160006Ei, symObjAddr: 0x8B08, symBinAddr: 0x10000BDE8, symSize: 0x34 }
  - { offsetInCU: 0x35B45, offset: 0x35B45, size: 0x8, addend: 0x0, symName: __ZNSt3__16vectorINS0_IiNS_9allocatorIiEEEENS1_IS3_EEEixB7v160006Em, symObjAddr: 0x8B3C, symBinAddr: 0x10000BE1C, symSize: 0x2C }
  - { offsetInCU: 0x35B7C, offset: 0x35B7C, size: 0x8, addend: 0x0, symName: __ZNSt3__113unordered_mapIiNS_8multisetI7LR1ItemNS_4lessIS2_EENS_9allocatorIS2_EEEENS_4hashIiEENS_8equal_toIiEENS5_INS_4pairIKiS7_EEEEEixEOi, symObjAddr: 0x8B68, symBinAddr: 0x10000BE48, symSize: 0x80 }
  - { offsetInCU: 0x35BB3, offset: 0x35BB3, size: 0x8, addend: 0x0, symName: __ZNSt3__113unordered_mapIiNS_8multisetI7LR1ItemNS_4lessIS2_EENS_9allocatorIS2_EEEENS_4hashIiEENS_8equal_toIiEENS5_INS_4pairIKiS7_EEEEEaSB7v160006ERKSG_, symObjAddr: 0x8BE8, symBinAddr: 0x10000BEC8, symSize: 0x34 }
  - { offsetInCU: 0x35BE8, offset: 0x35BE8, size: 0x8, addend: 0x0, symName: __ZNSt3__113unordered_mapIiNS_8multisetI7LR1ItemNS_4lessIS2_EENS_9allocatorIS2_EEEENS_4hashIiEENS_8equal_toIiEENS5_INS_4pairIKiS7_EEEEE5beginB7v160006Ev, symObjAddr: 0x8C1C, symBinAddr: 0x10000BEFC, symSize: 0x38 }
  - { offsetInCU: 0x35C0E, offset: 0x35C0E, size: 0x8, addend: 0x0, symName: __ZNSt3__113unordered_mapIiNS_8multisetI7LR1ItemNS_4lessIS2_EENS_9allocatorIS2_EEEENS_4hashIiEENS_8equal_toIiEENS5_INS_4pairIKiS7_EEEEE3endB7v160006Ev, symObjAddr: 0x8C54, symBinAddr: 0x10000BF34, symSize: 0x38 }
  - { offsetInCU: 0x35C34, offset: 0x35C34, size: 0x8, addend: 0x0, symName: __ZNKSt3__119__hash_map_iteratorINS_15__hash_iteratorIPNS_11__hash_nodeINS_17__hash_value_typeIiNS_8multisetI7LR1ItemNS_4lessIS5_EENS_9allocatorIS5_EEEEEEPvEEEEEdeB7v160006Ev, symObjAddr: 0x8CBC, symBinAddr: 0x10000BF9C, symSize: 0x28 }
  - { offsetInCU: 0x35C5A, offset: 0x35C5A, size: 0x8, addend: 0x0, symName: __ZNKSt3__111__wrap_iterIP8LR1StateEdeB7v160006Ev, symObjAddr: 0x8CE4, symBinAddr: 0x10000BFC4, symSize: 0x18 }
  - { offsetInCU: 0x35C80, offset: 0x35C80, size: 0x8, addend: 0x0, symName: __ZNSt3__111__wrap_iterIP8LR1StateEppB7v160006Ev, symObjAddr: 0x8CFC, symBinAddr: 0x10000BFDC, symSize: 0x20 }
  - { offsetInCU: 0x35CA6, offset: 0x35CA6, size: 0x8, addend: 0x0, symName: __ZN8LR1StateD1Ev, symObjAddr: 0x8D1C, symBinAddr: 0x10000BFFC, symSize: 0x2C }
  - { offsetInCU: 0x35CD2, offset: 0x35CD2, size: 0x8, addend: 0x0, symName: __ZNSt3__119__hash_map_iteratorINS_15__hash_iteratorIPNS_11__hash_nodeINS_17__hash_value_typeIiNS_8multisetI7LR1ItemNS_4lessIS5_EENS_9allocatorIS5_EEEEEEPvEEEEEppB7v160006Ev, symObjAddr: 0x8D48, symBinAddr: 0x10000C028, symSize: 0x2C }
  - { offsetInCU: 0x35CF8, offset: 0x35CF8, size: 0x8, addend: 0x0, symName: __ZNSt3__113unordered_mapIiNS_8multisetI7LR1ItemNS_4lessIS2_EENS_9allocatorIS2_EEEENS_4hashIiEENS_8equal_toIiEENS5_INS_4pairIKiS7_EEEEED1B7v160006Ev, symObjAddr: 0x8D74, symBinAddr: 0x10000C054, symSize: 0x2C }
  - { offsetInCU: 0x35D22, offset: 0x35D22, size: 0x8, addend: 0x0, symName: __ZNSt3__16vectorI8LR1StateNS_9allocatorIS1_EEED1B7v160006Ev, symObjAddr: 0x8DA0, symBinAddr: 0x10000C080, symSize: 0x2C }
  - { offsetInCU: 0x35D4C, offset: 0x35D4C, size: 0x8, addend: 0x0, symName: __ZNSt3__15queueINS_8multisetI7LR1ItemNS_4lessIS2_EENS_9allocatorIS2_EEEENS_5dequeIS7_NS5_IS7_EEEEED1Ev, symObjAddr: 0x8DCC, symBinAddr: 0x10000C0AC, symSize: 0x2C }
  - { offsetInCU: 0x35D79, offset: 0x35D79, size: 0x8, addend: 0x0, symName: __ZNKSt3__114__map_iteratorINS_15__tree_iteratorINS_12__value_typeINS_12basic_stringIcNS_11char_traitsIcEENS_9allocatorIcEEEEiEEPNS_11__tree_nodeIS9_PvEElEEEdeB7v160006Ev, symObjAddr: 0x8DF8, symBinAddr: 0x10000C0D8, symSize: 0x28 }
  - { offsetInCU: 0x35D9F, offset: 0x35D9F, size: 0x8, addend: 0x0, symName: __ZNSt3__114__map_iteratorINS_15__tree_iteratorINS_12__value_typeINS_12basic_stringIcNS_11char_traitsIcEENS_9allocatorIcEEEEiEEPNS_11__tree_nodeIS9_PvEElEEEppB7v160006Ev, symObjAddr: 0x8E20, symBinAddr: 0x10000C100, symSize: 0x2C }
  - { offsetInCU: 0x35DC4, offset: 0x35DC4, size: 0x8, addend: 0x0, symName: __Z12PrintItemSetRNSt3__18multisetI7LR1ItemNS_4lessIS1_EENS_9allocatorIS1_EEEE, symObjAddr: 0x8E4C, symBinAddr: 0x10000C12C, symSize: 0x3C0 }
  - { offsetInCU: 0x35E95, offset: 0x35E95, size: 0x8, addend: 0x0, symName: __ZNKSt3__16vectorINS0_IiNS_9allocatorIiEEEENS1_IS3_EEE4sizeB7v160006Ev, symObjAddr: 0x920C, symBinAddr: 0x10000C4EC, symSize: 0x28 }
  - { offsetInCU: 0x35EBB, offset: 0x35EBB, size: 0x8, addend: 0x0, symName: __ZNSt3__16vectorINS0_IiNS_9allocatorIiEEEENS1_IS3_EEE5frontB7v160006Ev, symObjAddr: 0x9234, symBinAddr: 0x10000C514, symSize: 0x18 }
  - { offsetInCU: 0x35EE1, offset: 0x35EE1, size: 0x8, addend: 0x0, symName: __ZNSt3__13mapIiiNS_4lessIiEENS_9allocatorINS_4pairIKiiEEEEE5beginB7v160006Ev, symObjAddr: 0x924C, symBinAddr: 0x10000C52C, symSize: 0x38 }
  - { offsetInCU: 0x35F07, offset: 0x35F07, size: 0x8, addend: 0x0, symName: __ZNKSt3__114__map_iteratorINS_15__tree_iteratorINS_12__value_typeIiiEEPNS_11__tree_nodeIS3_PvEElEEEptB7v160006Ev, symObjAddr: 0x9284, symBinAddr: 0x10000C564, symSize: 0x2C }
  - { offsetInCU: 0x35F2D, offset: 0x35F2D, size: 0x8, addend: 0x0, symName: __ZNSt3__114__map_iteratorINS_15__tree_iteratorINS_12__value_typeIiiEEPNS_11__tree_nodeIS3_PvEElEEEppB7v160006Ei, symObjAddr: 0x92B0, symBinAddr: 0x10000C590, symSize: 0x34 }
  - { offsetInCU: 0x35F6D, offset: 0x35F6D, size: 0x8, addend: 0x0, symName: __ZNSt3__114basic_ifstreamIcNS_11char_traitsIcEEED2Ev, symObjAddr: 0x92E4, symBinAddr: 0x10000C5C4, symSize: 0x64 }
  - { offsetInCU: 0x35FA7, offset: 0x35FA7, size: 0x8, addend: 0x0, symName: __ZTv0_n24_NSt3__114basic_ifstreamIcNS_11char_traitsIcEEED1Ev, symObjAddr: 0x9348, symBinAddr: 0x10000C628, symSize: 0x28 }
  - { offsetInCU: 0x35FBE, offset: 0x35FBE, size: 0x8, addend: 0x0, symName: __ZNSt3__114basic_ofstreamIcNS_11char_traitsIcEEED2Ev, symObjAddr: 0x9370, symBinAddr: 0x10000C650, symSize: 0x64 }
  - { offsetInCU: 0x35FF8, offset: 0x35FF8, size: 0x8, addend: 0x0, symName: __ZTv0_n24_NSt3__114basic_ofstreamIcNS_11char_traitsIcEEED1Ev, symObjAddr: 0x93D4, symBinAddr: 0x10000C6B4, symSize: 0x28 }
  - { offsetInCU: 0x3600F, offset: 0x3600F, size: 0x8, addend: 0x0, symName: __ZNSt3__14pairINS_12basic_stringIcNS_11char_traitsIcEENS_9allocatorIcEEEEiEC2B7v160006ILb1ELPv0EEEv, symObjAddr: 0x93FC, symBinAddr: 0x10000C6DC, symSize: 0x30 }
  - { offsetInCU: 0x36049, offset: 0x36049, size: 0x8, addend: 0x0, symName: __ZNSt3__14pairIiiEC2B7v160006ILb1ELPv0EEEv, symObjAddr: 0x942C, symBinAddr: 0x10000C70C, symSize: 0x1C }
  - { offsetInCU: 0x36083, offset: 0x36083, size: 0x8, addend: 0x0, symName: __ZNSt3__14pairINS_12basic_stringIcNS_11char_traitsIcEENS_9allocatorIcEEEEiED2Ev, symObjAddr: 0x9448, symBinAddr: 0x10000C728, symSize: 0x2C }
  - { offsetInCU: 0x360AF, offset: 0x360AF, size: 0x8, addend: 0x0, symName: __ZN8ProducerC2Ev, symObjAddr: 0x9474, symBinAddr: 0x10000C754, symSize: 0x30 }
  - { offsetInCU: 0x360DB, offset: 0x360DB, size: 0x8, addend: 0x0, symName: __ZN8ProducerD2Ev, symObjAddr: 0x94A4, symBinAddr: 0x10000C784, symSize: 0x30 }
  - { offsetInCU: 0x36107, offset: 0x36107, size: 0x8, addend: 0x0, symName: __ZNSt3__14pairIiNS_6vectorIiNS_9allocatorIiEEEEEC2B7v160006ILb1ELPv0EEEv, symObjAddr: 0x94D4, symBinAddr: 0x10000C7B4, symSize: 0x34 }
  - { offsetInCU: 0x36141, offset: 0x36141, size: 0x8, addend: 0x0, symName: __ZNSt3__14pairIiNS_6vectorIiNS_9allocatorIiEEEEED2Ev, symObjAddr: 0x9508, symBinAddr: 0x10000C7E8, symSize: 0x30 }
  - { offsetInCU: 0x3616D, offset: 0x3616D, size: 0x8, addend: 0x0, symName: __ZNSt3__14pairIiNS_12basic_stringIcNS_11char_traitsIcEENS_9allocatorIcEEEEEC2B7v160006ILb1ELPv0EEEv, symObjAddr: 0x9538, symBinAddr: 0x10000C818, symSize: 0x34 }
  - { offsetInCU: 0x361A7, offset: 0x361A7, size: 0x8, addend: 0x0, symName: __ZNSt3__14pairIiNS_12basic_stringIcNS_11char_traitsIcEENS_9allocatorIcEEEEED2Ev, symObjAddr: 0x956C, symBinAddr: 0x10000C84C, symSize: 0x30 }
  - { offsetInCU: 0x361D3, offset: 0x361D3, size: 0x8, addend: 0x0, symName: __ZNKSt3__111__wrap_iterIPiE4baseB7v160006Ev, symObjAddr: 0x95E4, symBinAddr: 0x10000C8C4, symSize: 0x18 }
  - { offsetInCU: 0x361F9, offset: 0x361F9, size: 0x8, addend: 0x0, symName: __ZN7LR1ItemC2ERKS_, symObjAddr: 0x95FC, symBinAddr: 0x10000C8DC, symSize: 0x48 }
  - { offsetInCU: 0x3622E, offset: 0x3622E, size: 0x8, addend: 0x0, symName: __ZNSt3__13setIiNS_4lessIiEENS_9allocatorIiEEEC1B7v160006ERKS5_, symObjAddr: 0x9644, symBinAddr: 0x10000C924, symSize: 0x34 }
  - { offsetInCU: 0x36267, offset: 0x36267, size: 0x8, addend: 0x0, symName: __ZNSt3__13setIiNS_4lessIiEENS_9allocatorIiEEEC2B7v160006ERKS5_, symObjAddr: 0x9678, symBinAddr: 0x10000C958, symSize: 0x88 }
  - { offsetInCU: 0x362A0, offset: 0x362A0, size: 0x8, addend: 0x0, symName: __ZNSt3__16__treeIiNS_4lessIiEENS_9allocatorIiEEEC1ERKS5_, symObjAddr: 0x9700, symBinAddr: 0x10000C9E0, symSize: 0x34 }
  - { offsetInCU: 0x362DB, offset: 0x362DB, size: 0x8, addend: 0x0, symName: __ZNSt3__13setIiNS_4lessIiEENS_9allocatorIiEEE6insertB7v160006INS_21__tree_const_iteratorIiPNS_11__tree_nodeIiPvEElEEEEvT_SD_, symObjAddr: 0x9734, symBinAddr: 0x10000CA14, symSize: 0x80 }
  - { offsetInCU: 0x36345, offset: 0x36345, size: 0x8, addend: 0x0, symName: __ZNSt3__16__treeIiNS_4lessIiEENS_9allocatorIiEEED1Ev, symObjAddr: 0x97B4, symBinAddr: 0x10000CA94, symSize: 0x2C }
  - { offsetInCU: 0x36371, offset: 0x36371, size: 0x8, addend: 0x0, symName: __ZNSt3__16__treeIiNS_4lessIiEENS_9allocatorIiEEEC2ERKS5_, symObjAddr: 0x97E0, symBinAddr: 0x10000CAC0, symSize: 0x9C }
  - { offsetInCU: 0x363B6, offset: 0x363B6, size: 0x8, addend: 0x0, symName: __ZNSt3__116allocator_traitsINS_9allocatorINS_11__tree_nodeIiPvEEEEE37select_on_container_copy_constructionB7v160006IS5_vvEES5_RKS5_, symObjAddr: 0x987C, symBinAddr: 0x10000CB5C, symSize: 0x10 }
  - { offsetInCU: 0x363E5, offset: 0x363E5, size: 0x8, addend: 0x0, symName: __ZNKSt3__16__treeIiNS_4lessIiEENS_9allocatorIiEEE12__node_allocB7v160006Ev, symObjAddr: 0x988C, symBinAddr: 0x10000CB6C, symSize: 0x28 }
  - { offsetInCU: 0x36417, offset: 0x36417, size: 0x8, addend: 0x0, symName: __ZNSt3__117__compressed_pairINS_15__tree_end_nodeIPNS_16__tree_node_baseIPvEEEENS_9allocatorINS_11__tree_nodeIiS3_EEEEEC1B7v160006INS_18__default_init_tagESA_EEOT_OT0_, symObjAddr: 0x98B4, symBinAddr: 0x10000CB94, symSize: 0x3C }
  - { offsetInCU: 0x3646F, offset: 0x3646F, size: 0x8, addend: 0x0, symName: __ZNKSt3__16__treeIiNS_4lessIiEENS_9allocatorIiEEE10value_compB7v160006Ev, symObjAddr: 0x98F0, symBinAddr: 0x10000CBD0, symSize: 0x28 }
  - { offsetInCU: 0x36495, offset: 0x36495, size: 0x8, addend: 0x0, symName: __ZNSt3__117__compressed_pairImNS_4lessIiEEEC1B7v160006IiRKS2_EEOT_OT0_, symObjAddr: 0x9918, symBinAddr: 0x10000CBF8, symSize: 0x3C }
  - { offsetInCU: 0x364ED, offset: 0x364ED, size: 0x8, addend: 0x0, symName: __ZNSt3__16__treeIiNS_4lessIiEENS_9allocatorIiEEE10__end_nodeB7v160006Ev, symObjAddr: 0x9954, symBinAddr: 0x10000CC34, symSize: 0x2C }
  - { offsetInCU: 0x36513, offset: 0x36513, size: 0x8, addend: 0x0, symName: __ZNSt3__16__treeIiNS_4lessIiEENS_9allocatorIiEEE12__begin_nodeB7v160006Ev, symObjAddr: 0x9980, symBinAddr: 0x10000CC60, symSize: 0x14 }
  - { offsetInCU: 0x36539, offset: 0x36539, size: 0x8, addend: 0x0, symName: __ZNKSt3__117__compressed_pairINS_15__tree_end_nodeIPNS_16__tree_node_baseIPvEEEENS_9allocatorINS_11__tree_nodeIiS3_EEEEE6secondB7v160006Ev, symObjAddr: 0x9994, symBinAddr: 0x10000CC74, symSize: 0x24 }
  - { offsetInCU: 0x3655F, offset: 0x3655F, size: 0x8, addend: 0x0, symName: __ZNKSt3__122__compressed_pair_elemINS_9allocatorINS_11__tree_nodeIiPvEEEELi1ELb1EE5__getB7v160006Ev, symObjAddr: 0x99B8, symBinAddr: 0x10000CC98, symSize: 0x14 }
  - { offsetInCU: 0x36585, offset: 0x36585, size: 0x8, addend: 0x0, symName: __ZNSt3__117__compressed_pairINS_15__tree_end_nodeIPNS_16__tree_node_baseIPvEEEENS_9allocatorINS_11__tree_nodeIiS3_EEEEEC2B7v160006INS_18__default_init_tagESA_EEOT_OT0_, symObjAddr: 0x99CC, symBinAddr: 0x10000CCAC, symSize: 0x40 }
  - { offsetInCU: 0x365DD, offset: 0x365DD, size: 0x8, addend: 0x0, symName: __ZNSt3__122__compressed_pair_elemINS_15__tree_end_nodeIPNS_16__tree_node_baseIPvEEEELi0ELb0EEC2B7v160006ENS_18__default_init_tagE, symObjAddr: 0x9A0C, symBinAddr: 0x10000CCEC, symSize: 0x2C }
  - { offsetInCU: 0x36611, offset: 0x36611, size: 0x8, addend: 0x0, symName: __ZNSt3__122__compressed_pair_elemINS_9allocatorINS_11__tree_nodeIiPvEEEELi1ELb1EEC2B7v160006IS5_vEEOT_, symObjAddr: 0x9A38, symBinAddr: 0x10000CD18, symSize: 0x18 }
  - { offsetInCU: 0x36653, offset: 0x36653, size: 0x8, addend: 0x0, symName: __ZNSt3__115__tree_end_nodeIPNS_16__tree_node_baseIPvEEEC1B7v160006Ev, symObjAddr: 0x9A50, symBinAddr: 0x10000CD30, symSize: 0x2C }
  - { offsetInCU: 0x3667D, offset: 0x3667D, size: 0x8, addend: 0x0, symName: __ZNSt3__115__tree_end_nodeIPNS_16__tree_node_baseIPvEEEC2B7v160006Ev, symObjAddr: 0x9A7C, symBinAddr: 0x10000CD5C, symSize: 0x18 }
  - { offsetInCU: 0x366A7, offset: 0x366A7, size: 0x8, addend: 0x0, symName: __ZNKSt3__117__compressed_pairImNS_4lessIiEEE6secondB7v160006Ev, symObjAddr: 0x9A94, symBinAddr: 0x10000CD74, symSize: 0x24 }
  - { offsetInCU: 0x366CD, offset: 0x366CD, size: 0x8, addend: 0x0, symName: __ZNKSt3__122__compressed_pair_elemINS_4lessIiEELi1ELb1EE5__getB7v160006Ev, symObjAddr: 0x9AB8, symBinAddr: 0x10000CD98, symSize: 0x14 }
  - { offsetInCU: 0x366F3, offset: 0x366F3, size: 0x8, addend: 0x0, symName: __ZNSt3__117__compressed_pairImNS_4lessIiEEEC2B7v160006IiRKS2_EEOT_OT0_, symObjAddr: 0x9ACC, symBinAddr: 0x10000CDAC, symSize: 0x44 }
  - { offsetInCU: 0x3674B, offset: 0x3674B, size: 0x8, addend: 0x0, symName: __ZNSt3__122__compressed_pair_elemImLi0ELb0EEC2B7v160006IivEEOT_, symObjAddr: 0x9B10, symBinAddr: 0x10000CDF0, symSize: 0x24 }
  - { offsetInCU: 0x3678D, offset: 0x3678D, size: 0x8, addend: 0x0, symName: __ZNSt3__122__compressed_pair_elemINS_4lessIiEELi1ELb1EEC2B7v160006IRKS2_vEEOT_, symObjAddr: 0x9B34, symBinAddr: 0x10000CE14, symSize: 0x18 }
  - { offsetInCU: 0x367CF, offset: 0x367CF, size: 0x8, addend: 0x0, symName: __ZNSt3__114pointer_traitsIPNS_15__tree_end_nodeIPNS_16__tree_node_baseIPvEEEEE10pointer_toB7v160006ERS6_, symObjAddr: 0x9B4C, symBinAddr: 0x10000CE2C, symSize: 0x14 }
  - { offsetInCU: 0x367F2, offset: 0x367F2, size: 0x8, addend: 0x0, symName: __ZNSt3__117__compressed_pairINS_15__tree_end_nodeIPNS_16__tree_node_baseIPvEEEENS_9allocatorINS_11__tree_nodeIiS3_EEEEE5firstB7v160006Ev, symObjAddr: 0x9B60, symBinAddr: 0x10000CE40, symSize: 0x24 }
  - { offsetInCU: 0x36818, offset: 0x36818, size: 0x8, addend: 0x0, symName: __ZNSt3__122__compressed_pair_elemINS_15__tree_end_nodeIPNS_16__tree_node_baseIPvEEEELi0ELb0EE5__getB7v160006Ev, symObjAddr: 0x9B84, symBinAddr: 0x10000CE64, symSize: 0x14 }
  - { offsetInCU: 0x3683E, offset: 0x3683E, size: 0x8, addend: 0x0, symName: __ZNKSt3__13setIiNS_4lessIiEENS_9allocatorIiEEE4cendB7v160006Ev, symObjAddr: 0x9B98, symBinAddr: 0x10000CE78, symSize: 0x2C }
  - { offsetInCU: 0x36864, offset: 0x36864, size: 0x8, addend: 0x0, symName: __ZNSt3__16__treeIiNS_4lessIiEENS_9allocatorIiEEE15__insert_uniqueB7v160006ENS_21__tree_const_iteratorIiPNS_11__tree_nodeIiPvEElEERKi, symObjAddr: 0x9BC4, symBinAddr: 0x10000CEA4, symSize: 0x64 }
  - { offsetInCU: 0x368A8, offset: 0x368A8, size: 0x8, addend: 0x0, symName: __ZNSt3__16__treeIiNS_4lessIiEENS_9allocatorIiEEE30__emplace_hint_unique_key_argsIiJRKiEEENS_4pairINS_15__tree_iteratorIiPNS_11__tree_nodeIiPvEElEEbEENS_21__tree_const_iteratorIiSE_lEERKT_DpOT0_, symObjAddr: 0x9C28, symBinAddr: 0x10000CF08, symSize: 0x104 }
  - { offsetInCU: 0x36974, offset: 0x36974, size: 0x8, addend: 0x0, symName: __ZNSt3__122__tree_key_value_typesIiE9__get_keyB7v160006ERKi, symObjAddr: 0x9D2C, symBinAddr: 0x10000D00C, symSize: 0x14 }
  - { offsetInCU: 0x36998, offset: 0x36998, size: 0x8, addend: 0x0, symName: __ZNSt3__16__treeIiNS_4lessIiEENS_9allocatorIiEEE12__find_equalIiEERPNS_16__tree_node_baseIPvEENS_21__tree_const_iteratorIiPNS_11__tree_nodeIiS8_EElEERPNS_15__tree_end_nodeISA_EESB_RKT_, symObjAddr: 0x9D40, symBinAddr: 0x10000D020, symSize: 0x304 }
  - { offsetInCU: 0x36A41, offset: 0x36A41, size: 0x8, addend: 0x0, symName: __ZNSt3__16__treeIiNS_4lessIiEENS_9allocatorIiEEE16__construct_nodeIJRKiEEENS_10unique_ptrINS_11__tree_nodeIiPvEENS_22__tree_node_destructorINS3_ISC_EEEEEEDpOT_, symObjAddr: 0xA044, symBinAddr: 0x10000D324, symSize: 0x110 }
  - { offsetInCU: 0x36AA2, offset: 0x36AA2, size: 0x8, addend: 0x0, symName: __ZNSt3__16__treeIiNS_4lessIiEENS_9allocatorIiEEE16__insert_node_atEPNS_15__tree_end_nodeIPNS_16__tree_node_baseIPvEEEERSA_SA_, symObjAddr: 0xA154, symBinAddr: 0x10000D434, symSize: 0xCC }
  - { offsetInCU: 0x36AF7, offset: 0x36AF7, size: 0x8, addend: 0x0, symName: __ZNKSt3__110unique_ptrINS_11__tree_nodeIiPvEENS_22__tree_node_destructorINS_9allocatorIS3_EEEEE3getB7v160006Ev, symObjAddr: 0xA220, symBinAddr: 0x10000D500, symSize: 0x28 }
  - { offsetInCU: 0x36B1D, offset: 0x36B1D, size: 0x8, addend: 0x0, symName: __ZNSt3__110unique_ptrINS_11__tree_nodeIiPvEENS_22__tree_node_destructorINS_9allocatorIS3_EEEEE7releaseB7v160006Ev, symObjAddr: 0xA248, symBinAddr: 0x10000D528, symSize: 0x44 }
  - { offsetInCU: 0x36B52, offset: 0x36B52, size: 0x8, addend: 0x0, symName: __ZNSt3__110unique_ptrINS_11__tree_nodeIiPvEENS_22__tree_node_destructorINS_9allocatorIS3_EEEEED1B7v160006Ev, symObjAddr: 0xA28C, symBinAddr: 0x10000D56C, symSize: 0x2C }
  - { offsetInCU: 0x36B7C, offset: 0x36B7C, size: 0x8, addend: 0x0, symName: __ZNSt3__115__tree_iteratorIiPNS_11__tree_nodeIiPvEElEC1B7v160006ES4_, symObjAddr: 0xA2B8, symBinAddr: 0x10000D598, symSize: 0x34 }
  - { offsetInCU: 0x36BBB, offset: 0x36BBB, size: 0x8, addend: 0x0, symName: __ZNSt3__14pairINS_15__tree_iteratorIiPNS_11__tree_nodeIiPvEElEEbEC1B7v160006IS6_RbLS3_0EEEOT_OT0_, symObjAddr: 0xA2EC, symBinAddr: 0x10000D5CC, symSize: 0x3C }
  - { offsetInCU: 0x36C19, offset: 0x36C19, size: 0x8, addend: 0x0, symName: __ZNSt3__16__treeIiNS_4lessIiEENS_9allocatorIiEEE3endB7v160006Ev, symObjAddr: 0xA328, symBinAddr: 0x10000D608, symSize: 0x34 }
  - { offsetInCU: 0x36C3F, offset: 0x36C3F, size: 0x8, addend: 0x0, symName: __ZNSt3__121__tree_const_iteratorIiPNS_11__tree_nodeIiPvEElEC1B7v160006ENS_15__tree_iteratorIiS4_lEE, symObjAddr: 0xA35C, symBinAddr: 0x10000D63C, symSize: 0x34 }
  - { offsetInCU: 0x36C78, offset: 0x36C78, size: 0x8, addend: 0x0, symName: __ZNSt3__16__treeIiNS_4lessIiEENS_9allocatorIiEEE10value_compB7v160006Ev, symObjAddr: 0xA390, symBinAddr: 0x10000D670, symSize: 0x28 }
  - { offsetInCU: 0x36C9E, offset: 0x36C9E, size: 0x8, addend: 0x0, symName: __ZNKSt3__14lessIiEclB7v160006ERKiS3_, symObjAddr: 0xA3B8, symBinAddr: 0x10000D698, symSize: 0x34 }
  - { offsetInCU: 0x36CE2, offset: 0x36CE2, size: 0x8, addend: 0x0, symName: __ZNSt3__16__treeIiNS_4lessIiEENS_9allocatorIiEEE5beginB7v160006Ev, symObjAddr: 0xA3EC, symBinAddr: 0x10000D6CC, symSize: 0x34 }
  - { offsetInCU: 0x36D08, offset: 0x36D08, size: 0x8, addend: 0x0, symName: __ZNSt3__121__tree_const_iteratorIiPNS_11__tree_nodeIiPvEElEmmB7v160006Ev, symObjAddr: 0xA420, symBinAddr: 0x10000D700, symSize: 0x38 }
  - { offsetInCU: 0x36D2E, offset: 0x36D2E, size: 0x8, addend: 0x0, symName: __ZNSt3__16__treeIiNS_4lessIiEENS_9allocatorIiEEE12__find_equalIiEERPNS_16__tree_node_baseIPvEERPNS_15__tree_end_nodeISA_EERKT_, symObjAddr: 0xA458, symBinAddr: 0x10000D738, symSize: 0x184 }
  - { offsetInCU: 0x36D9B, offset: 0x36D9B, size: 0x8, addend: 0x0, symName: __ZNKSt3__121__tree_const_iteratorIiPNS_11__tree_nodeIiPvEElE8__get_npB7v160006Ev, symObjAddr: 0xA62C, symBinAddr: 0x10000D90C, symSize: 0x18 }
  - { offsetInCU: 0x36DC1, offset: 0x36DC1, size: 0x8, addend: 0x0, symName: __ZNSt3__115__tree_iteratorIiPNS_11__tree_nodeIiPvEElEC1B7v160006EPNS_15__tree_end_nodeIPNS_16__tree_node_baseIS2_EEEE, symObjAddr: 0xA644, symBinAddr: 0x10000D924, symSize: 0x34 }
  - { offsetInCU: 0x36DFA, offset: 0x36DFA, size: 0x8, addend: 0x0, symName: __ZNSt3__115__tree_iteratorIiPNS_11__tree_nodeIiPvEElEC2B7v160006EPNS_15__tree_end_nodeIPNS_16__tree_node_baseIS2_EEEE, symObjAddr: 0xA678, symBinAddr: 0x10000D958, symSize: 0x20 }
  - { offsetInCU: 0x36E33, offset: 0x36E33, size: 0x8, addend: 0x0, symName: __ZNSt3__121__tree_const_iteratorIiPNS_11__tree_nodeIiPvEElEC2B7v160006ENS_15__tree_iteratorIiS4_lEE, symObjAddr: 0xA698, symBinAddr: 0x10000D978, symSize: 0x20 }
  - { offsetInCU: 0x36E6C, offset: 0x36E6C, size: 0x8, addend: 0x0, symName: __ZNSt3__117__compressed_pairImNS_4lessIiEEE6secondB7v160006Ev, symObjAddr: 0xA6B8, symBinAddr: 0x10000D998, symSize: 0x24 }
  - { offsetInCU: 0x36E92, offset: 0x36E92, size: 0x8, addend: 0x0, symName: __ZNSt3__122__compressed_pair_elemINS_4lessIiEELi1ELb1EE5__getB7v160006Ev, symObjAddr: 0xA6DC, symBinAddr: 0x10000D9BC, symSize: 0x14 }
  - { offsetInCU: 0x36EB8, offset: 0x36EB8, size: 0x8, addend: 0x0, symName: __ZNKSt3__116__tree_node_baseIPvE15__parent_unsafeB7v160006Ev, symObjAddr: 0xA800, symBinAddr: 0x10000DAE0, symSize: 0x18 }
  - { offsetInCU: 0x36EDE, offset: 0x36EDE, size: 0x8, addend: 0x0, symName: __ZNKSt3__16__treeIiNS_4lessIiEENS_9allocatorIiEEE6__rootB7v160006Ev, symObjAddr: 0xA824, symBinAddr: 0x10000DB04, symSize: 0x28 }
  - { offsetInCU: 0x36F04, offset: 0x36F04, size: 0x8, addend: 0x0, symName: __ZNKSt3__16__treeIiNS_4lessIiEENS_9allocatorIiEEE10__root_ptrEv, symObjAddr: 0xA84C, symBinAddr: 0x10000DB2C, symSize: 0x24 }
  - { offsetInCU: 0x36F2A, offset: 0x36F2A, size: 0x8, addend: 0x0, symName: __ZNKSt3__16__treeIiNS_4lessIiEENS_9allocatorIiEEE10__end_nodeB7v160006Ev, symObjAddr: 0xA870, symBinAddr: 0x10000DB50, symSize: 0x2C }
  - { offsetInCU: 0x36F50, offset: 0x36F50, size: 0x8, addend: 0x0, symName: __ZNKSt3__117__compressed_pairINS_15__tree_end_nodeIPNS_16__tree_node_baseIPvEEEENS_9allocatorINS_11__tree_nodeIiS3_EEEEE5firstB7v160006Ev, symObjAddr: 0xA89C, symBinAddr: 0x10000DB7C, symSize: 0x24 }
  - { offsetInCU: 0x36F76, offset: 0x36F76, size: 0x8, addend: 0x0, symName: __ZNKSt3__122__compressed_pair_elemINS_15__tree_end_nodeIPNS_16__tree_node_baseIPvEEEELi0ELb0EE5__getB7v160006Ev, symObjAddr: 0xA8C0, symBinAddr: 0x10000DBA0, symSize: 0x14 }
  - { offsetInCU: 0x36F9C, offset: 0x36F9C, size: 0x8, addend: 0x0, symName: __ZNSt3__16__treeIiNS_4lessIiEENS_9allocatorIiEEE12__node_allocB7v160006Ev, symObjAddr: 0xA9DC, symBinAddr: 0x10000DCBC, symSize: 0x28 }
  - { offsetInCU: 0x36FC2, offset: 0x36FC2, size: 0x8, addend: 0x0, symName: __ZNSt3__116allocator_traitsINS_9allocatorINS_11__tree_nodeIiPvEEEEE8allocateB7v160006ERS5_m, symObjAddr: 0xAA04, symBinAddr: 0x10000DCE4, symSize: 0x2C }
  - { offsetInCU: 0x36FF5, offset: 0x36FF5, size: 0x8, addend: 0x0, symName: __ZNSt3__122__tree_node_destructorINS_9allocatorINS_11__tree_nodeIiPvEEEEEC1B7v160006ERS5_b, symObjAddr: 0xAA30, symBinAddr: 0x10000DD10, symSize: 0x48 }
  - { offsetInCU: 0x37043, offset: 0x37043, size: 0x8, addend: 0x0, symName: __ZNSt3__110unique_ptrINS_11__tree_nodeIiPvEENS_22__tree_node_destructorINS_9allocatorIS3_EEEEEC1B7v160006ILb1EvEEPS3_NS_16__dependent_typeINS_27__unique_ptr_deleter_sfinaeIS7_EEXT_EE20__good_rval_ref_typeE, symObjAddr: 0xAA78, symBinAddr: 0x10000DD58, symSize: 0x3C }
  - { offsetInCU: 0x37094, offset: 0x37094, size: 0x8, addend: 0x0, symName: __ZNSt3__116allocator_traitsINS_9allocatorINS_11__tree_nodeIiPvEEEEE9constructB7v160006IiJRKiEvEEvRS5_PT_DpOT0_, symObjAddr: 0xAAB4, symBinAddr: 0x10000DD94, symSize: 0x34 }
  - { offsetInCU: 0x370EB, offset: 0x370EB, size: 0x8, addend: 0x0, symName: __ZNSt3__122__tree_key_value_typesIiE9__get_ptrB7v160006ERi, symObjAddr: 0xAAE8, symBinAddr: 0x10000DDC8, symSize: 0x14 }
  - { offsetInCU: 0x3710F, offset: 0x3710F, size: 0x8, addend: 0x0, symName: __ZNKSt3__110unique_ptrINS_11__tree_nodeIiPvEENS_22__tree_node_destructorINS_9allocatorIS3_EEEEEptB7v160006Ev, symObjAddr: 0xAAFC, symBinAddr: 0x10000DDDC, symSize: 0x28 }
  - { offsetInCU: 0x37135, offset: 0x37135, size: 0x8, addend: 0x0, symName: __ZNSt3__110unique_ptrINS_11__tree_nodeIiPvEENS_22__tree_node_destructorINS_9allocatorIS3_EEEEE11get_deleterB7v160006Ev, symObjAddr: 0xAB24, symBinAddr: 0x10000DE04, symSize: 0x24 }
  - { offsetInCU: 0x3715B, offset: 0x3715B, size: 0x8, addend: 0x0, symName: __ZNSt3__117__compressed_pairINS_15__tree_end_nodeIPNS_16__tree_node_baseIPvEEEENS_9allocatorINS_11__tree_nodeIiS3_EEEEE6secondB7v160006Ev, symObjAddr: 0xAB48, symBinAddr: 0x10000DE28, symSize: 0x24 }
  - { offsetInCU: 0x37181, offset: 0x37181, size: 0x8, addend: 0x0, symName: __ZNSt3__122__compressed_pair_elemINS_9allocatorINS_11__tree_nodeIiPvEEEELi1ELb1EE5__getB7v160006Ev, symObjAddr: 0xAB6C, symBinAddr: 0x10000DE4C, symSize: 0x14 }
  - { offsetInCU: 0x371A7, offset: 0x371A7, size: 0x8, addend: 0x0, symName: __ZNSt3__19allocatorINS_11__tree_nodeIiPvEEE8allocateB7v160006Em, symObjAddr: 0xAB80, symBinAddr: 0x10000DE60, symSize: 0x58 }
  - { offsetInCU: 0x371DB, offset: 0x371DB, size: 0x8, addend: 0x0, symName: __ZNSt3__116allocator_traitsINS_9allocatorINS_11__tree_nodeIiPvEEEEE8max_sizeB7v160006IS5_vEEmRKS5_, symObjAddr: 0xABD8, symBinAddr: 0x10000DEB8, symSize: 0x24 }
  - { offsetInCU: 0x37209, offset: 0x37209, size: 0x8, addend: 0x0, symName: __ZNKSt3__19allocatorINS_11__tree_nodeIiPvEEE8max_sizeB7v160006Ev, symObjAddr: 0xAC58, symBinAddr: 0x10000DF38, symSize: 0x14 }
  - { offsetInCU: 0x3722F, offset: 0x3722F, size: 0x8, addend: 0x0, symName: __ZNSt3__122__tree_node_destructorINS_9allocatorINS_11__tree_nodeIiPvEEEEEC2B7v160006ERS5_b, symObjAddr: 0xAC90, symBinAddr: 0x10000DF70, symSize: 0x38 }
  - { offsetInCU: 0x37277, offset: 0x37277, size: 0x8, addend: 0x0, symName: __ZNSt3__110unique_ptrINS_11__tree_nodeIiPvEENS_22__tree_node_destructorINS_9allocatorIS3_EEEEEC2B7v160006ILb1EvEEPS3_NS_16__dependent_typeINS_27__unique_ptr_deleter_sfinaeIS7_EEXT_EE20__good_rval_ref_typeE, symObjAddr: 0xACC8, symBinAddr: 0x10000DFA8, symSize: 0x48 }
  - { offsetInCU: 0x372C8, offset: 0x372C8, size: 0x8, addend: 0x0, symName: __ZNSt3__117__compressed_pairIPNS_11__tree_nodeIiPvEENS_22__tree_node_destructorINS_9allocatorIS3_EEEEEC1B7v160006IRS4_S8_EEOT_OT0_, symObjAddr: 0xAD10, symBinAddr: 0x10000DFF0, symSize: 0x3C }
  - { offsetInCU: 0x37320, offset: 0x37320, size: 0x8, addend: 0x0, symName: __ZNSt3__117__compressed_pairIPNS_11__tree_nodeIiPvEENS_22__tree_node_destructorINS_9allocatorIS3_EEEEEC2B7v160006IRS4_S8_EEOT_OT0_, symObjAddr: 0xAD4C, symBinAddr: 0x10000E02C, symSize: 0x48 }
  - { offsetInCU: 0x37378, offset: 0x37378, size: 0x8, addend: 0x0, symName: __ZNSt3__122__compressed_pair_elemIPNS_11__tree_nodeIiPvEELi0ELb0EEC2B7v160006IRS4_vEEOT_, symObjAddr: 0xAD94, symBinAddr: 0x10000E074, symSize: 0x24 }
  - { offsetInCU: 0x373BA, offset: 0x373BA, size: 0x8, addend: 0x0, symName: __ZNSt3__122__compressed_pair_elemINS_22__tree_node_destructorINS_9allocatorINS_11__tree_nodeIiPvEEEEEELi1ELb0EEC2B7v160006IS7_vEEOT_, symObjAddr: 0xADB8, symBinAddr: 0x10000E098, symSize: 0x24 }
  - { offsetInCU: 0x373FC, offset: 0x373FC, size: 0x8, addend: 0x0, symName: __ZNSt3__19allocatorINS_11__tree_nodeIiPvEEE9constructB7v160006IiJRKiEEEvPT_DpOT0_, symObjAddr: 0xADDC, symBinAddr: 0x10000E0BC, symSize: 0x28 }
  - { offsetInCU: 0x37452, offset: 0x37452, size: 0x8, addend: 0x0, symName: __ZNKSt3__117__compressed_pairIPNS_11__tree_nodeIiPvEENS_22__tree_node_destructorINS_9allocatorIS3_EEEEE5firstB7v160006Ev, symObjAddr: 0xAE04, symBinAddr: 0x10000E0E4, symSize: 0x24 }
  - { offsetInCU: 0x37478, offset: 0x37478, size: 0x8, addend: 0x0, symName: __ZNKSt3__122__compressed_pair_elemIPNS_11__tree_nodeIiPvEELi0ELb0EE5__getB7v160006Ev, symObjAddr: 0xAE28, symBinAddr: 0x10000E108, symSize: 0x14 }
  - { offsetInCU: 0x3749E, offset: 0x3749E, size: 0x8, addend: 0x0, symName: __ZNSt3__117__compressed_pairIPNS_11__tree_nodeIiPvEENS_22__tree_node_destructorINS_9allocatorIS3_EEEEE6secondB7v160006Ev, symObjAddr: 0xAE3C, symBinAddr: 0x10000E11C, symSize: 0x28 }
  - { offsetInCU: 0x374C4, offset: 0x374C4, size: 0x8, addend: 0x0, symName: __ZNSt3__122__compressed_pair_elemINS_22__tree_node_destructorINS_9allocatorINS_11__tree_nodeIiPvEEEEEELi1ELb0EE5__getB7v160006Ev, symObjAddr: 0xAE64, symBinAddr: 0x10000E144, symSize: 0x14 }
  - { offsetInCU: 0x374EA, offset: 0x374EA, size: 0x8, addend: 0x0, symName: __ZNSt3__16__treeIiNS_4lessIiEENS_9allocatorIiEEE4sizeB7v160006Ev, symObjAddr: 0xB0F4, symBinAddr: 0x10000E3D4, symSize: 0x28 }
  - { offsetInCU: 0x37510, offset: 0x37510, size: 0x8, addend: 0x0, symName: __ZNSt3__116__tree_node_baseIPvE12__set_parentB7v160006EPS2_, symObjAddr: 0xB2C0, symBinAddr: 0x10000E5A0, symSize: 0x20 }
  - { offsetInCU: 0x37545, offset: 0x37545, size: 0x8, addend: 0x0, symName: __ZNSt3__117__compressed_pairImNS_4lessIiEEE5firstB7v160006Ev, symObjAddr: 0xB2E0, symBinAddr: 0x10000E5C0, symSize: 0x24 }
  - { offsetInCU: 0x3756B, offset: 0x3756B, size: 0x8, addend: 0x0, symName: __ZNSt3__122__compressed_pair_elemImLi0ELb0EE5__getB7v160006Ev, symObjAddr: 0xB304, symBinAddr: 0x10000E5E4, symSize: 0x14 }
  - { offsetInCU: 0x37591, offset: 0x37591, size: 0x8, addend: 0x0, symName: __ZNSt3__117__compressed_pairIPNS_11__tree_nodeIiPvEENS_22__tree_node_destructorINS_9allocatorIS3_EEEEE5firstB7v160006Ev, symObjAddr: 0xB318, symBinAddr: 0x10000E5F8, symSize: 0x24 }
  - { offsetInCU: 0x375B7, offset: 0x375B7, size: 0x8, addend: 0x0, symName: __ZNSt3__122__compressed_pair_elemIPNS_11__tree_nodeIiPvEELi0ELb0EE5__getB7v160006Ev, symObjAddr: 0xB33C, symBinAddr: 0x10000E61C, symSize: 0x14 }
  - { offsetInCU: 0x375DD, offset: 0x375DD, size: 0x8, addend: 0x0, symName: __ZNSt3__110unique_ptrINS_11__tree_nodeIiPvEENS_22__tree_node_destructorINS_9allocatorIS3_EEEEED2B7v160006Ev, symObjAddr: 0xB350, symBinAddr: 0x10000E630, symSize: 0x30 }
  - { offsetInCU: 0x37607, offset: 0x37607, size: 0x8, addend: 0x0, symName: __ZNSt3__110unique_ptrINS_11__tree_nodeIiPvEENS_22__tree_node_destructorINS_9allocatorIS3_EEEEE5resetB7v160006EPS3_, symObjAddr: 0xB380, symBinAddr: 0x10000E660, symSize: 0x78 }
  - { offsetInCU: 0x3764B, offset: 0x3764B, size: 0x8, addend: 0x0, symName: __ZNSt3__122__tree_node_destructorINS_9allocatorINS_11__tree_nodeIiPvEEEEEclB7v160006EPS4_, symObjAddr: 0xB3F8, symBinAddr: 0x10000E6D8, symSize: 0x90 }
  - { offsetInCU: 0x37680, offset: 0x37680, size: 0x8, addend: 0x0, symName: __ZNSt3__116allocator_traitsINS_9allocatorINS_11__tree_nodeIiPvEEEEE7destroyB7v160006IivvEEvRS5_PT_, symObjAddr: 0xB488, symBinAddr: 0x10000E768, symSize: 0x14 }
  - { offsetInCU: 0x376BA, offset: 0x376BA, size: 0x8, addend: 0x0, symName: __ZNSt3__116allocator_traitsINS_9allocatorINS_11__tree_nodeIiPvEEEEE10deallocateB7v160006ERS5_PS4_m, symObjAddr: 0xB49C, symBinAddr: 0x10000E77C, symSize: 0x34 }
  - { offsetInCU: 0x376FC, offset: 0x376FC, size: 0x8, addend: 0x0, symName: __ZNSt3__19allocatorINS_11__tree_nodeIiPvEEE10deallocateB7v160006EPS3_m, symObjAddr: 0xB4D0, symBinAddr: 0x10000E7B0, symSize: 0x40 }
  - { offsetInCU: 0x3773E, offset: 0x3773E, size: 0x8, addend: 0x0, symName: __ZNSt3__115__tree_iteratorIiPNS_11__tree_nodeIiPvEElEC2B7v160006ES4_, symObjAddr: 0xB58C, symBinAddr: 0x10000E86C, symSize: 0x20 }
  - { offsetInCU: 0x37777, offset: 0x37777, size: 0x8, addend: 0x0, symName: __ZNSt3__14pairINS_15__tree_iteratorIiPNS_11__tree_nodeIiPvEElEEbEC2B7v160006IS6_RbLS3_0EEEOT_OT0_, symObjAddr: 0xB5AC, symBinAddr: 0x10000E88C, symSize: 0x38 }
  - { offsetInCU: 0x377D5, offset: 0x377D5, size: 0x8, addend: 0x0, symName: __ZNSt3__16__treeIiNS_4lessIiEENS_9allocatorIiEEED2Ev, symObjAddr: 0xB5E4, symBinAddr: 0x10000E8C4, symSize: 0x38 }
  - { offsetInCU: 0x37801, offset: 0x37801, size: 0x8, addend: 0x0, symName: __ZNSt3__16__treeIiNS_4lessIiEENS_9allocatorIiEEE7destroyEPNS_11__tree_nodeIiPvEE, symObjAddr: 0xB61C, symBinAddr: 0x10000E8FC, symSize: 0x9C }
  - { offsetInCU: 0x37855, offset: 0x37855, size: 0x8, addend: 0x0, symName: __ZN7LR1ItemD2Ev, symObjAddr: 0xB6B8, symBinAddr: 0x10000E998, symSize: 0x30 }
  - { offsetInCU: 0x37881, offset: 0x37881, size: 0x8, addend: 0x0, symName: __ZNSt3__15queueI7LR1ItemNS_5dequeIS1_NS_9allocatorIS1_EEEEED2Ev, symObjAddr: 0xB6E8, symBinAddr: 0x10000E9C8, symSize: 0x2C }
  - { offsetInCU: 0x378AE, offset: 0x378AE, size: 0x8, addend: 0x0, symName: __ZNSt3__15dequeI7LR1ItemNS_9allocatorIS1_EEED1B7v160006Ev, symObjAddr: 0xB714, symBinAddr: 0x10000E9F4, symSize: 0x2C }
  - { offsetInCU: 0x378D8, offset: 0x378D8, size: 0x8, addend: 0x0, symName: __ZNSt3__15dequeI7LR1ItemNS_9allocatorIS1_EEED2B7v160006Ev, symObjAddr: 0xB740, symBinAddr: 0x10000EA20, symSize: 0x9C }
  - { offsetInCU: 0x3792E, offset: 0x3792E, size: 0x8, addend: 0x0, symName: __ZNSt3__15dequeI7LR1ItemNS_9allocatorIS1_EEE5clearEv, symObjAddr: 0xB7DC, symBinAddr: 0x10000EABC, symSize: 0x180 }
  - { offsetInCU: 0x37989, offset: 0x37989, size: 0x8, addend: 0x0, symName: __ZNSt3__114__split_bufferIP7LR1ItemNS_9allocatorIS2_EEE5beginB7v160006Ev, symObjAddr: 0xB95C, symBinAddr: 0x10000EC3C, symSize: 0x18 }
  - { offsetInCU: 0x379AF, offset: 0x379AF, size: 0x8, addend: 0x0, symName: __ZNSt3__114__split_bufferIP7LR1ItemNS_9allocatorIS2_EEE3endB7v160006Ev, symObjAddr: 0xB974, symBinAddr: 0x10000EC54, symSize: 0x18 }
  - { offsetInCU: 0x379D5, offset: 0x379D5, size: 0x8, addend: 0x0, symName: __ZNSt3__116allocator_traitsINS_9allocatorI7LR1ItemEEE10deallocateB7v160006ERS3_PS2_m, symObjAddr: 0xB98C, symBinAddr: 0x10000EC6C, symSize: 0x34 }
  - { offsetInCU: 0x37A17, offset: 0x37A17, size: 0x8, addend: 0x0, symName: __ZNSt3__15dequeI7LR1ItemNS_9allocatorIS1_EEE7__allocB7v160006Ev, symObjAddr: 0xB9C0, symBinAddr: 0x10000ECA0, symSize: 0x28 }
  - { offsetInCU: 0x37A3D, offset: 0x37A3D, size: 0x8, addend: 0x0, symName: __ZNSt3__114__split_bufferIP7LR1ItemNS_9allocatorIS2_EEED1Ev, symObjAddr: 0xB9E8, symBinAddr: 0x10000ECC8, symSize: 0x2C }
  - { offsetInCU: 0x37A69, offset: 0x37A69, size: 0x8, addend: 0x0, symName: __ZNSt3__15dequeI7LR1ItemNS_9allocatorIS1_EEE5beginB7v160006Ev, symObjAddr: 0xBA14, symBinAddr: 0x10000ECF4, symSize: 0xB8 }
  - { offsetInCU: 0x37A9E, offset: 0x37A9E, size: 0x8, addend: 0x0, symName: __ZNSt3__15dequeI7LR1ItemNS_9allocatorIS1_EEE3endB7v160006Ev, symObjAddr: 0xBACC, symBinAddr: 0x10000EDAC, symSize: 0xBC }
  - { offsetInCU: 0x37AE2, offset: 0x37AE2, size: 0x8, addend: 0x0, symName: __ZNSt3__116allocator_traitsINS_9allocatorI7LR1ItemEEE7destroyB7v160006IS2_vEEvRS3_PT_, symObjAddr: 0xBBBC, symBinAddr: 0x10000EE9C, symSize: 0x2C }
  - { offsetInCU: 0x37B1F, offset: 0x37B1F, size: 0x8, addend: 0x0, symName: __ZNKSt3__116__deque_iteratorI7LR1ItemPS1_RS1_PS2_lLl128EEdeB7v160006Ev, symObjAddr: 0xBBE8, symBinAddr: 0x10000EEC8, symSize: 0x18 }
  - { offsetInCU: 0x37B45, offset: 0x37B45, size: 0x8, addend: 0x0, symName: __ZNSt3__116__deque_iteratorI7LR1ItemPS1_RS1_PS2_lLl128EEppB7v160006Ev, symObjAddr: 0xBC00, symBinAddr: 0x10000EEE0, symSize: 0x70 }
  - { offsetInCU: 0x37B6B, offset: 0x37B6B, size: 0x8, addend: 0x0, symName: __ZNSt3__15dequeI7LR1ItemNS_9allocatorIS1_EEE6__sizeB7v160006Ev, symObjAddr: 0xBC70, symBinAddr: 0x10000EF50, symSize: 0x28 }
  - { offsetInCU: 0x37B91, offset: 0x37B91, size: 0x8, addend: 0x0, symName: __ZNKSt3__114__split_bufferIP7LR1ItemNS_9allocatorIS2_EEE4sizeB7v160006Ev, symObjAddr: 0xBC98, symBinAddr: 0x10000EF78, symSize: 0x28 }
  - { offsetInCU: 0x37BB7, offset: 0x37BB7, size: 0x8, addend: 0x0, symName: __ZNSt3__114__split_bufferIP7LR1ItemNS_9allocatorIS2_EEE5frontB7v160006Ev, symObjAddr: 0xBCC0, symBinAddr: 0x10000EFA0, symSize: 0x18 }
  - { offsetInCU: 0x37BDD, offset: 0x37BDD, size: 0x8, addend: 0x0, symName: __ZNSt3__114__split_bufferIP7LR1ItemNS_9allocatorIS2_EEE9pop_frontB7v160006Ev, symObjAddr: 0xBCD8, symBinAddr: 0x10000EFB8, symSize: 0x2C }
  - { offsetInCU: 0x37C03, offset: 0x37C03, size: 0x8, addend: 0x0, symName: __ZNKSt3__114__split_bufferIP7LR1ItemNS_9allocatorIS2_EEE5emptyB7v160006Ev, symObjAddr: 0xBD04, symBinAddr: 0x10000EFE4, symSize: 0x28 }
  - { offsetInCU: 0x37C29, offset: 0x37C29, size: 0x8, addend: 0x0, symName: __ZNSt3__116__deque_iteratorI7LR1ItemPS1_RS1_PS2_lLl128EEC1B7v160006ES4_S2_, symObjAddr: 0xBD2C, symBinAddr: 0x10000F00C, symSize: 0x3C }
  - { offsetInCU: 0x37C71, offset: 0x37C71, size: 0x8, addend: 0x0, symName: __ZNSt3__116__deque_iteratorI7LR1ItemPS1_RS1_PS2_lLl128EEC2B7v160006ES4_S2_, symObjAddr: 0xBD68, symBinAddr: 0x10000F048, symSize: 0x2C }
  - { offsetInCU: 0x37CB9, offset: 0x37CB9, size: 0x8, addend: 0x0, symName: __ZNKSt3__15dequeI7LR1ItemNS_9allocatorIS1_EEE4sizeB7v160006Ev, symObjAddr: 0xBD94, symBinAddr: 0x10000F074, symSize: 0x28 }
  - { offsetInCU: 0x37CDF, offset: 0x37CDF, size: 0x8, addend: 0x0, symName: __ZNKSt3__15dequeI7LR1ItemNS_9allocatorIS1_EEE6__sizeB7v160006Ev, symObjAddr: 0xBDBC, symBinAddr: 0x10000F09C, symSize: 0x28 }
  - { offsetInCU: 0x37D05, offset: 0x37D05, size: 0x8, addend: 0x0, symName: __ZNKSt3__117__compressed_pairImNS_9allocatorI7LR1ItemEEE5firstB7v160006Ev, symObjAddr: 0xBDE4, symBinAddr: 0x10000F0C4, symSize: 0x24 }
  - { offsetInCU: 0x37D2B, offset: 0x37D2B, size: 0x8, addend: 0x0, symName: __ZNKSt3__122__compressed_pair_elemImLi0ELb0EE5__getB7v160006Ev, symObjAddr: 0xBE08, symBinAddr: 0x10000F0E8, symSize: 0x14 }
  - { offsetInCU: 0x37D51, offset: 0x37D51, size: 0x8, addend: 0x0, symName: __ZNSt3__19allocatorI7LR1ItemE7destroyB7v160006EPS1_, symObjAddr: 0xBE4C, symBinAddr: 0x10000F12C, symSize: 0x28 }
  - { offsetInCU: 0x37D85, offset: 0x37D85, size: 0x8, addend: 0x0, symName: __ZNSt3__117__compressed_pairImNS_9allocatorI7LR1ItemEEE5firstB7v160006Ev, symObjAddr: 0xBE74, symBinAddr: 0x10000F154, symSize: 0x24 }
  - { offsetInCU: 0x37DAB, offset: 0x37DAB, size: 0x8, addend: 0x0, symName: __ZNSt3__114__split_bufferIP7LR1ItemNS_9allocatorIS2_EEE19__destruct_at_beginB7v160006EPS2_, symObjAddr: 0xBE98, symBinAddr: 0x10000F178, symSize: 0x2C }
  - { offsetInCU: 0x37DDF, offset: 0x37DDF, size: 0x8, addend: 0x0, symName: __ZNSt3__114__split_bufferIP7LR1ItemNS_9allocatorIS2_EEE19__destruct_at_beginEPS2_NS_17integral_constantIbLb1EEE, symObjAddr: 0xBEC4, symBinAddr: 0x10000F1A4, symSize: 0x20 }
  - { offsetInCU: 0x37E1F, offset: 0x37E1F, size: 0x8, addend: 0x0, symName: __ZNSt3__19allocatorI7LR1ItemE10deallocateB7v160006EPS1_m, symObjAddr: 0xBEE4, symBinAddr: 0x10000F1C4, symSize: 0x40 }
  - { offsetInCU: 0x37E61, offset: 0x37E61, size: 0x8, addend: 0x0, symName: __ZNSt3__117__compressed_pairImNS_9allocatorI7LR1ItemEEE6secondB7v160006Ev, symObjAddr: 0xBF24, symBinAddr: 0x10000F204, symSize: 0x24 }
  - { offsetInCU: 0x37E87, offset: 0x37E87, size: 0x8, addend: 0x0, symName: __ZNSt3__122__compressed_pair_elemINS_9allocatorI7LR1ItemEELi1ELb1EE5__getB7v160006Ev, symObjAddr: 0xBF48, symBinAddr: 0x10000F228, symSize: 0x14 }
  - { offsetInCU: 0x37EAD, offset: 0x37EAD, size: 0x8, addend: 0x0, symName: __ZNSt3__114__split_bufferIP7LR1ItemNS_9allocatorIS2_EEED2Ev, symObjAddr: 0xBF5C, symBinAddr: 0x10000F23C, symSize: 0x8C }
  - { offsetInCU: 0x37ED9, offset: 0x37ED9, size: 0x8, addend: 0x0, symName: __ZNSt3__114__split_bufferIP7LR1ItemNS_9allocatorIS2_EEE5clearB7v160006Ev, symObjAddr: 0xBFE8, symBinAddr: 0x10000F2C8, symSize: 0x28 }
  - { offsetInCU: 0x37EFF, offset: 0x37EFF, size: 0x8, addend: 0x0, symName: __ZNSt3__116allocator_traitsINS_9allocatorIP7LR1ItemEEE10deallocateB7v160006ERS4_PS3_m, symObjAddr: 0xC010, symBinAddr: 0x10000F2F0, symSize: 0x34 }
  - { offsetInCU: 0x37F41, offset: 0x37F41, size: 0x8, addend: 0x0, symName: __ZNSt3__114__split_bufferIP7LR1ItemNS_9allocatorIS2_EEE7__allocB7v160006Ev, symObjAddr: 0xC044, symBinAddr: 0x10000F324, symSize: 0x28 }
  - { offsetInCU: 0x37F67, offset: 0x37F67, size: 0x8, addend: 0x0, symName: __ZNKSt3__114__split_bufferIP7LR1ItemNS_9allocatorIS2_EEE8capacityB7v160006Ev, symObjAddr: 0xC06C, symBinAddr: 0x10000F34C, symSize: 0x40 }
  - { offsetInCU: 0x37F8D, offset: 0x37F8D, size: 0x8, addend: 0x0, symName: __ZNSt3__114__split_bufferIP7LR1ItemNS_9allocatorIS2_EEE17__destruct_at_endB7v160006EPS2_, symObjAddr: 0xC0AC, symBinAddr: 0x10000F38C, symSize: 0x2C }
  - { offsetInCU: 0x37FC1, offset: 0x37FC1, size: 0x8, addend: 0x0, symName: __ZNSt3__114__split_bufferIP7LR1ItemNS_9allocatorIS2_EEE17__destruct_at_endB7v160006EPS2_NS_17integral_constantIbLb0EEE, symObjAddr: 0xC0D8, symBinAddr: 0x10000F3B8, symSize: 0x80 }
  - { offsetInCU: 0x38001, offset: 0x38001, size: 0x8, addend: 0x0, symName: __ZNSt3__116allocator_traitsINS_9allocatorIP7LR1ItemEEE7destroyB7v160006IS3_vEEvRS4_PT_, symObjAddr: 0xC158, symBinAddr: 0x10000F438, symSize: 0x2C }
  - { offsetInCU: 0x3803E, offset: 0x3803E, size: 0x8, addend: 0x0, symName: __ZNSt3__19allocatorIP7LR1ItemE7destroyB7v160006EPS2_, symObjAddr: 0xC198, symBinAddr: 0x10000F478, symSize: 0x14 }
  - { offsetInCU: 0x38072, offset: 0x38072, size: 0x8, addend: 0x0, symName: __ZNSt3__19allocatorIP7LR1ItemE10deallocateB7v160006EPS2_m, symObjAddr: 0xC1AC, symBinAddr: 0x10000F48C, symSize: 0x40 }
  - { offsetInCU: 0x380B4, offset: 0x380B4, size: 0x8, addend: 0x0, symName: __ZNSt3__117__compressed_pairIPP7LR1ItemNS_9allocatorIS2_EEE6secondB7v160006Ev, symObjAddr: 0xC1EC, symBinAddr: 0x10000F4CC, symSize: 0x24 }
  - { offsetInCU: 0x380DA, offset: 0x380DA, size: 0x8, addend: 0x0, symName: __ZNSt3__122__compressed_pair_elemINS_9allocatorIP7LR1ItemEELi1ELb1EE5__getB7v160006Ev, symObjAddr: 0xC210, symBinAddr: 0x10000F4F0, symSize: 0x14 }
  - { offsetInCU: 0x38100, offset: 0x38100, size: 0x8, addend: 0x0, symName: __ZNKSt3__114__split_bufferIP7LR1ItemNS_9allocatorIS2_EEE9__end_capB7v160006Ev, symObjAddr: 0xC224, symBinAddr: 0x10000F504, symSize: 0x28 }
  - { offsetInCU: 0x38126, offset: 0x38126, size: 0x8, addend: 0x0, symName: __ZNKSt3__117__compressed_pairIPP7LR1ItemNS_9allocatorIS2_EEE5firstB7v160006Ev, symObjAddr: 0xC24C, symBinAddr: 0x10000F52C, symSize: 0x24 }
  - { offsetInCU: 0x3814C, offset: 0x3814C, size: 0x8, addend: 0x0, symName: __ZNKSt3__122__compressed_pair_elemIPP7LR1ItemLi0ELb0EE5__getB7v160006Ev, symObjAddr: 0xC270, symBinAddr: 0x10000F550, symSize: 0x14 }
  - { offsetInCU: 0x38172, offset: 0x38172, size: 0x8, addend: 0x0, symName: __ZN8LR1StateC2Ev, symObjAddr: 0xC284, symBinAddr: 0x10000F564, symSize: 0x3C }
  - { offsetInCU: 0x3819E, offset: 0x3819E, size: 0x8, addend: 0x0, symName: __ZNKSt3__111__wrap_iterIP8LR1StateE4baseB7v160006Ev, symObjAddr: 0xC308, symBinAddr: 0x10000F5E8, symSize: 0x18 }
  - { offsetInCU: 0x381C4, offset: 0x381C4, size: 0x8, addend: 0x0, symName: __ZN8LR1StateD2Ev, symObjAddr: 0xC320, symBinAddr: 0x10000F600, symSize: 0x3C }
  - { offsetInCU: 0x381F0, offset: 0x381F0, size: 0x8, addend: 0x0, symName: __ZNSt3__15queueINS_8multisetI7LR1ItemNS_4lessIS2_EENS_9allocatorIS2_EEEENS_5dequeIS7_NS5_IS7_EEEEED2Ev, symObjAddr: 0xC35C, symBinAddr: 0x10000F63C, symSize: 0x2C }
  - { offsetInCU: 0x3821D, offset: 0x3821D, size: 0x8, addend: 0x0, symName: __ZNSt3__15dequeINS_8multisetI7LR1ItemNS_4lessIS2_EENS_9allocatorIS2_EEEENS5_IS7_EEED1B7v160006Ev, symObjAddr: 0xC388, symBinAddr: 0x10000F668, symSize: 0x2C }
  - { offsetInCU: 0x38247, offset: 0x38247, size: 0x8, addend: 0x0, symName: __ZNSt3__15dequeINS_8multisetI7LR1ItemNS_4lessIS2_EENS_9allocatorIS2_EEEENS5_IS7_EEED2B7v160006Ev, symObjAddr: 0xC3B4, symBinAddr: 0x10000F694, symSize: 0x9C }
  - { offsetInCU: 0x3829D, offset: 0x3829D, size: 0x8, addend: 0x0, symName: __ZNSt3__15dequeINS_8multisetI7LR1ItemNS_4lessIS2_EENS_9allocatorIS2_EEEENS5_IS7_EEE5clearEv, symObjAddr: 0xC450, symBinAddr: 0x10000F730, symSize: 0x180 }
  - { offsetInCU: 0x382F8, offset: 0x382F8, size: 0x8, addend: 0x0, symName: __ZNSt3__114__split_bufferIPNS_8multisetI7LR1ItemNS_4lessIS2_EENS_9allocatorIS2_EEEENS5_IS8_EEE5beginB7v160006Ev, symObjAddr: 0xC5D0, symBinAddr: 0x10000F8B0, symSize: 0x18 }
  - { offsetInCU: 0x3831E, offset: 0x3831E, size: 0x8, addend: 0x0, symName: __ZNSt3__114__split_bufferIPNS_8multisetI7LR1ItemNS_4lessIS2_EENS_9allocatorIS2_EEEENS5_IS8_EEE3endB7v160006Ev, symObjAddr: 0xC5E8, symBinAddr: 0x10000F8C8, symSize: 0x18 }
  - { offsetInCU: 0x38344, offset: 0x38344, size: 0x8, addend: 0x0, symName: __ZNSt3__116allocator_traitsINS_9allocatorINS_8multisetI7LR1ItemNS_4lessIS3_EENS1_IS3_EEEEEEE10deallocateB7v160006ERS8_PS7_m, symObjAddr: 0xC600, symBinAddr: 0x10000F8E0, symSize: 0x34 }
  - { offsetInCU: 0x38386, offset: 0x38386, size: 0x8, addend: 0x0, symName: __ZNSt3__15dequeINS_8multisetI7LR1ItemNS_4lessIS2_EENS_9allocatorIS2_EEEENS5_IS7_EEE7__allocB7v160006Ev, symObjAddr: 0xC634, symBinAddr: 0x10000F914, symSize: 0x28 }
  - { offsetInCU: 0x383AC, offset: 0x383AC, size: 0x8, addend: 0x0, symName: __ZNSt3__114__split_bufferIPNS_8multisetI7LR1ItemNS_4lessIS2_EENS_9allocatorIS2_EEEENS5_IS8_EEED1Ev, symObjAddr: 0xC65C, symBinAddr: 0x10000F93C, symSize: 0x2C }
  - { offsetInCU: 0x383D8, offset: 0x383D8, size: 0x8, addend: 0x0, symName: __ZNSt3__15dequeINS_8multisetI7LR1ItemNS_4lessIS2_EENS_9allocatorIS2_EEEENS5_IS7_EEE5beginB7v160006Ev, symObjAddr: 0xC688, symBinAddr: 0x10000F968, symSize: 0xC0 }
  - { offsetInCU: 0x3840D, offset: 0x3840D, size: 0x8, addend: 0x0, symName: __ZNSt3__15dequeINS_8multisetI7LR1ItemNS_4lessIS2_EENS_9allocatorIS2_EEEENS5_IS7_EEE3endB7v160006Ev, symObjAddr: 0xC748, symBinAddr: 0x10000FA28, symSize: 0xC4 }
  - { offsetInCU: 0x38451, offset: 0x38451, size: 0x8, addend: 0x0, symName: __ZNSt3__116allocator_traitsINS_9allocatorINS_8multisetI7LR1ItemNS_4lessIS3_EENS1_IS3_EEEEEEE7destroyB7v160006IS7_vEEvRS8_PT_, symObjAddr: 0xC840, symBinAddr: 0x10000FB20, symSize: 0x2C }
  - { offsetInCU: 0x3848E, offset: 0x3848E, size: 0x8, addend: 0x0, symName: __ZNKSt3__116__deque_iteratorINS_8multisetI7LR1ItemNS_4lessIS2_EENS_9allocatorIS2_EEEEPS7_RS7_PS8_lLl170EEdeB7v160006Ev, symObjAddr: 0xC86C, symBinAddr: 0x10000FB4C, symSize: 0x18 }
  - { offsetInCU: 0x384B4, offset: 0x384B4, size: 0x8, addend: 0x0, symName: __ZNSt3__116__deque_iteratorINS_8multisetI7LR1ItemNS_4lessIS2_EENS_9allocatorIS2_EEEEPS7_RS7_PS8_lLl170EEppB7v160006Ev, symObjAddr: 0xC884, symBinAddr: 0x10000FB64, symSize: 0x70 }
  - { offsetInCU: 0x384DA, offset: 0x384DA, size: 0x8, addend: 0x0, symName: __ZNSt3__15dequeINS_8multisetI7LR1ItemNS_4lessIS2_EENS_9allocatorIS2_EEEENS5_IS7_EEE6__sizeB7v160006Ev, symObjAddr: 0xC8F4, symBinAddr: 0x10000FBD4, symSize: 0x28 }
  - { offsetInCU: 0x38500, offset: 0x38500, size: 0x8, addend: 0x0, symName: __ZNKSt3__114__split_bufferIPNS_8multisetI7LR1ItemNS_4lessIS2_EENS_9allocatorIS2_EEEENS5_IS8_EEE4sizeB7v160006Ev, symObjAddr: 0xC91C, symBinAddr: 0x10000FBFC, symSize: 0x28 }
  - { offsetInCU: 0x38526, offset: 0x38526, size: 0x8, addend: 0x0, symName: __ZNSt3__114__split_bufferIPNS_8multisetI7LR1ItemNS_4lessIS2_EENS_9allocatorIS2_EEEENS5_IS8_EEE5frontB7v160006Ev, symObjAddr: 0xC944, symBinAddr: 0x10000FC24, symSize: 0x18 }
  - { offsetInCU: 0x3854C, offset: 0x3854C, size: 0x8, addend: 0x0, symName: __ZNSt3__114__split_bufferIPNS_8multisetI7LR1ItemNS_4lessIS2_EENS_9allocatorIS2_EEEENS5_IS8_EEE9pop_frontB7v160006Ev, symObjAddr: 0xC95C, symBinAddr: 0x10000FC3C, symSize: 0x2C }
  - { offsetInCU: 0x38572, offset: 0x38572, size: 0x8, addend: 0x0, symName: __ZNKSt3__114__split_bufferIPNS_8multisetI7LR1ItemNS_4lessIS2_EENS_9allocatorIS2_EEEENS5_IS8_EEE5emptyB7v160006Ev, symObjAddr: 0xC988, symBinAddr: 0x10000FC68, symSize: 0x28 }
  - { offsetInCU: 0x38598, offset: 0x38598, size: 0x8, addend: 0x0, symName: __ZNSt3__116__deque_iteratorINS_8multisetI7LR1ItemNS_4lessIS2_EENS_9allocatorIS2_EEEEPS7_RS7_PS8_lLl170EEC1B7v160006ESA_S8_, symObjAddr: 0xC9B0, symBinAddr: 0x10000FC90, symSize: 0x3C }
  - { offsetInCU: 0x385E0, offset: 0x385E0, size: 0x8, addend: 0x0, symName: __ZNSt3__116__deque_iteratorINS_8multisetI7LR1ItemNS_4lessIS2_EENS_9allocatorIS2_EEEEPS7_RS7_PS8_lLl170EEC2B7v160006ESA_S8_, symObjAddr: 0xC9EC, symBinAddr: 0x10000FCCC, symSize: 0x2C }
  - { offsetInCU: 0x38628, offset: 0x38628, size: 0x8, addend: 0x0, symName: __ZNKSt3__15dequeINS_8multisetI7LR1ItemNS_4lessIS2_EENS_9allocatorIS2_EEEENS5_IS7_EEE4sizeB7v160006Ev, symObjAddr: 0xCA18, symBinAddr: 0x10000FCF8, symSize: 0x28 }
  - { offsetInCU: 0x3864E, offset: 0x3864E, size: 0x8, addend: 0x0, symName: __ZNKSt3__15dequeINS_8multisetI7LR1ItemNS_4lessIS2_EENS_9allocatorIS2_EEEENS5_IS7_EEE6__sizeB7v160006Ev, symObjAddr: 0xCA40, symBinAddr: 0x10000FD20, symSize: 0x28 }
  - { offsetInCU: 0x38674, offset: 0x38674, size: 0x8, addend: 0x0, symName: __ZNKSt3__117__compressed_pairImNS_9allocatorINS_8multisetI7LR1ItemNS_4lessIS3_EENS1_IS3_EEEEEEE5firstB7v160006Ev, symObjAddr: 0xCA68, symBinAddr: 0x10000FD48, symSize: 0x24 }
  - { offsetInCU: 0x3869A, offset: 0x3869A, size: 0x8, addend: 0x0, symName: __ZNSt3__19allocatorINS_8multisetI7LR1ItemNS_4lessIS2_EENS0_IS2_EEEEE7destroyB7v160006EPS6_, symObjAddr: 0xCABC, symBinAddr: 0x10000FD9C, symSize: 0x28 }
  - { offsetInCU: 0x386CE, offset: 0x386CE, size: 0x8, addend: 0x0, symName: __ZNSt3__117__compressed_pairImNS_9allocatorINS_8multisetI7LR1ItemNS_4lessIS3_EENS1_IS3_EEEEEEE5firstB7v160006Ev, symObjAddr: 0xCAE4, symBinAddr: 0x10000FDC4, symSize: 0x24 }
  - { offsetInCU: 0x386F4, offset: 0x386F4, size: 0x8, addend: 0x0, symName: __ZNSt3__114__split_bufferIPNS_8multisetI7LR1ItemNS_4lessIS2_EENS_9allocatorIS2_EEEENS5_IS8_EEE19__destruct_at_beginB7v160006EPS8_, symObjAddr: 0xCB08, symBinAddr: 0x10000FDE8, symSize: 0x2C }
  - { offsetInCU: 0x38728, offset: 0x38728, size: 0x8, addend: 0x0, symName: __ZNSt3__114__split_bufferIPNS_8multisetI7LR1ItemNS_4lessIS2_EENS_9allocatorIS2_EEEENS5_IS8_EEE19__destruct_at_beginEPS8_NS_17integral_constantIbLb1EEE, symObjAddr: 0xCB34, symBinAddr: 0x10000FE14, symSize: 0x20 }
  - { offsetInCU: 0x38768, offset: 0x38768, size: 0x8, addend: 0x0, symName: __ZNSt3__19allocatorINS_8multisetI7LR1ItemNS_4lessIS2_EENS0_IS2_EEEEE10deallocateB7v160006EPS6_m, symObjAddr: 0xCB54, symBinAddr: 0x10000FE34, symSize: 0x44 }
  - { offsetInCU: 0x387AA, offset: 0x387AA, size: 0x8, addend: 0x0, symName: __ZNSt3__117__compressed_pairImNS_9allocatorINS_8multisetI7LR1ItemNS_4lessIS3_EENS1_IS3_EEEEEEE6secondB7v160006Ev, symObjAddr: 0xCB98, symBinAddr: 0x10000FE78, symSize: 0x24 }
  - { offsetInCU: 0x387D0, offset: 0x387D0, size: 0x8, addend: 0x0, symName: __ZNSt3__122__compressed_pair_elemINS_9allocatorINS_8multisetI7LR1ItemNS_4lessIS3_EENS1_IS3_EEEEEELi1ELb1EE5__getB7v160006Ev, symObjAddr: 0xCBBC, symBinAddr: 0x10000FE9C, symSize: 0x14 }
  - { offsetInCU: 0x387F6, offset: 0x387F6, size: 0x8, addend: 0x0, symName: __ZNSt3__114__split_bufferIPNS_8multisetI7LR1ItemNS_4lessIS2_EENS_9allocatorIS2_EEEENS5_IS8_EEED2Ev, symObjAddr: 0xCBD0, symBinAddr: 0x10000FEB0, symSize: 0x8C }
  - { offsetInCU: 0x38822, offset: 0x38822, size: 0x8, addend: 0x0, symName: __ZNSt3__114__split_bufferIPNS_8multisetI7LR1ItemNS_4lessIS2_EENS_9allocatorIS2_EEEENS5_IS8_EEE5clearB7v160006Ev, symObjAddr: 0xCC5C, symBinAddr: 0x10000FF3C, symSize: 0x28 }
  - { offsetInCU: 0x38848, offset: 0x38848, size: 0x8, addend: 0x0, symName: __ZNSt3__116allocator_traitsINS_9allocatorIPNS_8multisetI7LR1ItemNS_4lessIS3_EENS1_IS3_EEEEEEE10deallocateB7v160006ERS9_PS8_m, symObjAddr: 0xCC84, symBinAddr: 0x10000FF64, symSize: 0x34 }
  - { offsetInCU: 0x3888A, offset: 0x3888A, size: 0x8, addend: 0x0, symName: __ZNSt3__114__split_bufferIPNS_8multisetI7LR1ItemNS_4lessIS2_EENS_9allocatorIS2_EEEENS5_IS8_EEE7__allocB7v160006Ev, symObjAddr: 0xCCB8, symBinAddr: 0x10000FF98, symSize: 0x28 }
  - { offsetInCU: 0x388B0, offset: 0x388B0, size: 0x8, addend: 0x0, symName: __ZNKSt3__114__split_bufferIPNS_8multisetI7LR1ItemNS_4lessIS2_EENS_9allocatorIS2_EEEENS5_IS8_EEE8capacityB7v160006Ev, symObjAddr: 0xCCE0, symBinAddr: 0x10000FFC0, symSize: 0x40 }
  - { offsetInCU: 0x388D6, offset: 0x388D6, size: 0x8, addend: 0x0, symName: __ZNSt3__114__split_bufferIPNS_8multisetI7LR1ItemNS_4lessIS2_EENS_9allocatorIS2_EEEENS5_IS8_EEE17__destruct_at_endB7v160006EPS8_, symObjAddr: 0xCD20, symBinAddr: 0x100010000, symSize: 0x2C }
  - { offsetInCU: 0x3890A, offset: 0x3890A, size: 0x8, addend: 0x0, symName: __ZNSt3__114__split_bufferIPNS_8multisetI7LR1ItemNS_4lessIS2_EENS_9allocatorIS2_EEEENS5_IS8_EEE17__destruct_at_endB7v160006EPS8_NS_17integral_constantIbLb0EEE, symObjAddr: 0xCD4C, symBinAddr: 0x10001002C, symSize: 0x80 }
  - { offsetInCU: 0x3894A, offset: 0x3894A, size: 0x8, addend: 0x0, symName: __ZNSt3__116allocator_traitsINS_9allocatorIPNS_8multisetI7LR1ItemNS_4lessIS3_EENS1_IS3_EEEEEEE7destroyB7v160006IS8_vEEvRS9_PT_, symObjAddr: 0xCDCC, symBinAddr: 0x1000100AC, symSize: 0x2C }
  - { offsetInCU: 0x38987, offset: 0x38987, size: 0x8, addend: 0x0, symName: __ZNSt3__19allocatorIPNS_8multisetI7LR1ItemNS_4lessIS2_EENS0_IS2_EEEEE7destroyB7v160006EPS7_, symObjAddr: 0xCE0C, symBinAddr: 0x1000100EC, symSize: 0x14 }
  - { offsetInCU: 0x389BB, offset: 0x389BB, size: 0x8, addend: 0x0, symName: __ZNSt3__19allocatorIPNS_8multisetI7LR1ItemNS_4lessIS2_EENS0_IS2_EEEEE10deallocateB7v160006EPS7_m, symObjAddr: 0xCE20, symBinAddr: 0x100010100, symSize: 0x40 }
  - { offsetInCU: 0x389FD, offset: 0x389FD, size: 0x8, addend: 0x0, symName: __ZNSt3__117__compressed_pairIPPNS_8multisetI7LR1ItemNS_4lessIS2_EENS_9allocatorIS2_EEEENS5_IS8_EEE6secondB7v160006Ev, symObjAddr: 0xCE60, symBinAddr: 0x100010140, symSize: 0x24 }
  - { offsetInCU: 0x38A23, offset: 0x38A23, size: 0x8, addend: 0x0, symName: __ZNSt3__122__compressed_pair_elemINS_9allocatorIPNS_8multisetI7LR1ItemNS_4lessIS3_EENS1_IS3_EEEEEELi1ELb1EE5__getB7v160006Ev, symObjAddr: 0xCE84, symBinAddr: 0x100010164, symSize: 0x14 }
  - { offsetInCU: 0x38A49, offset: 0x38A49, size: 0x8, addend: 0x0, symName: __ZNKSt3__114__split_bufferIPNS_8multisetI7LR1ItemNS_4lessIS2_EENS_9allocatorIS2_EEEENS5_IS8_EEE9__end_capB7v160006Ev, symObjAddr: 0xCE98, symBinAddr: 0x100010178, symSize: 0x28 }
  - { offsetInCU: 0x38A6F, offset: 0x38A6F, size: 0x8, addend: 0x0, symName: __ZNKSt3__117__compressed_pairIPPNS_8multisetI7LR1ItemNS_4lessIS2_EENS_9allocatorIS2_EEEENS5_IS8_EEE5firstB7v160006Ev, symObjAddr: 0xCEC0, symBinAddr: 0x1000101A0, symSize: 0x24 }
  - { offsetInCU: 0x38A95, offset: 0x38A95, size: 0x8, addend: 0x0, symName: __ZNKSt3__122__compressed_pair_elemIPPNS_8multisetI7LR1ItemNS_4lessIS2_EENS_9allocatorIS2_EEEELi0ELb0EE5__getB7v160006Ev, symObjAddr: 0xCEE4, symBinAddr: 0x1000101C4, symSize: 0x14 }
  - { offsetInCU: 0x38ABB, offset: 0x38ABB, size: 0x8, addend: 0x0, symName: __ZNSt3__112basic_stringIcNS_11char_traitsIcEENS_9allocatorIcEEEC2B7v160006Ev, symObjAddr: 0xCEF8, symBinAddr: 0x1000101D8, symSize: 0x54 }
  - { offsetInCU: 0x38AE5, offset: 0x38AE5, size: 0x8, addend: 0x0, symName: __ZNSt3__117__compressed_pairINS_12basic_stringIcNS_11char_traitsIcEENS_9allocatorIcEEE5__repES5_EC1B7v160006INS_18__default_init_tagESA_EEOT_OT0_, symObjAddr: 0xCF4C, symBinAddr: 0x10001022C, symSize: 0x3C }
  - { offsetInCU: 0x38B3D, offset: 0x38B3D, size: 0x8, addend: 0x0, symName: __ZNSt3__112basic_stringIcNS_11char_traitsIcEENS_9allocatorIcEEE14__default_initB7v160006Ev, symObjAddr: 0xCF98, symBinAddr: 0x100010278, symSize: 0x40 }
  - { offsetInCU: 0x38B63, offset: 0x38B63, size: 0x8, addend: 0x0, symName: __ZNSt3__117__compressed_pairINS_12basic_stringIcNS_11char_traitsIcEENS_9allocatorIcEEE5__repES5_EC2B7v160006INS_18__default_init_tagESA_EEOT_OT0_, symObjAddr: 0xCFD8, symBinAddr: 0x1000102B8, symSize: 0x3C }
  - { offsetInCU: 0x38BBB, offset: 0x38BBB, size: 0x8, addend: 0x0, symName: __ZNSt3__122__compressed_pair_elemINS_12basic_stringIcNS_11char_traitsIcEENS_9allocatorIcEEE5__repELi0ELb0EEC2B7v160006ENS_18__default_init_tagE, symObjAddr: 0xD014, symBinAddr: 0x1000102F4, symSize: 0x14 }
  - { offsetInCU: 0x38BEF, offset: 0x38BEF, size: 0x8, addend: 0x0, symName: __ZNSt3__122__compressed_pair_elemINS_9allocatorIcEELi1ELb1EEC2B7v160006ENS_18__default_init_tagE, symObjAddr: 0xD028, symBinAddr: 0x100010308, symSize: 0x2C }
  - { offsetInCU: 0x38C23, offset: 0x38C23, size: 0x8, addend: 0x0, symName: __ZNSt3__19allocatorIcEC2B7v160006Ev, symObjAddr: 0xD054, symBinAddr: 0x100010334, symSize: 0x2C }
  - { offsetInCU: 0x38C4D, offset: 0x38C4D, size: 0x8, addend: 0x0, symName: __ZNSt3__116__non_trivial_ifILb1ENS_9allocatorIcEEEC2B7v160006Ev, symObjAddr: 0xD080, symBinAddr: 0x100010360, symSize: 0x14 }
  - { offsetInCU: 0x38C77, offset: 0x38C77, size: 0x8, addend: 0x0, symName: __ZNSt3__117__compressed_pairINS_12basic_stringIcNS_11char_traitsIcEENS_9allocatorIcEEE5__repES5_E5firstB7v160006Ev, symObjAddr: 0xD094, symBinAddr: 0x100010374, symSize: 0x24 }
  - { offsetInCU: 0x38C9D, offset: 0x38C9D, size: 0x8, addend: 0x0, symName: __ZNSt3__122__compressed_pair_elemINS_12basic_stringIcNS_11char_traitsIcEENS_9allocatorIcEEE5__repELi0ELb0EE5__getB7v160006Ev, symObjAddr: 0xD0B8, symBinAddr: 0x100010398, symSize: 0x14 }
  - { offsetInCU: 0x38CC3, offset: 0x38CC3, size: 0x8, addend: 0x0, symName: __ZNSt3__112basic_stringIcNS_11char_traitsIcEENS_9allocatorIcEEE13__move_assignB7v160006ERS5_NS_17integral_constantIbLb1EEE, symObjAddr: 0xD0CC, symBinAddr: 0x1000103AC, symSize: 0xC8 }
  - { offsetInCU: 0x38D05, offset: 0x38D05, size: 0x8, addend: 0x0, symName: __ZNKSt3__112basic_stringIcNS_11char_traitsIcEENS_9allocatorIcEEE9__is_longB7v160006Ev, symObjAddr: 0xD194, symBinAddr: 0x100010474, symSize: 0x38 }
  - { offsetInCU: 0x38D2B, offset: 0x38D2B, size: 0x8, addend: 0x0, symName: __ZNSt3__116allocator_traitsINS_9allocatorIcEEE10deallocateB7v160006ERS2_Pcm, symObjAddr: 0xD1CC, symBinAddr: 0x1000104AC, symSize: 0x34 }
  - { offsetInCU: 0x38D6D, offset: 0x38D6D, size: 0x8, addend: 0x0, symName: __ZNSt3__112basic_stringIcNS_11char_traitsIcEENS_9allocatorIcEEE7__allocB7v160006Ev, symObjAddr: 0xD200, symBinAddr: 0x1000104E0, symSize: 0x24 }
  - { offsetInCU: 0x38D93, offset: 0x38D93, size: 0x8, addend: 0x0, symName: __ZNSt3__112basic_stringIcNS_11char_traitsIcEENS_9allocatorIcEEE18__get_long_pointerB7v160006Ev, symObjAddr: 0xD224, symBinAddr: 0x100010504, symSize: 0x28 }
  - { offsetInCU: 0x38DB9, offset: 0x38DB9, size: 0x8, addend: 0x0, symName: __ZNKSt3__112basic_stringIcNS_11char_traitsIcEENS_9allocatorIcEEE14__get_long_capB7v160006Ev, symObjAddr: 0xD24C, symBinAddr: 0x10001052C, symSize: 0x30 }
  - { offsetInCU: 0x38DDF, offset: 0x38DDF, size: 0x8, addend: 0x0, symName: __ZNSt3__112basic_stringIcNS_11char_traitsIcEENS_9allocatorIcEEE19__move_assign_allocB7v160006ERS5_, symObjAddr: 0xD27C, symBinAddr: 0x10001055C, symSize: 0x2C }
  - { offsetInCU: 0x38E14, offset: 0x38E14, size: 0x8, addend: 0x0, symName: __ZNSt3__112basic_stringIcNS_11char_traitsIcEENS_9allocatorIcEEE16__set_short_sizeB7v160006Em, symObjAddr: 0xD2A8, symBinAddr: 0x100010588, symSize: 0x78 }
  - { offsetInCU: 0x38E49, offset: 0x38E49, size: 0x8, addend: 0x0, symName: __ZNSt3__111char_traitsIcE6assignERcRKc, symObjAddr: 0xD320, symBinAddr: 0x100010600, symSize: 0x24 }
  - { offsetInCU: 0x38E7A, offset: 0x38E7A, size: 0x8, addend: 0x0, symName: __ZNSt3__112basic_stringIcNS_11char_traitsIcEENS_9allocatorIcEEE19__get_short_pointerB7v160006Ev, symObjAddr: 0xD344, symBinAddr: 0x100010624, symSize: 0x28 }
  - { offsetInCU: 0x38EA0, offset: 0x38EA0, size: 0x8, addend: 0x0, symName: __ZNKSt3__117__compressed_pairINS_12basic_stringIcNS_11char_traitsIcEENS_9allocatorIcEEE5__repES5_E5firstB7v160006Ev, symObjAddr: 0xD36C, symBinAddr: 0x10001064C, symSize: 0x24 }
  - { offsetInCU: 0x38EC6, offset: 0x38EC6, size: 0x8, addend: 0x0, symName: __ZNKSt3__122__compressed_pair_elemINS_12basic_stringIcNS_11char_traitsIcEENS_9allocatorIcEEE5__repELi0ELb0EE5__getB7v160006Ev, symObjAddr: 0xD390, symBinAddr: 0x100010670, symSize: 0x14 }
  - { offsetInCU: 0x38EEC, offset: 0x38EEC, size: 0x8, addend: 0x0, symName: __ZNSt3__19allocatorIcE10deallocateB7v160006EPcm, symObjAddr: 0xD3A4, symBinAddr: 0x100010684, symSize: 0x40 }
  - { offsetInCU: 0x38F2E, offset: 0x38F2E, size: 0x8, addend: 0x0, symName: __ZNSt3__117__compressed_pairINS_12basic_stringIcNS_11char_traitsIcEENS_9allocatorIcEEE5__repES5_E6secondB7v160006Ev, symObjAddr: 0xD3E4, symBinAddr: 0x1000106C4, symSize: 0x24 }
  - { offsetInCU: 0x38F54, offset: 0x38F54, size: 0x8, addend: 0x0, symName: __ZNSt3__122__compressed_pair_elemINS_9allocatorIcEELi1ELb1EE5__getB7v160006Ev, symObjAddr: 0xD408, symBinAddr: 0x1000106E8, symSize: 0x14 }
  - { offsetInCU: 0x38F7A, offset: 0x38F7A, size: 0x8, addend: 0x0, symName: __ZNSt3__112basic_stringIcNS_11char_traitsIcEENS_9allocatorIcEEE19__move_assign_allocB7v160006ERS5_NS_17integral_constantIbLb1EEE, symObjAddr: 0xD41C, symBinAddr: 0x1000106FC, symSize: 0x38 }
  - { offsetInCU: 0x38FBA, offset: 0x38FBA, size: 0x8, addend: 0x0, symName: __ZNSt3__114pointer_traitsIPcE10pointer_toB7v160006ERc, symObjAddr: 0xD454, symBinAddr: 0x100010734, symSize: 0x14 }
  - { offsetInCU: 0x38FDD, offset: 0x38FDD, size: 0x8, addend: 0x0, symName: __ZNSt3__13setIiNS_4lessIiEENS_9allocatorIiEEEC2B7v160006Ev, symObjAddr: 0xD468, symBinAddr: 0x100010748, symSize: 0x30 }
  - { offsetInCU: 0x39007, offset: 0x39007, size: 0x8, addend: 0x0, symName: __ZNSt3__16__treeIiNS_4lessIiEENS_9allocatorIiEEEC1ERKS2_, symObjAddr: 0xD498, symBinAddr: 0x100010778, symSize: 0x34 }
  - { offsetInCU: 0x39042, offset: 0x39042, size: 0x8, addend: 0x0, symName: __ZNSt3__16__treeIiNS_4lessIiEENS_9allocatorIiEEEC2ERKS2_, symObjAddr: 0xD4CC, symBinAddr: 0x1000107AC, symSize: 0x7C }
  - { offsetInCU: 0x3907D, offset: 0x3907D, size: 0x8, addend: 0x0, symName: __ZNSt3__117__compressed_pairINS_15__tree_end_nodeIPNS_16__tree_node_baseIPvEEEENS_9allocatorINS_11__tree_nodeIiS3_EEEEEC1B7v160006ILb1EvEEv, symObjAddr: 0xD548, symBinAddr: 0x100010828, symSize: 0x2C }
  - { offsetInCU: 0x390B2, offset: 0x390B2, size: 0x8, addend: 0x0, symName: __ZNSt3__117__compressed_pairINS_15__tree_end_nodeIPNS_16__tree_node_baseIPvEEEENS_9allocatorINS_11__tree_nodeIiS3_EEEEEC2B7v160006ILb1EvEEv, symObjAddr: 0xD574, symBinAddr: 0x100010854, symSize: 0x34 }
  - { offsetInCU: 0x390E7, offset: 0x390E7, size: 0x8, addend: 0x0, symName: __ZNSt3__122__compressed_pair_elemINS_15__tree_end_nodeIPNS_16__tree_node_baseIPvEEEELi0ELb0EEC2B7v160006ENS_16__value_init_tagE, symObjAddr: 0xD5A8, symBinAddr: 0x100010888, symSize: 0x2C }
  - { offsetInCU: 0x3911B, offset: 0x3911B, size: 0x8, addend: 0x0, symName: __ZNSt3__122__compressed_pair_elemINS_9allocatorINS_11__tree_nodeIiPvEEEELi1ELb1EEC2B7v160006ENS_16__value_init_tagE, symObjAddr: 0xD5D4, symBinAddr: 0x1000108B4, symSize: 0x2C }
  - { offsetInCU: 0x3914F, offset: 0x3914F, size: 0x8, addend: 0x0, symName: __ZNSt3__19allocatorINS_11__tree_nodeIiPvEEEC2B7v160006Ev, symObjAddr: 0xD600, symBinAddr: 0x1000108E0, symSize: 0x2C }
  - { offsetInCU: 0x39179, offset: 0x39179, size: 0x8, addend: 0x0, symName: __ZNSt3__116__non_trivial_ifILb1ENS_9allocatorINS_11__tree_nodeIiPvEEEEEC2B7v160006Ev, symObjAddr: 0xD62C, symBinAddr: 0x10001090C, symSize: 0x14 }
  - { offsetInCU: 0x391A3, offset: 0x391A3, size: 0x8, addend: 0x0, symName: __ZNSt3__13setIiNS_4lessIiEENS_9allocatorIiEEED2B7v160006Ev, symObjAddr: 0xD640, symBinAddr: 0x100010920, symSize: 0x2C }
  - { offsetInCU: 0x391CD, offset: 0x391CD, size: 0x8, addend: 0x0, symName: __ZNSt3__13mapINS_12basic_stringIcNS_11char_traitsIcEENS_9allocatorIcEEEEiNS_4lessIS6_EENS4_INS_4pairIKS6_iEEEEEC2B7v160006Ev, symObjAddr: 0xD66C, symBinAddr: 0x10001094C, symSize: 0x40 }
  - { offsetInCU: 0x391F7, offset: 0x391F7, size: 0x8, addend: 0x0, symName: __ZNSt3__119__map_value_compareINS_12basic_stringIcNS_11char_traitsIcEENS_9allocatorIcEEEENS_12__value_typeIS6_iEENS_4lessIS6_EELb1EEC1B7v160006ESA_, symObjAddr: 0xD6AC, symBinAddr: 0x10001098C, symSize: 0x2C }
  - { offsetInCU: 0x39230, offset: 0x39230, size: 0x8, addend: 0x0, symName: __ZNSt3__16__treeINS_12__value_typeINS_12basic_stringIcNS_11char_traitsIcEENS_9allocatorIcEEEEiEENS_19__map_value_compareIS7_S8_NS_4lessIS7_EELb1EEENS5_IS8_EEEC1ERKSC_, symObjAddr: 0xD6D8, symBinAddr: 0x1000109B8, symSize: 0x34 }
  - { offsetInCU: 0x3926B, offset: 0x3926B, size: 0x8, addend: 0x0, symName: __ZNSt3__119__map_value_compareINS_12basic_stringIcNS_11char_traitsIcEENS_9allocatorIcEEEENS_12__value_typeIS6_iEENS_4lessIS6_EELb1EEC2B7v160006ESA_, symObjAddr: 0xD70C, symBinAddr: 0x1000109EC, symSize: 0x14 }
  - { offsetInCU: 0x392A4, offset: 0x392A4, size: 0x8, addend: 0x0, symName: __ZNSt3__16__treeINS_12__value_typeINS_12basic_stringIcNS_11char_traitsIcEENS_9allocatorIcEEEEiEENS_19__map_value_compareIS7_S8_NS_4lessIS7_EELb1EEENS5_IS8_EEEC2ERKSC_, symObjAddr: 0xD720, symBinAddr: 0x100010A00, symSize: 0x7C }
  - { offsetInCU: 0x392DF, offset: 0x392DF, size: 0x8, addend: 0x0, symName: __ZNSt3__117__compressed_pairINS_15__tree_end_nodeIPNS_16__tree_node_baseIPvEEEENS_9allocatorINS_11__tree_nodeINS_12__value_typeINS_12basic_stringIcNS_11char_traitsIcEENS7_IcEEEEiEES3_EEEEEC1B7v160006ILb1EvEEv, symObjAddr: 0xD79C, symBinAddr: 0x100010A7C, symSize: 0x2C }
  - { offsetInCU: 0x39314, offset: 0x39314, size: 0x8, addend: 0x0, symName: __ZNSt3__117__compressed_pairImNS_19__map_value_compareINS_12basic_stringIcNS_11char_traitsIcEENS_9allocatorIcEEEENS_12__value_typeIS7_iEENS_4lessIS7_EELb1EEEEC1B7v160006IiRKSC_EEOT_OT0_, symObjAddr: 0xD7C8, symBinAddr: 0x100010AA8, symSize: 0x3C }
  - { offsetInCU: 0x3936C, offset: 0x3936C, size: 0x8, addend: 0x0, symName: __ZNSt3__16__treeINS_12__value_typeINS_12basic_stringIcNS_11char_traitsIcEENS_9allocatorIcEEEEiEENS_19__map_value_compareIS7_S8_NS_4lessIS7_EELb1EEENS5_IS8_EEE10__end_nodeB7v160006Ev, symObjAddr: 0xD804, symBinAddr: 0x100010AE4, symSize: 0x2C }
  - { offsetInCU: 0x39392, offset: 0x39392, size: 0x8, addend: 0x0, symName: __ZNSt3__16__treeINS_12__value_typeINS_12basic_stringIcNS_11char_traitsIcEENS_9allocatorIcEEEEiEENS_19__map_value_compareIS7_S8_NS_4lessIS7_EELb1EEENS5_IS8_EEE12__begin_nodeB7v160006Ev, symObjAddr: 0xD830, symBinAddr: 0x100010B10, symSize: 0x14 }
  - { offsetInCU: 0x393B8, offset: 0x393B8, size: 0x8, addend: 0x0, symName: __ZNSt3__117__compressed_pairINS_15__tree_end_nodeIPNS_16__tree_node_baseIPvEEEENS_9allocatorINS_11__tree_nodeINS_12__value_typeINS_12basic_stringIcNS_11char_traitsIcEENS7_IcEEEEiEES3_EEEEEC2B7v160006ILb1EvEEv, symObjAddr: 0xD844, symBinAddr: 0x100010B24, symSize: 0x34 }
  - { offsetInCU: 0x393ED, offset: 0x393ED, size: 0x8, addend: 0x0, symName: __ZNSt3__122__compressed_pair_elemINS_9allocatorINS_11__tree_nodeINS_12__value_typeINS_12basic_stringIcNS_11char_traitsIcEENS1_IcEEEEiEEPvEEEELi1ELb1EEC2B7v160006ENS_16__value_init_tagE, symObjAddr: 0xD878, symBinAddr: 0x100010B58, symSize: 0x2C }
  - { offsetInCU: 0x39421, offset: 0x39421, size: 0x8, addend: 0x0, symName: __ZNSt3__19allocatorINS_11__tree_nodeINS_12__value_typeINS_12basic_stringIcNS_11char_traitsIcEENS0_IcEEEEiEEPvEEEC2B7v160006Ev, symObjAddr: 0xD8A4, symBinAddr: 0x100010B84, symSize: 0x2C }
  - { offsetInCU: 0x3944B, offset: 0x3944B, size: 0x8, addend: 0x0, symName: __ZNSt3__116__non_trivial_ifILb1ENS_9allocatorINS_11__tree_nodeINS_12__value_typeINS_12basic_stringIcNS_11char_traitsIcEENS1_IcEEEEiEEPvEEEEEC2B7v160006Ev, symObjAddr: 0xD8D0, symBinAddr: 0x100010BB0, symSize: 0x14 }
  - { offsetInCU: 0x39475, offset: 0x39475, size: 0x8, addend: 0x0, symName: __ZNSt3__117__compressed_pairImNS_19__map_value_compareINS_12basic_stringIcNS_11char_traitsIcEENS_9allocatorIcEEEENS_12__value_typeIS7_iEENS_4lessIS7_EELb1EEEEC2B7v160006IiRKSC_EEOT_OT0_, symObjAddr: 0xD8E4, symBinAddr: 0x100010BC4, symSize: 0x44 }
  - { offsetInCU: 0x394CD, offset: 0x394CD, size: 0x8, addend: 0x0, symName: __ZNSt3__122__compressed_pair_elemINS_19__map_value_compareINS_12basic_stringIcNS_11char_traitsIcEENS_9allocatorIcEEEENS_12__value_typeIS7_iEENS_4lessIS7_EELb1EEELi1ELb1EEC2B7v160006IRKSC_vEEOT_, symObjAddr: 0xD928, symBinAddr: 0x100010C08, symSize: 0x18 }
  - { offsetInCU: 0x3950F, offset: 0x3950F, size: 0x8, addend: 0x0, symName: __ZNSt3__117__compressed_pairINS_15__tree_end_nodeIPNS_16__tree_node_baseIPvEEEENS_9allocatorINS_11__tree_nodeINS_12__value_typeINS_12basic_stringIcNS_11char_traitsIcEENS7_IcEEEEiEES3_EEEEE5firstB7v160006Ev, symObjAddr: 0xD940, symBinAddr: 0x100010C20, symSize: 0x24 }
  - { offsetInCU: 0x39535, offset: 0x39535, size: 0x8, addend: 0x0, symName: __ZNSt3__13mapINS_12basic_stringIcNS_11char_traitsIcEENS_9allocatorIcEEEEiNS_4lessIS6_EENS4_INS_4pairIKS6_iEEEEED2B7v160006Ev, symObjAddr: 0xD964, symBinAddr: 0x100010C44, symSize: 0x2C }
  - { offsetInCU: 0x3955F, offset: 0x3955F, size: 0x8, addend: 0x0, symName: __ZNSt3__16__treeINS_12__value_typeINS_12basic_stringIcNS_11char_traitsIcEENS_9allocatorIcEEEEiEENS_19__map_value_compareIS7_S8_NS_4lessIS7_EELb1EEENS5_IS8_EEED1Ev, symObjAddr: 0xD990, symBinAddr: 0x100010C70, symSize: 0x2C }
  - { offsetInCU: 0x3958B, offset: 0x3958B, size: 0x8, addend: 0x0, symName: __ZNSt3__16__treeINS_12__value_typeINS_12basic_stringIcNS_11char_traitsIcEENS_9allocatorIcEEEEiEENS_19__map_value_compareIS7_S8_NS_4lessIS7_EELb1EEENS5_IS8_EEED2Ev, symObjAddr: 0xD9BC, symBinAddr: 0x100010C9C, symSize: 0x38 }
  - { offsetInCU: 0x395B7, offset: 0x395B7, size: 0x8, addend: 0x0, symName: __ZNSt3__16__treeINS_12__value_typeINS_12basic_stringIcNS_11char_traitsIcEENS_9allocatorIcEEEEiEENS_19__map_value_compareIS7_S8_NS_4lessIS7_EELb1EEENS5_IS8_EEE7destroyEPNS_11__tree_nodeIS8_PvEE, symObjAddr: 0xD9F4, symBinAddr: 0x100010CD4, symSize: 0xAC }
  - { offsetInCU: 0x39603, offset: 0x39603, size: 0x8, addend: 0x0, symName: __ZNKSt3__16__treeINS_12__value_typeINS_12basic_stringIcNS_11char_traitsIcEENS_9allocatorIcEEEEiEENS_19__map_value_compareIS7_S8_NS_4lessIS7_EELb1EEENS5_IS8_EEE6__rootB7v160006Ev, symObjAddr: 0xDAA0, symBinAddr: 0x100010D80, symSize: 0x28 }
  - { offsetInCU: 0x39629, offset: 0x39629, size: 0x8, addend: 0x0, symName: __ZNSt3__16__treeINS_12__value_typeINS_12basic_stringIcNS_11char_traitsIcEENS_9allocatorIcEEEEiEENS_19__map_value_compareIS7_S8_NS_4lessIS7_EELb1EEENS5_IS8_EEE12__node_allocB7v160006Ev, symObjAddr: 0xDAC8, symBinAddr: 0x100010DA8, symSize: 0x28 }
  - { offsetInCU: 0x3964F, offset: 0x3964F, size: 0x8, addend: 0x0, symName: __ZNSt3__116allocator_traitsINS_9allocatorINS_11__tree_nodeINS_12__value_typeINS_12basic_stringIcNS_11char_traitsIcEENS1_IcEEEEiEEPvEEEEE7destroyB7v160006INS_4pairIKS8_iEEvvEEvRSC_PT_, symObjAddr: 0xDAF0, symBinAddr: 0x100010DD0, symSize: 0x28 }
  - { offsetInCU: 0x39689, offset: 0x39689, size: 0x8, addend: 0x0, symName: __ZNSt3__122__tree_key_value_typesINS_12__value_typeINS_12basic_stringIcNS_11char_traitsIcEENS_9allocatorIcEEEEiEEE9__get_ptrB7v160006ERS8_, symObjAddr: 0xDB18, symBinAddr: 0x100010DF8, symSize: 0x24 }
  - { offsetInCU: 0x396AD, offset: 0x396AD, size: 0x8, addend: 0x0, symName: __ZNSt3__116allocator_traitsINS_9allocatorINS_11__tree_nodeINS_12__value_typeINS_12basic_stringIcNS_11char_traitsIcEENS1_IcEEEEiEEPvEEEEE10deallocateB7v160006ERSC_PSB_m, symObjAddr: 0xDB3C, symBinAddr: 0x100010E1C, symSize: 0x34 }
  - { offsetInCU: 0x396EF, offset: 0x396EF, size: 0x8, addend: 0x0, symName: __ZNSt3__117__compressed_pairINS_15__tree_end_nodeIPNS_16__tree_node_baseIPvEEEENS_9allocatorINS_11__tree_nodeINS_12__value_typeINS_12basic_stringIcNS_11char_traitsIcEENS7_IcEEEEiEES3_EEEEE6secondB7v160006Ev, symObjAddr: 0xDB70, symBinAddr: 0x100010E50, symSize: 0x24 }
  - { offsetInCU: 0x39715, offset: 0x39715, size: 0x8, addend: 0x0, symName: __ZNSt3__122__compressed_pair_elemINS_9allocatorINS_11__tree_nodeINS_12__value_typeINS_12basic_stringIcNS_11char_traitsIcEENS1_IcEEEEiEEPvEEEELi1ELb1EE5__getB7v160006Ev, symObjAddr: 0xDB94, symBinAddr: 0x100010E74, symSize: 0x14 }
  - { offsetInCU: 0x3973B, offset: 0x3973B, size: 0x8, addend: 0x0, symName: __ZNSt3__14pairIKNS_12basic_stringIcNS_11char_traitsIcEENS_9allocatorIcEEEEiED1Ev, symObjAddr: 0xDBA8, symBinAddr: 0x100010E88, symSize: 0x2C }
  - { offsetInCU: 0x39767, offset: 0x39767, size: 0x8, addend: 0x0, symName: __ZNSt3__14pairIKNS_12basic_stringIcNS_11char_traitsIcEENS_9allocatorIcEEEEiED2Ev, symObjAddr: 0xDBD4, symBinAddr: 0x100010EB4, symSize: 0x2C }
  - { offsetInCU: 0x39793, offset: 0x39793, size: 0x8, addend: 0x0, symName: __ZNSt3__112__value_typeINS_12basic_stringIcNS_11char_traitsIcEENS_9allocatorIcEEEEiE11__get_valueB7v160006Ev, symObjAddr: 0xDC00, symBinAddr: 0x100010EE0, symSize: 0x14 }
  - { offsetInCU: 0x397B9, offset: 0x397B9, size: 0x8, addend: 0x0, symName: __ZNSt3__19allocatorINS_11__tree_nodeINS_12__value_typeINS_12basic_stringIcNS_11char_traitsIcEENS0_IcEEEEiEEPvEEE10deallocateB7v160006EPSA_m, symObjAddr: 0xDC14, symBinAddr: 0x100010EF4, symSize: 0x40 }
  - { offsetInCU: 0x397FB, offset: 0x397FB, size: 0x8, addend: 0x0, symName: __ZNKSt3__16__treeINS_12__value_typeINS_12basic_stringIcNS_11char_traitsIcEENS_9allocatorIcEEEEiEENS_19__map_value_compareIS7_S8_NS_4lessIS7_EELb1EEENS5_IS8_EEE10__end_nodeB7v160006Ev, symObjAddr: 0xDC54, symBinAddr: 0x100010F34, symSize: 0x2C }
  - { offsetInCU: 0x39821, offset: 0x39821, size: 0x8, addend: 0x0, symName: __ZNKSt3__117__compressed_pairINS_15__tree_end_nodeIPNS_16__tree_node_baseIPvEEEENS_9allocatorINS_11__tree_nodeINS_12__value_typeINS_12basic_stringIcNS_11char_traitsIcEENS7_IcEEEEiEES3_EEEEE5firstB7v160006Ev, symObjAddr: 0xDC80, symBinAddr: 0x100010F60, symSize: 0x24 }
  - { offsetInCU: 0x39847, offset: 0x39847, size: 0x8, addend: 0x0, symName: __ZNSt3__13mapIiiNS_4lessIiEENS_9allocatorINS_4pairIKiiEEEEEC2B7v160006Ev, symObjAddr: 0xDCA4, symBinAddr: 0x100010F84, symSize: 0x40 }
  - { offsetInCU: 0x39871, offset: 0x39871, size: 0x8, addend: 0x0, symName: __ZNSt3__119__map_value_compareIiNS_12__value_typeIiiEENS_4lessIiEELb1EEC1B7v160006ES4_, symObjAddr: 0xDCE4, symBinAddr: 0x100010FC4, symSize: 0x2C }
  - { offsetInCU: 0x398AA, offset: 0x398AA, size: 0x8, addend: 0x0, symName: __ZNSt3__16__treeINS_12__value_typeIiiEENS_19__map_value_compareIiS2_NS_4lessIiEELb1EEENS_9allocatorIS2_EEEC1ERKS6_, symObjAddr: 0xDD10, symBinAddr: 0x100010FF0, symSize: 0x34 }
  - { offsetInCU: 0x398E5, offset: 0x398E5, size: 0x8, addend: 0x0, symName: __ZNSt3__119__map_value_compareIiNS_12__value_typeIiiEENS_4lessIiEELb1EEC2B7v160006ES4_, symObjAddr: 0xDD44, symBinAddr: 0x100011024, symSize: 0x14 }
  - { offsetInCU: 0x3991E, offset: 0x3991E, size: 0x8, addend: 0x0, symName: __ZNSt3__16__treeINS_12__value_typeIiiEENS_19__map_value_compareIiS2_NS_4lessIiEELb1EEENS_9allocatorIS2_EEEC2ERKS6_, symObjAddr: 0xDD58, symBinAddr: 0x100011038, symSize: 0x7C }
  - { offsetInCU: 0x39959, offset: 0x39959, size: 0x8, addend: 0x0, symName: __ZNSt3__117__compressed_pairINS_15__tree_end_nodeIPNS_16__tree_node_baseIPvEEEENS_9allocatorINS_11__tree_nodeINS_12__value_typeIiiEES3_EEEEEC1B7v160006ILb1EvEEv, symObjAddr: 0xDDD4, symBinAddr: 0x1000110B4, symSize: 0x2C }
  - { offsetInCU: 0x3998E, offset: 0x3998E, size: 0x8, addend: 0x0, symName: __ZNSt3__117__compressed_pairImNS_19__map_value_compareIiNS_12__value_typeIiiEENS_4lessIiEELb1EEEEC1B7v160006IiRKS6_EEOT_OT0_, symObjAddr: 0xDE00, symBinAddr: 0x1000110E0, symSize: 0x3C }
  - { offsetInCU: 0x399E6, offset: 0x399E6, size: 0x8, addend: 0x0, symName: __ZNSt3__16__treeINS_12__value_typeIiiEENS_19__map_value_compareIiS2_NS_4lessIiEELb1EEENS_9allocatorIS2_EEE10__end_nodeB7v160006Ev, symObjAddr: 0xDE3C, symBinAddr: 0x10001111C, symSize: 0x2C }
  - { offsetInCU: 0x39A0C, offset: 0x39A0C, size: 0x8, addend: 0x0, symName: __ZNSt3__16__treeINS_12__value_typeIiiEENS_19__map_value_compareIiS2_NS_4lessIiEELb1EEENS_9allocatorIS2_EEE12__begin_nodeB7v160006Ev, symObjAddr: 0xDE68, symBinAddr: 0x100011148, symSize: 0x14 }
  - { offsetInCU: 0x39A32, offset: 0x39A32, size: 0x8, addend: 0x0, symName: __ZNSt3__117__compressed_pairINS_15__tree_end_nodeIPNS_16__tree_node_baseIPvEEEENS_9allocatorINS_11__tree_nodeINS_12__value_typeIiiEES3_EEEEEC2B7v160006ILb1EvEEv, symObjAddr: 0xDE7C, symBinAddr: 0x10001115C, symSize: 0x34 }
  - { offsetInCU: 0x39A67, offset: 0x39A67, size: 0x8, addend: 0x0, symName: __ZNSt3__122__compressed_pair_elemINS_9allocatorINS_11__tree_nodeINS_12__value_typeIiiEEPvEEEELi1ELb1EEC2B7v160006ENS_16__value_init_tagE, symObjAddr: 0xDEB0, symBinAddr: 0x100011190, symSize: 0x2C }
  - { offsetInCU: 0x39A9B, offset: 0x39A9B, size: 0x8, addend: 0x0, symName: __ZNSt3__19allocatorINS_11__tree_nodeINS_12__value_typeIiiEEPvEEEC2B7v160006Ev, symObjAddr: 0xDEDC, symBinAddr: 0x1000111BC, symSize: 0x2C }
  - { offsetInCU: 0x39AC5, offset: 0x39AC5, size: 0x8, addend: 0x0, symName: __ZNSt3__116__non_trivial_ifILb1ENS_9allocatorINS_11__tree_nodeINS_12__value_typeIiiEEPvEEEEEC2B7v160006Ev, symObjAddr: 0xDF08, symBinAddr: 0x1000111E8, symSize: 0x14 }
  - { offsetInCU: 0x39AEF, offset: 0x39AEF, size: 0x8, addend: 0x0, symName: __ZNSt3__117__compressed_pairImNS_19__map_value_compareIiNS_12__value_typeIiiEENS_4lessIiEELb1EEEEC2B7v160006IiRKS6_EEOT_OT0_, symObjAddr: 0xDF1C, symBinAddr: 0x1000111FC, symSize: 0x44 }
  - { offsetInCU: 0x39B47, offset: 0x39B47, size: 0x8, addend: 0x0, symName: __ZNSt3__122__compressed_pair_elemINS_19__map_value_compareIiNS_12__value_typeIiiEENS_4lessIiEELb1EEELi1ELb1EEC2B7v160006IRKS6_vEEOT_, symObjAddr: 0xDF60, symBinAddr: 0x100011240, symSize: 0x18 }
  - { offsetInCU: 0x39B89, offset: 0x39B89, size: 0x8, addend: 0x0, symName: __ZNSt3__117__compressed_pairINS_15__tree_end_nodeIPNS_16__tree_node_baseIPvEEEENS_9allocatorINS_11__tree_nodeINS_12__value_typeIiiEES3_EEEEE5firstB7v160006Ev, symObjAddr: 0xDF78, symBinAddr: 0x100011258, symSize: 0x24 }
  - { offsetInCU: 0x39BAF, offset: 0x39BAF, size: 0x8, addend: 0x0, symName: __ZNSt3__13mapIiiNS_4lessIiEENS_9allocatorINS_4pairIKiiEEEEED2B7v160006Ev, symObjAddr: 0xDF9C, symBinAddr: 0x10001127C, symSize: 0x2C }
  - { offsetInCU: 0x39BD9, offset: 0x39BD9, size: 0x8, addend: 0x0, symName: __ZNSt3__16__treeINS_12__value_typeIiiEENS_19__map_value_compareIiS2_NS_4lessIiEELb1EEENS_9allocatorIS2_EEED1Ev, symObjAddr: 0xDFC8, symBinAddr: 0x1000112A8, symSize: 0x2C }
  - { offsetInCU: 0x39C05, offset: 0x39C05, size: 0x8, addend: 0x0, symName: __ZNSt3__16__treeINS_12__value_typeIiiEENS_19__map_value_compareIiS2_NS_4lessIiEELb1EEENS_9allocatorIS2_EEED2Ev, symObjAddr: 0xDFF4, symBinAddr: 0x1000112D4, symSize: 0x38 }
  - { offsetInCU: 0x39C31, offset: 0x39C31, size: 0x8, addend: 0x0, symName: __ZNSt3__16__treeINS_12__value_typeIiiEENS_19__map_value_compareIiS2_NS_4lessIiEELb1EEENS_9allocatorIS2_EEE7destroyEPNS_11__tree_nodeIS2_PvEE, symObjAddr: 0xE02C, symBinAddr: 0x10001130C, symSize: 0xAC }
  - { offsetInCU: 0x39C7D, offset: 0x39C7D, size: 0x8, addend: 0x0, symName: __ZNKSt3__16__treeINS_12__value_typeIiiEENS_19__map_value_compareIiS2_NS_4lessIiEELb1EEENS_9allocatorIS2_EEE6__rootB7v160006Ev, symObjAddr: 0xE0D8, symBinAddr: 0x1000113B8, symSize: 0x28 }
  - { offsetInCU: 0x39CA3, offset: 0x39CA3, size: 0x8, addend: 0x0, symName: __ZNSt3__16__treeINS_12__value_typeIiiEENS_19__map_value_compareIiS2_NS_4lessIiEELb1EEENS_9allocatorIS2_EEE12__node_allocB7v160006Ev, symObjAddr: 0xE100, symBinAddr: 0x1000113E0, symSize: 0x28 }
  - { offsetInCU: 0x39CC9, offset: 0x39CC9, size: 0x8, addend: 0x0, symName: __ZNSt3__116allocator_traitsINS_9allocatorINS_11__tree_nodeINS_12__value_typeIiiEEPvEEEEE7destroyB7v160006INS_4pairIKiiEEvvEEvRS7_PT_, symObjAddr: 0xE128, symBinAddr: 0x100011408, symSize: 0x14 }
  - { offsetInCU: 0x39D03, offset: 0x39D03, size: 0x8, addend: 0x0, symName: __ZNSt3__122__tree_key_value_typesINS_12__value_typeIiiEEE9__get_ptrB7v160006ERS2_, symObjAddr: 0xE13C, symBinAddr: 0x10001141C, symSize: 0x24 }
  - { offsetInCU: 0x39D27, offset: 0x39D27, size: 0x8, addend: 0x0, symName: __ZNSt3__116allocator_traitsINS_9allocatorINS_11__tree_nodeINS_12__value_typeIiiEEPvEEEEE10deallocateB7v160006ERS7_PS6_m, symObjAddr: 0xE160, symBinAddr: 0x100011440, symSize: 0x34 }
  - { offsetInCU: 0x39D69, offset: 0x39D69, size: 0x8, addend: 0x0, symName: __ZNSt3__117__compressed_pairINS_15__tree_end_nodeIPNS_16__tree_node_baseIPvEEEENS_9allocatorINS_11__tree_nodeINS_12__value_typeIiiEES3_EEEEE6secondB7v160006Ev, symObjAddr: 0xE194, symBinAddr: 0x100011474, symSize: 0x24 }
  - { offsetInCU: 0x39D8F, offset: 0x39D8F, size: 0x8, addend: 0x0, symName: __ZNSt3__122__compressed_pair_elemINS_9allocatorINS_11__tree_nodeINS_12__value_typeIiiEEPvEEEELi1ELb1EE5__getB7v160006Ev, symObjAddr: 0xE1B8, symBinAddr: 0x100011498, symSize: 0x14 }
  - { offsetInCU: 0x39DB5, offset: 0x39DB5, size: 0x8, addend: 0x0, symName: __ZNSt3__112__value_typeIiiE11__get_valueB7v160006Ev, symObjAddr: 0xE1CC, symBinAddr: 0x1000114AC, symSize: 0x14 }
  - { offsetInCU: 0x39DDB, offset: 0x39DDB, size: 0x8, addend: 0x0, symName: __ZNSt3__19allocatorINS_11__tree_nodeINS_12__value_typeIiiEEPvEEE10deallocateB7v160006EPS5_m, symObjAddr: 0xE1E0, symBinAddr: 0x1000114C0, symSize: 0x44 }
  - { offsetInCU: 0x39E1D, offset: 0x39E1D, size: 0x8, addend: 0x0, symName: __ZNKSt3__16__treeINS_12__value_typeIiiEENS_19__map_value_compareIiS2_NS_4lessIiEELb1EEENS_9allocatorIS2_EEE10__end_nodeB7v160006Ev, symObjAddr: 0xE224, symBinAddr: 0x100011504, symSize: 0x2C }
  - { offsetInCU: 0x39E43, offset: 0x39E43, size: 0x8, addend: 0x0, symName: __ZNKSt3__117__compressed_pairINS_15__tree_end_nodeIPNS_16__tree_node_baseIPvEEEENS_9allocatorINS_11__tree_nodeINS_12__value_typeIiiEES3_EEEEE5firstB7v160006Ev, symObjAddr: 0xE250, symBinAddr: 0x100011530, symSize: 0x24 }
  - { offsetInCU: 0x39E69, offset: 0x39E69, size: 0x8, addend: 0x0, symName: __ZNSt3__13mapIiNS_12basic_stringIcNS_11char_traitsIcEENS_9allocatorIcEEEENS_4lessIiEENS4_INS_4pairIKiS6_EEEEEC2B7v160006Ev, symObjAddr: 0xE274, symBinAddr: 0x100011554, symSize: 0x40 }
  - { offsetInCU: 0x39E93, offset: 0x39E93, size: 0x8, addend: 0x0, symName: __ZNSt3__119__map_value_compareIiNS_12__value_typeIiNS_12basic_stringIcNS_11char_traitsIcEENS_9allocatorIcEEEEEENS_4lessIiEELb1EEC1B7v160006ESA_, symObjAddr: 0xE2B4, symBinAddr: 0x100011594, symSize: 0x2C }
  - { offsetInCU: 0x39ECC, offset: 0x39ECC, size: 0x8, addend: 0x0, symName: __ZNSt3__16__treeINS_12__value_typeIiNS_12basic_stringIcNS_11char_traitsIcEENS_9allocatorIcEEEEEENS_19__map_value_compareIiS8_NS_4lessIiEELb1EEENS5_IS8_EEEC1ERKSC_, symObjAddr: 0xE2E0, symBinAddr: 0x1000115C0, symSize: 0x34 }
  - { offsetInCU: 0x39F07, offset: 0x39F07, size: 0x8, addend: 0x0, symName: __ZNSt3__119__map_value_compareIiNS_12__value_typeIiNS_12basic_stringIcNS_11char_traitsIcEENS_9allocatorIcEEEEEENS_4lessIiEELb1EEC2B7v160006ESA_, symObjAddr: 0xE314, symBinAddr: 0x1000115F4, symSize: 0x14 }
  - { offsetInCU: 0x39F40, offset: 0x39F40, size: 0x8, addend: 0x0, symName: __ZNSt3__16__treeINS_12__value_typeIiNS_12basic_stringIcNS_11char_traitsIcEENS_9allocatorIcEEEEEENS_19__map_value_compareIiS8_NS_4lessIiEELb1EEENS5_IS8_EEEC2ERKSC_, symObjAddr: 0xE328, symBinAddr: 0x100011608, symSize: 0x7C }
  - { offsetInCU: 0x39F7B, offset: 0x39F7B, size: 0x8, addend: 0x0, symName: __ZNSt3__117__compressed_pairINS_15__tree_end_nodeIPNS_16__tree_node_baseIPvEEEENS_9allocatorINS_11__tree_nodeINS_12__value_typeIiNS_12basic_stringIcNS_11char_traitsIcEENS7_IcEEEEEES3_EEEEEC1B7v160006ILb1EvEEv, symObjAddr: 0xE3A4, symBinAddr: 0x100011684, symSize: 0x2C }
  - { offsetInCU: 0x39FB0, offset: 0x39FB0, size: 0x8, addend: 0x0, symName: __ZNSt3__117__compressed_pairImNS_19__map_value_compareIiNS_12__value_typeIiNS_12basic_stringIcNS_11char_traitsIcEENS_9allocatorIcEEEEEENS_4lessIiEELb1EEEEC1B7v160006IiRKSC_EEOT_OT0_, symObjAddr: 0xE3D0, symBinAddr: 0x1000116B0, symSize: 0x3C }
  - { offsetInCU: 0x3A008, offset: 0x3A008, size: 0x8, addend: 0x0, symName: __ZNSt3__16__treeINS_12__value_typeIiNS_12basic_stringIcNS_11char_traitsIcEENS_9allocatorIcEEEEEENS_19__map_value_compareIiS8_NS_4lessIiEELb1EEENS5_IS8_EEE10__end_nodeB7v160006Ev, symObjAddr: 0xE40C, symBinAddr: 0x1000116EC, symSize: 0x2C }
  - { offsetInCU: 0x3A02E, offset: 0x3A02E, size: 0x8, addend: 0x0, symName: __ZNSt3__16__treeINS_12__value_typeIiNS_12basic_stringIcNS_11char_traitsIcEENS_9allocatorIcEEEEEENS_19__map_value_compareIiS8_NS_4lessIiEELb1EEENS5_IS8_EEE12__begin_nodeB7v160006Ev, symObjAddr: 0xE438, symBinAddr: 0x100011718, symSize: 0x14 }
  - { offsetInCU: 0x3A054, offset: 0x3A054, size: 0x8, addend: 0x0, symName: __ZNSt3__117__compressed_pairINS_15__tree_end_nodeIPNS_16__tree_node_baseIPvEEEENS_9allocatorINS_11__tree_nodeINS_12__value_typeIiNS_12basic_stringIcNS_11char_traitsIcEENS7_IcEEEEEES3_EEEEEC2B7v160006ILb1EvEEv, symObjAddr: 0xE44C, symBinAddr: 0x10001172C, symSize: 0x34 }
  - { offsetInCU: 0x3A089, offset: 0x3A089, size: 0x8, addend: 0x0, symName: __ZNSt3__122__compressed_pair_elemINS_9allocatorINS_11__tree_nodeINS_12__value_typeIiNS_12basic_stringIcNS_11char_traitsIcEENS1_IcEEEEEEPvEEEELi1ELb1EEC2B7v160006ENS_16__value_init_tagE, symObjAddr: 0xE480, symBinAddr: 0x100011760, symSize: 0x2C }
  - { offsetInCU: 0x3A0BD, offset: 0x3A0BD, size: 0x8, addend: 0x0, symName: __ZNSt3__19allocatorINS_11__tree_nodeINS_12__value_typeIiNS_12basic_stringIcNS_11char_traitsIcEENS0_IcEEEEEEPvEEEC2B7v160006Ev, symObjAddr: 0xE4AC, symBinAddr: 0x10001178C, symSize: 0x2C }
  - { offsetInCU: 0x3A0E7, offset: 0x3A0E7, size: 0x8, addend: 0x0, symName: __ZNSt3__116__non_trivial_ifILb1ENS_9allocatorINS_11__tree_nodeINS_12__value_typeIiNS_12basic_stringIcNS_11char_traitsIcEENS1_IcEEEEEEPvEEEEEC2B7v160006Ev, symObjAddr: 0xE4D8, symBinAddr: 0x1000117B8, symSize: 0x14 }
  - { offsetInCU: 0x3A111, offset: 0x3A111, size: 0x8, addend: 0x0, symName: __ZNSt3__117__compressed_pairImNS_19__map_value_compareIiNS_12__value_typeIiNS_12basic_stringIcNS_11char_traitsIcEENS_9allocatorIcEEEEEENS_4lessIiEELb1EEEEC2B7v160006IiRKSC_EEOT_OT0_, symObjAddr: 0xE4EC, symBinAddr: 0x1000117CC, symSize: 0x44 }
  - { offsetInCU: 0x3A169, offset: 0x3A169, size: 0x8, addend: 0x0, symName: __ZNSt3__122__compressed_pair_elemINS_19__map_value_compareIiNS_12__value_typeIiNS_12basic_stringIcNS_11char_traitsIcEENS_9allocatorIcEEEEEENS_4lessIiEELb1EEELi1ELb1EEC2B7v160006IRKSC_vEEOT_, symObjAddr: 0xE530, symBinAddr: 0x100011810, symSize: 0x18 }
  - { offsetInCU: 0x3A1AB, offset: 0x3A1AB, size: 0x8, addend: 0x0, symName: __ZNSt3__117__compressed_pairINS_15__tree_end_nodeIPNS_16__tree_node_baseIPvEEEENS_9allocatorINS_11__tree_nodeINS_12__value_typeIiNS_12basic_stringIcNS_11char_traitsIcEENS7_IcEEEEEES3_EEEEE5firstB7v160006Ev, symObjAddr: 0xE548, symBinAddr: 0x100011828, symSize: 0x24 }
  - { offsetInCU: 0x3A1D1, offset: 0x3A1D1, size: 0x8, addend: 0x0, symName: __ZNSt3__13mapIiNS_12basic_stringIcNS_11char_traitsIcEENS_9allocatorIcEEEENS_4lessIiEENS4_INS_4pairIKiS6_EEEEED2B7v160006Ev, symObjAddr: 0xE56C, symBinAddr: 0x10001184C, symSize: 0x2C }
  - { offsetInCU: 0x3A1FB, offset: 0x3A1FB, size: 0x8, addend: 0x0, symName: __ZNSt3__16__treeINS_12__value_typeIiNS_12basic_stringIcNS_11char_traitsIcEENS_9allocatorIcEEEEEENS_19__map_value_compareIiS8_NS_4lessIiEELb1EEENS5_IS8_EEED1Ev, symObjAddr: 0xE598, symBinAddr: 0x100011878, symSize: 0x2C }
  - { offsetInCU: 0x3A227, offset: 0x3A227, size: 0x8, addend: 0x0, symName: __ZNSt3__16__treeINS_12__value_typeIiNS_12basic_stringIcNS_11char_traitsIcEENS_9allocatorIcEEEEEENS_19__map_value_compareIiS8_NS_4lessIiEELb1EEENS5_IS8_EEED2Ev, symObjAddr: 0xE5C4, symBinAddr: 0x1000118A4, symSize: 0x38 }
  - { offsetInCU: 0x3A253, offset: 0x3A253, size: 0x8, addend: 0x0, symName: __ZNSt3__16__treeINS_12__value_typeIiNS_12basic_stringIcNS_11char_traitsIcEENS_9allocatorIcEEEEEENS_19__map_value_compareIiS8_NS_4lessIiEELb1EEENS5_IS8_EEE7destroyEPNS_11__tree_nodeIS8_PvEE, symObjAddr: 0xE5FC, symBinAddr: 0x1000118DC, symSize: 0xAC }
  - { offsetInCU: 0x3A29F, offset: 0x3A29F, size: 0x8, addend: 0x0, symName: __ZNKSt3__16__treeINS_12__value_typeIiNS_12basic_stringIcNS_11char_traitsIcEENS_9allocatorIcEEEEEENS_19__map_value_compareIiS8_NS_4lessIiEELb1EEENS5_IS8_EEE6__rootB7v160006Ev, symObjAddr: 0xE6A8, symBinAddr: 0x100011988, symSize: 0x28 }
  - { offsetInCU: 0x3A2C5, offset: 0x3A2C5, size: 0x8, addend: 0x0, symName: __ZNSt3__16__treeINS_12__value_typeIiNS_12basic_stringIcNS_11char_traitsIcEENS_9allocatorIcEEEEEENS_19__map_value_compareIiS8_NS_4lessIiEELb1EEENS5_IS8_EEE12__node_allocB7v160006Ev, symObjAddr: 0xE6D0, symBinAddr: 0x1000119B0, symSize: 0x28 }
  - { offsetInCU: 0x3A2EB, offset: 0x3A2EB, size: 0x8, addend: 0x0, symName: __ZNSt3__116allocator_traitsINS_9allocatorINS_11__tree_nodeINS_12__value_typeIiNS_12basic_stringIcNS_11char_traitsIcEENS1_IcEEEEEEPvEEEEE7destroyB7v160006INS_4pairIKiS8_EEvvEEvRSC_PT_, symObjAddr: 0xE6F8, symBinAddr: 0x1000119D8, symSize: 0x28 }
  - { offsetInCU: 0x3A325, offset: 0x3A325, size: 0x8, addend: 0x0, symName: __ZNSt3__122__tree_key_value_typesINS_12__value_typeIiNS_12basic_stringIcNS_11char_traitsIcEENS_9allocatorIcEEEEEEE9__get_ptrB7v160006ERS8_, symObjAddr: 0xE720, symBinAddr: 0x100011A00, symSize: 0x24 }
  - { offsetInCU: 0x3A349, offset: 0x3A349, size: 0x8, addend: 0x0, symName: __ZNSt3__116allocator_traitsINS_9allocatorINS_11__tree_nodeINS_12__value_typeIiNS_12basic_stringIcNS_11char_traitsIcEENS1_IcEEEEEEPvEEEEE10deallocateB7v160006ERSC_PSB_m, symObjAddr: 0xE744, symBinAddr: 0x100011A24, symSize: 0x34 }
  - { offsetInCU: 0x3A38B, offset: 0x3A38B, size: 0x8, addend: 0x0, symName: __ZNSt3__117__compressed_pairINS_15__tree_end_nodeIPNS_16__tree_node_baseIPvEEEENS_9allocatorINS_11__tree_nodeINS_12__value_typeIiNS_12basic_stringIcNS_11char_traitsIcEENS7_IcEEEEEES3_EEEEE6secondB7v160006Ev, symObjAddr: 0xE778, symBinAddr: 0x100011A58, symSize: 0x24 }
  - { offsetInCU: 0x3A3B1, offset: 0x3A3B1, size: 0x8, addend: 0x0, symName: __ZNSt3__122__compressed_pair_elemINS_9allocatorINS_11__tree_nodeINS_12__value_typeIiNS_12basic_stringIcNS_11char_traitsIcEENS1_IcEEEEEEPvEEEELi1ELb1EE5__getB7v160006Ev, symObjAddr: 0xE79C, symBinAddr: 0x100011A7C, symSize: 0x14 }
  - { offsetInCU: 0x3A3D7, offset: 0x3A3D7, size: 0x8, addend: 0x0, symName: __ZNSt3__14pairIKiNS_12basic_stringIcNS_11char_traitsIcEENS_9allocatorIcEEEEED1Ev, symObjAddr: 0xE7B0, symBinAddr: 0x100011A90, symSize: 0x2C }
  - { offsetInCU: 0x3A403, offset: 0x3A403, size: 0x8, addend: 0x0, symName: __ZNSt3__14pairIKiNS_12basic_stringIcNS_11char_traitsIcEENS_9allocatorIcEEEEED2Ev, symObjAddr: 0xE7DC, symBinAddr: 0x100011ABC, symSize: 0x30 }
  - { offsetInCU: 0x3A42F, offset: 0x3A42F, size: 0x8, addend: 0x0, symName: __ZNSt3__112__value_typeIiNS_12basic_stringIcNS_11char_traitsIcEENS_9allocatorIcEEEEE11__get_valueB7v160006Ev, symObjAddr: 0xE80C, symBinAddr: 0x100011AEC, symSize: 0x14 }
  - { offsetInCU: 0x3A455, offset: 0x3A455, size: 0x8, addend: 0x0, symName: __ZNSt3__19allocatorINS_11__tree_nodeINS_12__value_typeIiNS_12basic_stringIcNS_11char_traitsIcEENS0_IcEEEEEEPvEEE10deallocateB7v160006EPSA_m, symObjAddr: 0xE820, symBinAddr: 0x100011B00, symSize: 0x40 }
  - { offsetInCU: 0x3A497, offset: 0x3A497, size: 0x8, addend: 0x0, symName: __ZNKSt3__16__treeINS_12__value_typeIiNS_12basic_stringIcNS_11char_traitsIcEENS_9allocatorIcEEEEEENS_19__map_value_compareIiS8_NS_4lessIiEELb1EEENS5_IS8_EEE10__end_nodeB7v160006Ev, symObjAddr: 0xE860, symBinAddr: 0x100011B40, symSize: 0x2C }
  - { offsetInCU: 0x3A4BD, offset: 0x3A4BD, size: 0x8, addend: 0x0, symName: __ZNKSt3__117__compressed_pairINS_15__tree_end_nodeIPNS_16__tree_node_baseIPvEEEENS_9allocatorINS_11__tree_nodeINS_12__value_typeIiNS_12basic_stringIcNS_11char_traitsIcEENS7_IcEEEEEES3_EEEEE5firstB7v160006Ev, symObjAddr: 0xE88C, symBinAddr: 0x100011B6C, symSize: 0x24 }
  - { offsetInCU: 0x3A4E3, offset: 0x3A4E3, size: 0x8, addend: 0x0, symName: __ZNSt3__16vectorI8ProducerNS_9allocatorIS1_EEEC2B7v160006Ev, symObjAddr: 0xE8B0, symBinAddr: 0x100011B90, symSize: 0x58 }
  - { offsetInCU: 0x3A513, offset: 0x3A513, size: 0x8, addend: 0x0, symName: __ZNSt3__117__compressed_pairIP8ProducerNS_9allocatorIS1_EEEC1B7v160006IDnNS_18__default_init_tagEEEOT_OT0_, symObjAddr: 0xE908, symBinAddr: 0x100011BE8, symSize: 0x3C }
  - { offsetInCU: 0x3A56B, offset: 0x3A56B, size: 0x8, addend: 0x0, symName: __ZNSt3__117__compressed_pairIP8ProducerNS_9allocatorIS1_EEEC2B7v160006IDnNS_18__default_init_tagEEEOT_OT0_, symObjAddr: 0xE954, symBinAddr: 0x100011C34, symSize: 0x40 }
  - { offsetInCU: 0x3A5C3, offset: 0x3A5C3, size: 0x8, addend: 0x0, symName: __ZNSt3__122__compressed_pair_elemIP8ProducerLi0ELb0EEC2B7v160006IDnvEEOT_, symObjAddr: 0xE994, symBinAddr: 0x100011C74, symSize: 0x1C }
  - { offsetInCU: 0x3A605, offset: 0x3A605, size: 0x8, addend: 0x0, symName: __ZNSt3__122__compressed_pair_elemINS_9allocatorI8ProducerEELi1ELb1EEC2B7v160006ENS_18__default_init_tagE, symObjAddr: 0xE9B0, symBinAddr: 0x100011C90, symSize: 0x2C }
  - { offsetInCU: 0x3A639, offset: 0x3A639, size: 0x8, addend: 0x0, symName: __ZNSt3__19allocatorI8ProducerEC2B7v160006Ev, symObjAddr: 0xE9DC, symBinAddr: 0x100011CBC, symSize: 0x2C }
  - { offsetInCU: 0x3A663, offset: 0x3A663, size: 0x8, addend: 0x0, symName: __ZNSt3__116__non_trivial_ifILb1ENS_9allocatorI8ProducerEEEC2B7v160006Ev, symObjAddr: 0xEA08, symBinAddr: 0x100011CE8, symSize: 0x14 }
  - { offsetInCU: 0x3A68D, offset: 0x3A68D, size: 0x8, addend: 0x0, symName: __ZNSt3__16vectorI8ProducerNS_9allocatorIS1_EEED2B7v160006Ev, symObjAddr: 0xEA1C, symBinAddr: 0x100011CFC, symSize: 0x44 }
  - { offsetInCU: 0x3A6B7, offset: 0x3A6B7, size: 0x8, addend: 0x0, symName: __ZNSt3__16vectorI8ProducerNS_9allocatorIS1_EEE16__destroy_vectorC1ERS4_, symObjAddr: 0xEA60, symBinAddr: 0x100011D40, symSize: 0x34 }
  - { offsetInCU: 0x3A6F0, offset: 0x3A6F0, size: 0x8, addend: 0x0, symName: __ZNSt3__16vectorI8ProducerNS_9allocatorIS1_EEE16__destroy_vectorclB7v160006Ev, symObjAddr: 0xEA94, symBinAddr: 0x100011D74, symSize: 0x9C }
  - { offsetInCU: 0x3A716, offset: 0x3A716, size: 0x8, addend: 0x0, symName: __ZNSt3__16vectorI8ProducerNS_9allocatorIS1_EEE16__destroy_vectorC2ERS4_, symObjAddr: 0xEB30, symBinAddr: 0x100011E10, symSize: 0x20 }
  - { offsetInCU: 0x3A74F, offset: 0x3A74F, size: 0x8, addend: 0x0, symName: __ZNKSt3__16vectorI8ProducerNS_9allocatorIS1_EEE17__annotate_deleteB7v160006Ev, symObjAddr: 0xEB50, symBinAddr: 0x100011E30, symSize: 0xB8 }
  - { offsetInCU: 0x3A775, offset: 0x3A775, size: 0x8, addend: 0x0, symName: __ZNSt3__16vectorI8ProducerNS_9allocatorIS1_EEE7__clearB7v160006Ev, symObjAddr: 0xEC18, symBinAddr: 0x100011EF8, symSize: 0x28 }
  - { offsetInCU: 0x3A79B, offset: 0x3A79B, size: 0x8, addend: 0x0, symName: __ZNSt3__116allocator_traitsINS_9allocatorI8ProducerEEE10deallocateB7v160006ERS3_PS2_m, symObjAddr: 0xEC40, symBinAddr: 0x100011F20, symSize: 0x34 }
  - { offsetInCU: 0x3A7DD, offset: 0x3A7DD, size: 0x8, addend: 0x0, symName: __ZNSt3__16vectorI8ProducerNS_9allocatorIS1_EEE7__allocB7v160006Ev, symObjAddr: 0xEC74, symBinAddr: 0x100011F54, symSize: 0x28 }
  - { offsetInCU: 0x3A803, offset: 0x3A803, size: 0x8, addend: 0x0, symName: __ZNKSt3__16vectorI8ProducerNS_9allocatorIS1_EEE8capacityB7v160006Ev, symObjAddr: 0xEC9C, symBinAddr: 0x100011F7C, symSize: 0x40 }
  - { offsetInCU: 0x3A829, offset: 0x3A829, size: 0x8, addend: 0x0, symName: __ZNKSt3__16vectorI8ProducerNS_9allocatorIS1_EEE31__annotate_contiguous_containerB7v160006EPKvS6_S6_S6_, symObjAddr: 0xECDC, symBinAddr: 0x100011FBC, symSize: 0x20 }
  - { offsetInCU: 0x3A87B, offset: 0x3A87B, size: 0x8, addend: 0x0, symName: __ZNKSt3__16vectorI8ProducerNS_9allocatorIS1_EEE4dataB7v160006Ev, symObjAddr: 0xECFC, symBinAddr: 0x100011FDC, symSize: 0x28 }
  - { offsetInCU: 0x3A8A1, offset: 0x3A8A1, size: 0x8, addend: 0x0, symName: __ZNSt3__16vectorI8ProducerNS_9allocatorIS1_EEE22__base_destruct_at_endB7v160006EPS1_, symObjAddr: 0xED38, symBinAddr: 0x100012018, symSize: 0x8C }
  - { offsetInCU: 0x3A8E5, offset: 0x3A8E5, size: 0x8, addend: 0x0, symName: __ZNSt3__116allocator_traitsINS_9allocatorI8ProducerEEE7destroyB7v160006IS2_vEEvRS3_PT_, symObjAddr: 0xEDC4, symBinAddr: 0x1000120A4, symSize: 0x2C }
  - { offsetInCU: 0x3A922, offset: 0x3A922, size: 0x8, addend: 0x0, symName: __ZNSt3__19allocatorI8ProducerE7destroyB7v160006EPS1_, symObjAddr: 0xEDF0, symBinAddr: 0x1000120D0, symSize: 0x28 }
  - { offsetInCU: 0x3A956, offset: 0x3A956, size: 0x8, addend: 0x0, symName: __ZNSt3__19allocatorI8ProducerE10deallocateB7v160006EPS1_m, symObjAddr: 0xEE18, symBinAddr: 0x1000120F8, symSize: 0x40 }
  - { offsetInCU: 0x3A998, offset: 0x3A998, size: 0x8, addend: 0x0, symName: __ZNSt3__117__compressed_pairIP8ProducerNS_9allocatorIS1_EEE6secondB7v160006Ev, symObjAddr: 0xEE58, symBinAddr: 0x100012138, symSize: 0x24 }
  - { offsetInCU: 0x3A9BE, offset: 0x3A9BE, size: 0x8, addend: 0x0, symName: __ZNSt3__122__compressed_pair_elemINS_9allocatorI8ProducerEELi1ELb1EE5__getB7v160006Ev, symObjAddr: 0xEE7C, symBinAddr: 0x10001215C, symSize: 0x14 }
  - { offsetInCU: 0x3A9E4, offset: 0x3A9E4, size: 0x8, addend: 0x0, symName: __ZNKSt3__16vectorI8ProducerNS_9allocatorIS1_EEE9__end_capB7v160006Ev, symObjAddr: 0xEE90, symBinAddr: 0x100012170, symSize: 0x28 }
  - { offsetInCU: 0x3AA0A, offset: 0x3AA0A, size: 0x8, addend: 0x0, symName: __ZNKSt3__117__compressed_pairIP8ProducerNS_9allocatorIS1_EEE5firstB7v160006Ev, symObjAddr: 0xEEB8, symBinAddr: 0x100012198, symSize: 0x24 }
  - { offsetInCU: 0x3AA30, offset: 0x3AA30, size: 0x8, addend: 0x0, symName: __ZNKSt3__122__compressed_pair_elemIP8ProducerLi0ELb0EE5__getB7v160006Ev, symObjAddr: 0xEEDC, symBinAddr: 0x1000121BC, symSize: 0x14 }
  - { offsetInCU: 0x3AA56, offset: 0x3AA56, size: 0x8, addend: 0x0, symName: __ZNSt3__16vectorIiNS_9allocatorIiEEEC2B7v160006Ev, symObjAddr: 0xEEF0, symBinAddr: 0x1000121D0, symSize: 0x58 }
  - { offsetInCU: 0x3AA80, offset: 0x3AA80, size: 0x8, addend: 0x0, symName: __ZNSt3__117__compressed_pairIPiNS_9allocatorIiEEEC1B7v160006IDnNS_18__default_init_tagEEEOT_OT0_, symObjAddr: 0xEF48, symBinAddr: 0x100012228, symSize: 0x3C }
  - { offsetInCU: 0x3AAD8, offset: 0x3AAD8, size: 0x8, addend: 0x0, symName: __ZNSt3__117__compressed_pairIPiNS_9allocatorIiEEEC2B7v160006IDnNS_18__default_init_tagEEEOT_OT0_, symObjAddr: 0xEF94, symBinAddr: 0x100012274, symSize: 0x40 }
  - { offsetInCU: 0x3AB30, offset: 0x3AB30, size: 0x8, addend: 0x0, symName: __ZNSt3__122__compressed_pair_elemIPiLi0ELb0EEC2B7v160006IDnvEEOT_, symObjAddr: 0xEFD4, symBinAddr: 0x1000122B4, symSize: 0x1C }
  - { offsetInCU: 0x3AB72, offset: 0x3AB72, size: 0x8, addend: 0x0, symName: __ZNSt3__122__compressed_pair_elemINS_9allocatorIiEELi1ELb1EEC2B7v160006ENS_18__default_init_tagE, symObjAddr: 0xEFF0, symBinAddr: 0x1000122D0, symSize: 0x2C }
  - { offsetInCU: 0x3ABA6, offset: 0x3ABA6, size: 0x8, addend: 0x0, symName: __ZNSt3__19allocatorIiEC2B7v160006Ev, symObjAddr: 0xF01C, symBinAddr: 0x1000122FC, symSize: 0x2C }
  - { offsetInCU: 0x3ABD0, offset: 0x3ABD0, size: 0x8, addend: 0x0, symName: __ZNSt3__116__non_trivial_ifILb1ENS_9allocatorIiEEEC2B7v160006Ev, symObjAddr: 0xF048, symBinAddr: 0x100012328, symSize: 0x14 }
  - { offsetInCU: 0x3ABFA, offset: 0x3ABFA, size: 0x8, addend: 0x0, symName: __ZNSt3__16vectorIiNS_9allocatorIiEEED2B7v160006Ev, symObjAddr: 0xF05C, symBinAddr: 0x10001233C, symSize: 0x44 }
  - { offsetInCU: 0x3AC24, offset: 0x3AC24, size: 0x8, addend: 0x0, symName: __ZNSt3__16vectorIiNS_9allocatorIiEEE16__destroy_vectorC1ERS3_, symObjAddr: 0xF0A0, symBinAddr: 0x100012380, symSize: 0x34 }
  - { offsetInCU: 0x3AC5D, offset: 0x3AC5D, size: 0x8, addend: 0x0, symName: __ZNSt3__16vectorIiNS_9allocatorIiEEE16__destroy_vectorclB7v160006Ev, symObjAddr: 0xF0D4, symBinAddr: 0x1000123B4, symSize: 0x9C }
  - { offsetInCU: 0x3AC83, offset: 0x3AC83, size: 0x8, addend: 0x0, symName: __ZNSt3__16vectorIiNS_9allocatorIiEEE16__destroy_vectorC2ERS3_, symObjAddr: 0xF170, symBinAddr: 0x100012450, symSize: 0x20 }
  - { offsetInCU: 0x3ACBC, offset: 0x3ACBC, size: 0x8, addend: 0x0, symName: __ZNKSt3__16vectorIiNS_9allocatorIiEEE17__annotate_deleteB7v160006Ev, symObjAddr: 0xF190, symBinAddr: 0x100012470, symSize: 0xB8 }
  - { offsetInCU: 0x3ACE2, offset: 0x3ACE2, size: 0x8, addend: 0x0, symName: __ZNSt3__16vectorIiNS_9allocatorIiEEE7__clearB7v160006Ev, symObjAddr: 0xF258, symBinAddr: 0x100012538, symSize: 0x28 }
  - { offsetInCU: 0x3AD08, offset: 0x3AD08, size: 0x8, addend: 0x0, symName: __ZNSt3__116allocator_traitsINS_9allocatorIiEEE10deallocateB7v160006ERS2_Pim, symObjAddr: 0xF280, symBinAddr: 0x100012560, symSize: 0x34 }
  - { offsetInCU: 0x3AD4A, offset: 0x3AD4A, size: 0x8, addend: 0x0, symName: __ZNSt3__16vectorIiNS_9allocatorIiEEE7__allocB7v160006Ev, symObjAddr: 0xF2B4, symBinAddr: 0x100012594, symSize: 0x28 }
  - { offsetInCU: 0x3AD70, offset: 0x3AD70, size: 0x8, addend: 0x0, symName: __ZNKSt3__16vectorIiNS_9allocatorIiEEE8capacityB7v160006Ev, symObjAddr: 0xF2DC, symBinAddr: 0x1000125BC, symSize: 0x40 }
  - { offsetInCU: 0x3AD96, offset: 0x3AD96, size: 0x8, addend: 0x0, symName: __ZNKSt3__16vectorIiNS_9allocatorIiEEE31__annotate_contiguous_containerB7v160006EPKvS5_S5_S5_, symObjAddr: 0xF31C, symBinAddr: 0x1000125FC, symSize: 0x20 }
  - { offsetInCU: 0x3ADE8, offset: 0x3ADE8, size: 0x8, addend: 0x0, symName: __ZNKSt3__16vectorIiNS_9allocatorIiEEE4dataB7v160006Ev, symObjAddr: 0xF33C, symBinAddr: 0x10001261C, symSize: 0x28 }
  - { offsetInCU: 0x3AE0E, offset: 0x3AE0E, size: 0x8, addend: 0x0, symName: __ZNSt3__16vectorIiNS_9allocatorIiEEE22__base_destruct_at_endB7v160006EPi, symObjAddr: 0xF378, symBinAddr: 0x100012658, symSize: 0x8C }
  - { offsetInCU: 0x3AE52, offset: 0x3AE52, size: 0x8, addend: 0x0, symName: __ZNSt3__116allocator_traitsINS_9allocatorIiEEE7destroyB7v160006IivEEvRS2_PT_, symObjAddr: 0xF404, symBinAddr: 0x1000126E4, symSize: 0x2C }
  - { offsetInCU: 0x3AE8F, offset: 0x3AE8F, size: 0x8, addend: 0x0, symName: __ZNSt3__19allocatorIiE7destroyB7v160006EPi, symObjAddr: 0xF430, symBinAddr: 0x100012710, symSize: 0x14 }
  - { offsetInCU: 0x3AEC3, offset: 0x3AEC3, size: 0x8, addend: 0x0, symName: __ZNSt3__19allocatorIiE10deallocateB7v160006EPim, symObjAddr: 0xF444, symBinAddr: 0x100012724, symSize: 0x40 }
  - { offsetInCU: 0x3AF05, offset: 0x3AF05, size: 0x8, addend: 0x0, symName: __ZNSt3__117__compressed_pairIPiNS_9allocatorIiEEE6secondB7v160006Ev, symObjAddr: 0xF484, symBinAddr: 0x100012764, symSize: 0x24 }
  - { offsetInCU: 0x3AF2B, offset: 0x3AF2B, size: 0x8, addend: 0x0, symName: __ZNSt3__122__compressed_pair_elemINS_9allocatorIiEELi1ELb1EE5__getB7v160006Ev, symObjAddr: 0xF4A8, symBinAddr: 0x100012788, symSize: 0x14 }
  - { offsetInCU: 0x3AF51, offset: 0x3AF51, size: 0x8, addend: 0x0, symName: __ZNKSt3__16vectorIiNS_9allocatorIiEEE9__end_capB7v160006Ev, symObjAddr: 0xF4BC, symBinAddr: 0x10001279C, symSize: 0x28 }
  - { offsetInCU: 0x3AF77, offset: 0x3AF77, size: 0x8, addend: 0x0, symName: __ZNKSt3__117__compressed_pairIPiNS_9allocatorIiEEE5firstB7v160006Ev, symObjAddr: 0xF4E4, symBinAddr: 0x1000127C4, symSize: 0x24 }
  - { offsetInCU: 0x3AF9D, offset: 0x3AF9D, size: 0x8, addend: 0x0, symName: __ZNKSt3__122__compressed_pair_elemIPiLi0ELb0EE5__getB7v160006Ev, symObjAddr: 0xF508, symBinAddr: 0x1000127E8, symSize: 0x14 }
  - { offsetInCU: 0x3AFC3, offset: 0x3AFC3, size: 0x8, addend: 0x0, symName: __ZNSt3__16vectorINS_12basic_stringIcNS_11char_traitsIcEENS_9allocatorIcEEEENS4_IS6_EEEC2B7v160006Ev, symObjAddr: 0xF51C, symBinAddr: 0x1000127FC, symSize: 0x58 }
  - { offsetInCU: 0x3AFED, offset: 0x3AFED, size: 0x8, addend: 0x0, symName: __ZNSt3__117__compressed_pairIPNS_12basic_stringIcNS_11char_traitsIcEENS_9allocatorIcEEEENS4_IS6_EEEC1B7v160006IDnNS_18__default_init_tagEEEOT_OT0_, symObjAddr: 0xF574, symBinAddr: 0x100012854, symSize: 0x3C }
  - { offsetInCU: 0x3B045, offset: 0x3B045, size: 0x8, addend: 0x0, symName: __ZNSt3__117__compressed_pairIPNS_12basic_stringIcNS_11char_traitsIcEENS_9allocatorIcEEEENS4_IS6_EEEC2B7v160006IDnNS_18__default_init_tagEEEOT_OT0_, symObjAddr: 0xF5C0, symBinAddr: 0x1000128A0, symSize: 0x40 }
  - { offsetInCU: 0x3B09D, offset: 0x3B09D, size: 0x8, addend: 0x0, symName: __ZNSt3__122__compressed_pair_elemIPNS_12basic_stringIcNS_11char_traitsIcEENS_9allocatorIcEEEELi0ELb0EEC2B7v160006IDnvEEOT_, symObjAddr: 0xF600, symBinAddr: 0x1000128E0, symSize: 0x1C }
  - { offsetInCU: 0x3B0DF, offset: 0x3B0DF, size: 0x8, addend: 0x0, symName: __ZNSt3__122__compressed_pair_elemINS_9allocatorINS_12basic_stringIcNS_11char_traitsIcEENS1_IcEEEEEELi1ELb1EEC2B7v160006ENS_18__default_init_tagE, symObjAddr: 0xF61C, symBinAddr: 0x1000128FC, symSize: 0x2C }
  - { offsetInCU: 0x3B113, offset: 0x3B113, size: 0x8, addend: 0x0, symName: __ZNSt3__19allocatorINS_12basic_stringIcNS_11char_traitsIcEENS0_IcEEEEEC2B7v160006Ev, symObjAddr: 0xF648, symBinAddr: 0x100012928, symSize: 0x2C }
  - { offsetInCU: 0x3B13D, offset: 0x3B13D, size: 0x8, addend: 0x0, symName: __ZNSt3__116__non_trivial_ifILb1ENS_9allocatorINS_12basic_stringIcNS_11char_traitsIcEENS1_IcEEEEEEEC2B7v160006Ev, symObjAddr: 0xF674, symBinAddr: 0x100012954, symSize: 0x14 }
  - { offsetInCU: 0x3B167, offset: 0x3B167, size: 0x8, addend: 0x0, symName: __ZNSt3__16vectorINS_12basic_stringIcNS_11char_traitsIcEENS_9allocatorIcEEEENS4_IS6_EEED2B7v160006Ev, symObjAddr: 0xF688, symBinAddr: 0x100012968, symSize: 0x44 }
  - { offsetInCU: 0x3B191, offset: 0x3B191, size: 0x8, addend: 0x0, symName: __ZNSt3__16vectorINS_12basic_stringIcNS_11char_traitsIcEENS_9allocatorIcEEEENS4_IS6_EEE16__destroy_vectorC1ERS8_, symObjAddr: 0xF6CC, symBinAddr: 0x1000129AC, symSize: 0x34 }
  - { offsetInCU: 0x3B1CA, offset: 0x3B1CA, size: 0x8, addend: 0x0, symName: __ZNSt3__16vectorINS_12basic_stringIcNS_11char_traitsIcEENS_9allocatorIcEEEENS4_IS6_EEE16__destroy_vectorclB7v160006Ev, symObjAddr: 0xF700, symBinAddr: 0x1000129E0, symSize: 0x9C }
  - { offsetInCU: 0x3B1F0, offset: 0x3B1F0, size: 0x8, addend: 0x0, symName: __ZNSt3__16vectorINS_12basic_stringIcNS_11char_traitsIcEENS_9allocatorIcEEEENS4_IS6_EEE16__destroy_vectorC2ERS8_, symObjAddr: 0xF79C, symBinAddr: 0x100012A7C, symSize: 0x20 }
  - { offsetInCU: 0x3B229, offset: 0x3B229, size: 0x8, addend: 0x0, symName: __ZNKSt3__16vectorINS_12basic_stringIcNS_11char_traitsIcEENS_9allocatorIcEEEENS4_IS6_EEE17__annotate_deleteB7v160006Ev, symObjAddr: 0xF7BC, symBinAddr: 0x100012A9C, symSize: 0xD4 }
  - { offsetInCU: 0x3B24F, offset: 0x3B24F, size: 0x8, addend: 0x0, symName: __ZNSt3__16vectorINS_12basic_stringIcNS_11char_traitsIcEENS_9allocatorIcEEEENS4_IS6_EEE7__clearB7v160006Ev, symObjAddr: 0xF8A0, symBinAddr: 0x100012B80, symSize: 0x28 }
  - { offsetInCU: 0x3B275, offset: 0x3B275, size: 0x8, addend: 0x0, symName: __ZNSt3__116allocator_traitsINS_9allocatorINS_12basic_stringIcNS_11char_traitsIcEENS1_IcEEEEEEE10deallocateB7v160006ERS7_PS6_m, symObjAddr: 0xF8C8, symBinAddr: 0x100012BA8, symSize: 0x34 }
  - { offsetInCU: 0x3B2B7, offset: 0x3B2B7, size: 0x8, addend: 0x0, symName: __ZNSt3__16vectorINS_12basic_stringIcNS_11char_traitsIcEENS_9allocatorIcEEEENS4_IS6_EEE7__allocB7v160006Ev, symObjAddr: 0xF8FC, symBinAddr: 0x100012BDC, symSize: 0x28 }
  - { offsetInCU: 0x3B2DD, offset: 0x3B2DD, size: 0x8, addend: 0x0, symName: __ZNKSt3__16vectorINS_12basic_stringIcNS_11char_traitsIcEENS_9allocatorIcEEEENS4_IS6_EEE8capacityB7v160006Ev, symObjAddr: 0xF924, symBinAddr: 0x100012C04, symSize: 0x40 }
  - { offsetInCU: 0x3B303, offset: 0x3B303, size: 0x8, addend: 0x0, symName: __ZNKSt3__16vectorINS_12basic_stringIcNS_11char_traitsIcEENS_9allocatorIcEEEENS4_IS6_EEE31__annotate_contiguous_containerB7v160006EPKvSA_SA_SA_, symObjAddr: 0xF964, symBinAddr: 0x100012C44, symSize: 0x20 }
  - { offsetInCU: 0x3B355, offset: 0x3B355, size: 0x8, addend: 0x0, symName: __ZNKSt3__16vectorINS_12basic_stringIcNS_11char_traitsIcEENS_9allocatorIcEEEENS4_IS6_EEE4dataB7v160006Ev, symObjAddr: 0xF984, symBinAddr: 0x100012C64, symSize: 0x28 }
  - { offsetInCU: 0x3B37B, offset: 0x3B37B, size: 0x8, addend: 0x0, symName: __ZNKSt3__16vectorINS_12basic_stringIcNS_11char_traitsIcEENS_9allocatorIcEEEENS4_IS6_EEE4sizeB7v160006Ev, symObjAddr: 0xF9AC, symBinAddr: 0x100012C8C, symSize: 0x28 }
  - { offsetInCU: 0x3B3A1, offset: 0x3B3A1, size: 0x8, addend: 0x0, symName: __ZNSt3__16vectorINS_12basic_stringIcNS_11char_traitsIcEENS_9allocatorIcEEEENS4_IS6_EEE22__base_destruct_at_endB7v160006EPS6_, symObjAddr: 0xF9E8, symBinAddr: 0x100012CC8, symSize: 0x8C }
  - { offsetInCU: 0x3B3E5, offset: 0x3B3E5, size: 0x8, addend: 0x0, symName: __ZNSt3__116allocator_traitsINS_9allocatorINS_12basic_stringIcNS_11char_traitsIcEENS1_IcEEEEEEE7destroyB7v160006IS6_vEEvRS7_PT_, symObjAddr: 0xFA74, symBinAddr: 0x100012D54, symSize: 0x2C }
  - { offsetInCU: 0x3B422, offset: 0x3B422, size: 0x8, addend: 0x0, symName: __ZNSt3__19allocatorINS_12basic_stringIcNS_11char_traitsIcEENS0_IcEEEEE7destroyB7v160006EPS5_, symObjAddr: 0xFAA0, symBinAddr: 0x100012D80, symSize: 0x28 }
  - { offsetInCU: 0x3B456, offset: 0x3B456, size: 0x8, addend: 0x0, symName: __ZNSt3__19allocatorINS_12basic_stringIcNS_11char_traitsIcEENS0_IcEEEEE10deallocateB7v160006EPS5_m, symObjAddr: 0xFAC8, symBinAddr: 0x100012DA8, symSize: 0x44 }
  - { offsetInCU: 0x3B498, offset: 0x3B498, size: 0x8, addend: 0x0, symName: __ZNSt3__117__compressed_pairIPNS_12basic_stringIcNS_11char_traitsIcEENS_9allocatorIcEEEENS4_IS6_EEE6secondB7v160006Ev, symObjAddr: 0xFB0C, symBinAddr: 0x100012DEC, symSize: 0x24 }
  - { offsetInCU: 0x3B4BE, offset: 0x3B4BE, size: 0x8, addend: 0x0, symName: __ZNSt3__122__compressed_pair_elemINS_9allocatorINS_12basic_stringIcNS_11char_traitsIcEENS1_IcEEEEEELi1ELb1EE5__getB7v160006Ev, symObjAddr: 0xFB30, symBinAddr: 0x100012E10, symSize: 0x14 }
  - { offsetInCU: 0x3B4E4, offset: 0x3B4E4, size: 0x8, addend: 0x0, symName: __ZNKSt3__16vectorINS_12basic_stringIcNS_11char_traitsIcEENS_9allocatorIcEEEENS4_IS6_EEE9__end_capB7v160006Ev, symObjAddr: 0xFB44, symBinAddr: 0x100012E24, symSize: 0x28 }
  - { offsetInCU: 0x3B50A, offset: 0x3B50A, size: 0x8, addend: 0x0, symName: __ZNKSt3__117__compressed_pairIPNS_12basic_stringIcNS_11char_traitsIcEENS_9allocatorIcEEEENS4_IS6_EEE5firstB7v160006Ev, symObjAddr: 0xFB6C, symBinAddr: 0x100012E4C, symSize: 0x24 }
  - { offsetInCU: 0x3B530, offset: 0x3B530, size: 0x8, addend: 0x0, symName: __ZNKSt3__122__compressed_pair_elemIPNS_12basic_stringIcNS_11char_traitsIcEENS_9allocatorIcEEEELi0ELb0EE5__getB7v160006Ev, symObjAddr: 0xFB90, symBinAddr: 0x100012E70, symSize: 0x14 }
  - { offsetInCU: 0x3B556, offset: 0x3B556, size: 0x8, addend: 0x0, symName: __ZNSt3__13mapIiNS_6vectorIiNS_9allocatorIiEEEENS_4lessIiEENS2_INS_4pairIKiS4_EEEEEC2B7v160006Ev, symObjAddr: 0xFBA4, symBinAddr: 0x100012E84, symSize: 0x40 }
  - { offsetInCU: 0x3B580, offset: 0x3B580, size: 0x8, addend: 0x0, symName: __ZNSt3__119__map_value_compareIiNS_12__value_typeIiNS_6vectorIiNS_9allocatorIiEEEEEENS_4lessIiEELb1EEC1B7v160006ES8_, symObjAddr: 0xFBE4, symBinAddr: 0x100012EC4, symSize: 0x2C }
  - { offsetInCU: 0x3B5B9, offset: 0x3B5B9, size: 0x8, addend: 0x0, symName: __ZNSt3__16__treeINS_12__value_typeIiNS_6vectorIiNS_9allocatorIiEEEEEENS_19__map_value_compareIiS6_NS_4lessIiEELb1EEENS3_IS6_EEEC1ERKSA_, symObjAddr: 0xFC10, symBinAddr: 0x100012EF0, symSize: 0x34 }
  - { offsetInCU: 0x3B5F4, offset: 0x3B5F4, size: 0x8, addend: 0x0, symName: __ZNSt3__119__map_value_compareIiNS_12__value_typeIiNS_6vectorIiNS_9allocatorIiEEEEEENS_4lessIiEELb1EEC2B7v160006ES8_, symObjAddr: 0xFC44, symBinAddr: 0x100012F24, symSize: 0x14 }
  - { offsetInCU: 0x3B62D, offset: 0x3B62D, size: 0x8, addend: 0x0, symName: __ZNSt3__16__treeINS_12__value_typeIiNS_6vectorIiNS_9allocatorIiEEEEEENS_19__map_value_compareIiS6_NS_4lessIiEELb1EEENS3_IS6_EEEC2ERKSA_, symObjAddr: 0xFC58, symBinAddr: 0x100012F38, symSize: 0x7C }
  - { offsetInCU: 0x3B668, offset: 0x3B668, size: 0x8, addend: 0x0, symName: __ZNSt3__117__compressed_pairINS_15__tree_end_nodeIPNS_16__tree_node_baseIPvEEEENS_9allocatorINS_11__tree_nodeINS_12__value_typeIiNS_6vectorIiNS7_IiEEEEEES3_EEEEEC1B7v160006ILb1EvEEv, symObjAddr: 0xFCD4, symBinAddr: 0x100012FB4, symSize: 0x2C }
  - { offsetInCU: 0x3B69D, offset: 0x3B69D, size: 0x8, addend: 0x0, symName: __ZNSt3__117__compressed_pairImNS_19__map_value_compareIiNS_12__value_typeIiNS_6vectorIiNS_9allocatorIiEEEEEENS_4lessIiEELb1EEEEC1B7v160006IiRKSA_EEOT_OT0_, symObjAddr: 0xFD00, symBinAddr: 0x100012FE0, symSize: 0x3C }
  - { offsetInCU: 0x3B6F5, offset: 0x3B6F5, size: 0x8, addend: 0x0, symName: __ZNSt3__16__treeINS_12__value_typeIiNS_6vectorIiNS_9allocatorIiEEEEEENS_19__map_value_compareIiS6_NS_4lessIiEELb1EEENS3_IS6_EEE10__end_nodeB7v160006Ev, symObjAddr: 0xFD3C, symBinAddr: 0x10001301C, symSize: 0x2C }
  - { offsetInCU: 0x3B71B, offset: 0x3B71B, size: 0x8, addend: 0x0, symName: __ZNSt3__16__treeINS_12__value_typeIiNS_6vectorIiNS_9allocatorIiEEEEEENS_19__map_value_compareIiS6_NS_4lessIiEELb1EEENS3_IS6_EEE12__begin_nodeB7v160006Ev, symObjAddr: 0xFD68, symBinAddr: 0x100013048, symSize: 0x14 }
  - { offsetInCU: 0x3B741, offset: 0x3B741, size: 0x8, addend: 0x0, symName: __ZNSt3__117__compressed_pairINS_15__tree_end_nodeIPNS_16__tree_node_baseIPvEEEENS_9allocatorINS_11__tree_nodeINS_12__value_typeIiNS_6vectorIiNS7_IiEEEEEES3_EEEEEC2B7v160006ILb1EvEEv, symObjAddr: 0xFD7C, symBinAddr: 0x10001305C, symSize: 0x34 }
  - { offsetInCU: 0x3B776, offset: 0x3B776, size: 0x8, addend: 0x0, symName: __ZNSt3__122__compressed_pair_elemINS_9allocatorINS_11__tree_nodeINS_12__value_typeIiNS_6vectorIiNS1_IiEEEEEEPvEEEELi1ELb1EEC2B7v160006ENS_16__value_init_tagE, symObjAddr: 0xFDB0, symBinAddr: 0x100013090, symSize: 0x2C }
  - { offsetInCU: 0x3B7AA, offset: 0x3B7AA, size: 0x8, addend: 0x0, symName: __ZNSt3__19allocatorINS_11__tree_nodeINS_12__value_typeIiNS_6vectorIiNS0_IiEEEEEEPvEEEC2B7v160006Ev, symObjAddr: 0xFDDC, symBinAddr: 0x1000130BC, symSize: 0x2C }
  - { offsetInCU: 0x3B7D4, offset: 0x3B7D4, size: 0x8, addend: 0x0, symName: __ZNSt3__116__non_trivial_ifILb1ENS_9allocatorINS_11__tree_nodeINS_12__value_typeIiNS_6vectorIiNS1_IiEEEEEEPvEEEEEC2B7v160006Ev, symObjAddr: 0xFE08, symBinAddr: 0x1000130E8, symSize: 0x14 }
  - { offsetInCU: 0x3B7FE, offset: 0x3B7FE, size: 0x8, addend: 0x0, symName: __ZNSt3__117__compressed_pairImNS_19__map_value_compareIiNS_12__value_typeIiNS_6vectorIiNS_9allocatorIiEEEEEENS_4lessIiEELb1EEEEC2B7v160006IiRKSA_EEOT_OT0_, symObjAddr: 0xFE1C, symBinAddr: 0x1000130FC, symSize: 0x44 }
  - { offsetInCU: 0x3B856, offset: 0x3B856, size: 0x8, addend: 0x0, symName: __ZNSt3__122__compressed_pair_elemINS_19__map_value_compareIiNS_12__value_typeIiNS_6vectorIiNS_9allocatorIiEEEEEENS_4lessIiEELb1EEELi1ELb1EEC2B7v160006IRKSA_vEEOT_, symObjAddr: 0xFE60, symBinAddr: 0x100013140, symSize: 0x18 }
  - { offsetInCU: 0x3B898, offset: 0x3B898, size: 0x8, addend: 0x0, symName: __ZNSt3__117__compressed_pairINS_15__tree_end_nodeIPNS_16__tree_node_baseIPvEEEENS_9allocatorINS_11__tree_nodeINS_12__value_typeIiNS_6vectorIiNS7_IiEEEEEES3_EEEEE5firstB7v160006Ev, symObjAddr: 0xFE78, symBinAddr: 0x100013158, symSize: 0x24 }
  - { offsetInCU: 0x3B8BE, offset: 0x3B8BE, size: 0x8, addend: 0x0, symName: __ZNSt3__13mapIiNS_6vectorIiNS_9allocatorIiEEEENS_4lessIiEENS2_INS_4pairIKiS4_EEEEED2B7v160006Ev, symObjAddr: 0xFE9C, symBinAddr: 0x10001317C, symSize: 0x2C }
  - { offsetInCU: 0x3B8E8, offset: 0x3B8E8, size: 0x8, addend: 0x0, symName: __ZNSt3__16__treeINS_12__value_typeIiNS_6vectorIiNS_9allocatorIiEEEEEENS_19__map_value_compareIiS6_NS_4lessIiEELb1EEENS3_IS6_EEED1Ev, symObjAddr: 0xFEC8, symBinAddr: 0x1000131A8, symSize: 0x2C }
  - { offsetInCU: 0x3B914, offset: 0x3B914, size: 0x8, addend: 0x0, symName: __ZNSt3__16__treeINS_12__value_typeIiNS_6vectorIiNS_9allocatorIiEEEEEENS_19__map_value_compareIiS6_NS_4lessIiEELb1EEENS3_IS6_EEED2Ev, symObjAddr: 0xFEF4, symBinAddr: 0x1000131D4, symSize: 0x38 }
  - { offsetInCU: 0x3B940, offset: 0x3B940, size: 0x8, addend: 0x0, symName: __ZNSt3__16__treeINS_12__value_typeIiNS_6vectorIiNS_9allocatorIiEEEEEENS_19__map_value_compareIiS6_NS_4lessIiEELb1EEENS3_IS6_EEE7destroyEPNS_11__tree_nodeIS6_PvEE, symObjAddr: 0xFF2C, symBinAddr: 0x10001320C, symSize: 0xAC }
  - { offsetInCU: 0x3B98C, offset: 0x3B98C, size: 0x8, addend: 0x0, symName: __ZNKSt3__16__treeINS_12__value_typeIiNS_6vectorIiNS_9allocatorIiEEEEEENS_19__map_value_compareIiS6_NS_4lessIiEELb1EEENS3_IS6_EEE6__rootB7v160006Ev, symObjAddr: 0xFFD8, symBinAddr: 0x1000132B8, symSize: 0x28 }
  - { offsetInCU: 0x3B9B2, offset: 0x3B9B2, size: 0x8, addend: 0x0, symName: __ZNSt3__16__treeINS_12__value_typeIiNS_6vectorIiNS_9allocatorIiEEEEEENS_19__map_value_compareIiS6_NS_4lessIiEELb1EEENS3_IS6_EEE12__node_allocB7v160006Ev, symObjAddr: 0x10000, symBinAddr: 0x1000132E0, symSize: 0x28 }
  - { offsetInCU: 0x3B9D8, offset: 0x3B9D8, size: 0x8, addend: 0x0, symName: __ZNSt3__116allocator_traitsINS_9allocatorINS_11__tree_nodeINS_12__value_typeIiNS_6vectorIiNS1_IiEEEEEEPvEEEEE7destroyB7v160006INS_4pairIKiS6_EEvvEEvRSA_PT_, symObjAddr: 0x10028, symBinAddr: 0x100013308, symSize: 0x28 }
  - { offsetInCU: 0x3BA12, offset: 0x3BA12, size: 0x8, addend: 0x0, symName: __ZNSt3__122__tree_key_value_typesINS_12__value_typeIiNS_6vectorIiNS_9allocatorIiEEEEEEE9__get_ptrB7v160006ERS6_, symObjAddr: 0x10050, symBinAddr: 0x100013330, symSize: 0x24 }
  - { offsetInCU: 0x3BA36, offset: 0x3BA36, size: 0x8, addend: 0x0, symName: __ZNSt3__116allocator_traitsINS_9allocatorINS_11__tree_nodeINS_12__value_typeIiNS_6vectorIiNS1_IiEEEEEEPvEEEEE10deallocateB7v160006ERSA_PS9_m, symObjAddr: 0x10074, symBinAddr: 0x100013354, symSize: 0x34 }
  - { offsetInCU: 0x3BA78, offset: 0x3BA78, size: 0x8, addend: 0x0, symName: __ZNSt3__117__compressed_pairINS_15__tree_end_nodeIPNS_16__tree_node_baseIPvEEEENS_9allocatorINS_11__tree_nodeINS_12__value_typeIiNS_6vectorIiNS7_IiEEEEEES3_EEEEE6secondB7v160006Ev, symObjAddr: 0x100A8, symBinAddr: 0x100013388, symSize: 0x24 }
  - { offsetInCU: 0x3BA9E, offset: 0x3BA9E, size: 0x8, addend: 0x0, symName: __ZNSt3__122__compressed_pair_elemINS_9allocatorINS_11__tree_nodeINS_12__value_typeIiNS_6vectorIiNS1_IiEEEEEEPvEEEELi1ELb1EE5__getB7v160006Ev, symObjAddr: 0x100CC, symBinAddr: 0x1000133AC, symSize: 0x14 }
  - { offsetInCU: 0x3BAC4, offset: 0x3BAC4, size: 0x8, addend: 0x0, symName: __ZNSt3__14pairIKiNS_6vectorIiNS_9allocatorIiEEEEED1Ev, symObjAddr: 0x100E0, symBinAddr: 0x1000133C0, symSize: 0x2C }
  - { offsetInCU: 0x3BAF0, offset: 0x3BAF0, size: 0x8, addend: 0x0, symName: __ZNSt3__14pairIKiNS_6vectorIiNS_9allocatorIiEEEEED2Ev, symObjAddr: 0x1010C, symBinAddr: 0x1000133EC, symSize: 0x30 }
  - { offsetInCU: 0x3BB1C, offset: 0x3BB1C, size: 0x8, addend: 0x0, symName: __ZNSt3__112__value_typeIiNS_6vectorIiNS_9allocatorIiEEEEE11__get_valueB7v160006Ev, symObjAddr: 0x1013C, symBinAddr: 0x10001341C, symSize: 0x14 }
  - { offsetInCU: 0x3BB42, offset: 0x3BB42, size: 0x8, addend: 0x0, symName: __ZNSt3__19allocatorINS_11__tree_nodeINS_12__value_typeIiNS_6vectorIiNS0_IiEEEEEEPvEEE10deallocateB7v160006EPS8_m, symObjAddr: 0x10150, symBinAddr: 0x100013430, symSize: 0x40 }
  - { offsetInCU: 0x3BB84, offset: 0x3BB84, size: 0x8, addend: 0x0, symName: __ZNKSt3__16__treeINS_12__value_typeIiNS_6vectorIiNS_9allocatorIiEEEEEENS_19__map_value_compareIiS6_NS_4lessIiEELb1EEENS3_IS6_EEE10__end_nodeB7v160006Ev, symObjAddr: 0x10190, symBinAddr: 0x100013470, symSize: 0x2C }
  - { offsetInCU: 0x3BBAA, offset: 0x3BBAA, size: 0x8, addend: 0x0, symName: __ZNKSt3__117__compressed_pairINS_15__tree_end_nodeIPNS_16__tree_node_baseIPvEEEENS_9allocatorINS_11__tree_nodeINS_12__value_typeIiNS_6vectorIiNS7_IiEEEEEES3_EEEEE5firstB7v160006Ev, symObjAddr: 0x101BC, symBinAddr: 0x10001349C, symSize: 0x24 }
  - { offsetInCU: 0x3BBD0, offset: 0x3BBD0, size: 0x8, addend: 0x0, symName: __ZNSt3__16vectorINS0_IiNS_9allocatorIiEEEENS1_IS3_EEEC2B7v160006Ev, symObjAddr: 0x101E0, symBinAddr: 0x1000134C0, symSize: 0x58 }
  - { offsetInCU: 0x3BBFA, offset: 0x3BBFA, size: 0x8, addend: 0x0, symName: __ZNSt3__117__compressed_pairIPNS_6vectorIiNS_9allocatorIiEEEENS2_IS4_EEEC1B7v160006IDnNS_18__default_init_tagEEEOT_OT0_, symObjAddr: 0x10238, symBinAddr: 0x100013518, symSize: 0x3C }
  - { offsetInCU: 0x3BC52, offset: 0x3BC52, size: 0x8, addend: 0x0, symName: __ZNSt3__117__compressed_pairIPNS_6vectorIiNS_9allocatorIiEEEENS2_IS4_EEEC2B7v160006IDnNS_18__default_init_tagEEEOT_OT0_, symObjAddr: 0x10284, symBinAddr: 0x100013564, symSize: 0x40 }
  - { offsetInCU: 0x3BCAA, offset: 0x3BCAA, size: 0x8, addend: 0x0, symName: __ZNSt3__122__compressed_pair_elemIPNS_6vectorIiNS_9allocatorIiEEEELi0ELb0EEC2B7v160006IDnvEEOT_, symObjAddr: 0x102C4, symBinAddr: 0x1000135A4, symSize: 0x1C }
  - { offsetInCU: 0x3BCEC, offset: 0x3BCEC, size: 0x8, addend: 0x0, symName: __ZNSt3__122__compressed_pair_elemINS_9allocatorINS_6vectorIiNS1_IiEEEEEELi1ELb1EEC2B7v160006ENS_18__default_init_tagE, symObjAddr: 0x102E0, symBinAddr: 0x1000135C0, symSize: 0x2C }
  - { offsetInCU: 0x3BD20, offset: 0x3BD20, size: 0x8, addend: 0x0, symName: __ZNSt3__19allocatorINS_6vectorIiNS0_IiEEEEEC2B7v160006Ev, symObjAddr: 0x1030C, symBinAddr: 0x1000135EC, symSize: 0x2C }
  - { offsetInCU: 0x3BD4A, offset: 0x3BD4A, size: 0x8, addend: 0x0, symName: __ZNSt3__116__non_trivial_ifILb1ENS_9allocatorINS_6vectorIiNS1_IiEEEEEEEC2B7v160006Ev, symObjAddr: 0x10338, symBinAddr: 0x100013618, symSize: 0x14 }
  - { offsetInCU: 0x3BD74, offset: 0x3BD74, size: 0x8, addend: 0x0, symName: __ZNSt3__16vectorINS0_IiNS_9allocatorIiEEEENS1_IS3_EEED2B7v160006Ev, symObjAddr: 0x1034C, symBinAddr: 0x10001362C, symSize: 0x44 }
  - { offsetInCU: 0x3BD9E, offset: 0x3BD9E, size: 0x8, addend: 0x0, symName: __ZNSt3__16vectorINS0_IiNS_9allocatorIiEEEENS1_IS3_EEE16__destroy_vectorC1ERS5_, symObjAddr: 0x10390, symBinAddr: 0x100013670, symSize: 0x34 }
  - { offsetInCU: 0x3BDD7, offset: 0x3BDD7, size: 0x8, addend: 0x0, symName: __ZNSt3__16vectorINS0_IiNS_9allocatorIiEEEENS1_IS3_EEE16__destroy_vectorclB7v160006Ev, symObjAddr: 0x103C4, symBinAddr: 0x1000136A4, symSize: 0x9C }
  - { offsetInCU: 0x3BDFD, offset: 0x3BDFD, size: 0x8, addend: 0x0, symName: __ZNSt3__16vectorINS0_IiNS_9allocatorIiEEEENS1_IS3_EEE16__destroy_vectorC2ERS5_, symObjAddr: 0x10460, symBinAddr: 0x100013740, symSize: 0x20 }
  - { offsetInCU: 0x3BE36, offset: 0x3BE36, size: 0x8, addend: 0x0, symName: __ZNKSt3__16vectorINS0_IiNS_9allocatorIiEEEENS1_IS3_EEE17__annotate_deleteB7v160006Ev, symObjAddr: 0x10480, symBinAddr: 0x100013760, symSize: 0xD4 }
  - { offsetInCU: 0x3BE5C, offset: 0x3BE5C, size: 0x8, addend: 0x0, symName: __ZNSt3__16vectorINS0_IiNS_9allocatorIiEEEENS1_IS3_EEE7__clearB7v160006Ev, symObjAddr: 0x10564, symBinAddr: 0x100013844, symSize: 0x28 }
  - { offsetInCU: 0x3BE82, offset: 0x3BE82, size: 0x8, addend: 0x0, symName: __ZNSt3__116allocator_traitsINS_9allocatorINS_6vectorIiNS1_IiEEEEEEE10deallocateB7v160006ERS5_PS4_m, symObjAddr: 0x1058C, symBinAddr: 0x10001386C, symSize: 0x34 }
  - { offsetInCU: 0x3BEC4, offset: 0x3BEC4, size: 0x8, addend: 0x0, symName: __ZNSt3__16vectorINS0_IiNS_9allocatorIiEEEENS1_IS3_EEE7__allocB7v160006Ev, symObjAddr: 0x105C0, symBinAddr: 0x1000138A0, symSize: 0x28 }
  - { offsetInCU: 0x3BEEA, offset: 0x3BEEA, size: 0x8, addend: 0x0, symName: __ZNKSt3__16vectorINS0_IiNS_9allocatorIiEEEENS1_IS3_EEE8capacityB7v160006Ev, symObjAddr: 0x105E8, symBinAddr: 0x1000138C8, symSize: 0x40 }
  - { offsetInCU: 0x3BF10, offset: 0x3BF10, size: 0x8, addend: 0x0, symName: __ZNKSt3__16vectorINS0_IiNS_9allocatorIiEEEENS1_IS3_EEE31__annotate_contiguous_containerB7v160006EPKvS7_S7_S7_, symObjAddr: 0x10628, symBinAddr: 0x100013908, symSize: 0x20 }
  - { offsetInCU: 0x3BF62, offset: 0x3BF62, size: 0x8, addend: 0x0, symName: __ZNKSt3__16vectorINS0_IiNS_9allocatorIiEEEENS1_IS3_EEE4dataB7v160006Ev, symObjAddr: 0x10648, symBinAddr: 0x100013928, symSize: 0x28 }
  - { offsetInCU: 0x3BF88, offset: 0x3BF88, size: 0x8, addend: 0x0, symName: __ZNSt3__16vectorINS0_IiNS_9allocatorIiEEEENS1_IS3_EEE22__base_destruct_at_endB7v160006EPS3_, symObjAddr: 0x10684, symBinAddr: 0x100013964, symSize: 0x8C }
  - { offsetInCU: 0x3BFCC, offset: 0x3BFCC, size: 0x8, addend: 0x0, symName: __ZNSt3__116allocator_traitsINS_9allocatorINS_6vectorIiNS1_IiEEEEEEE7destroyB7v160006IS4_vEEvRS5_PT_, symObjAddr: 0x10710, symBinAddr: 0x1000139F0, symSize: 0x2C }
  - { offsetInCU: 0x3C009, offset: 0x3C009, size: 0x8, addend: 0x0, symName: __ZNSt3__19allocatorINS_6vectorIiNS0_IiEEEEE7destroyB7v160006EPS3_, symObjAddr: 0x1073C, symBinAddr: 0x100013A1C, symSize: 0x28 }
  - { offsetInCU: 0x3C03D, offset: 0x3C03D, size: 0x8, addend: 0x0, symName: __ZNSt3__19allocatorINS_6vectorIiNS0_IiEEEEE10deallocateB7v160006EPS3_m, symObjAddr: 0x10764, symBinAddr: 0x100013A44, symSize: 0x44 }
  - { offsetInCU: 0x3C07F, offset: 0x3C07F, size: 0x8, addend: 0x0, symName: __ZNSt3__117__compressed_pairIPNS_6vectorIiNS_9allocatorIiEEEENS2_IS4_EEE6secondB7v160006Ev, symObjAddr: 0x107A8, symBinAddr: 0x100013A88, symSize: 0x24 }
  - { offsetInCU: 0x3C0A5, offset: 0x3C0A5, size: 0x8, addend: 0x0, symName: __ZNSt3__122__compressed_pair_elemINS_9allocatorINS_6vectorIiNS1_IiEEEEEELi1ELb1EE5__getB7v160006Ev, symObjAddr: 0x107CC, symBinAddr: 0x100013AAC, symSize: 0x14 }
  - { offsetInCU: 0x3C0CB, offset: 0x3C0CB, size: 0x8, addend: 0x0, symName: __ZNKSt3__16vectorINS0_IiNS_9allocatorIiEEEENS1_IS3_EEE9__end_capB7v160006Ev, symObjAddr: 0x107E0, symBinAddr: 0x100013AC0, symSize: 0x28 }
  - { offsetInCU: 0x3C0F1, offset: 0x3C0F1, size: 0x8, addend: 0x0, symName: __ZNKSt3__117__compressed_pairIPNS_6vectorIiNS_9allocatorIiEEEENS2_IS4_EEE5firstB7v160006Ev, symObjAddr: 0x10808, symBinAddr: 0x100013AE8, symSize: 0x24 }
  - { offsetInCU: 0x3C117, offset: 0x3C117, size: 0x8, addend: 0x0, symName: __ZNKSt3__122__compressed_pair_elemIPNS_6vectorIiNS_9allocatorIiEEEELi0ELb0EE5__getB7v160006Ev, symObjAddr: 0x1082C, symBinAddr: 0x100013B0C, symSize: 0x14 }
  - { offsetInCU: 0x3C13D, offset: 0x3C13D, size: 0x8, addend: 0x0, symName: __ZNKSt3__16__treeIiNS_4lessIiEENS_9allocatorIiEEE5beginB7v160006Ev, symObjAddr: 0x10840, symBinAddr: 0x100013B20, symSize: 0x34 }
  - { offsetInCU: 0x3C163, offset: 0x3C163, size: 0x8, addend: 0x0, symName: __ZNKSt3__16__treeIiNS_4lessIiEENS_9allocatorIiEEE12__begin_nodeB7v160006Ev, symObjAddr: 0x10874, symBinAddr: 0x100013B54, symSize: 0x14 }
  - { offsetInCU: 0x3C189, offset: 0x3C189, size: 0x8, addend: 0x0, symName: __ZNSt3__121__tree_const_iteratorIiPNS_11__tree_nodeIiPvEElEC1B7v160006EPNS_15__tree_end_nodeIPNS_16__tree_node_baseIS2_EEEE, symObjAddr: 0x10888, symBinAddr: 0x100013B68, symSize: 0x34 }
  - { offsetInCU: 0x3C1C2, offset: 0x3C1C2, size: 0x8, addend: 0x0, symName: __ZNSt3__121__tree_const_iteratorIiPNS_11__tree_nodeIiPvEElEC2B7v160006EPNS_15__tree_end_nodeIPNS_16__tree_node_baseIS2_EEEE, symObjAddr: 0x108BC, symBinAddr: 0x100013B9C, symSize: 0x20 }
  - { offsetInCU: 0x3C1FB, offset: 0x3C1FB, size: 0x8, addend: 0x0, symName: __ZNKSt3__16__treeIiNS_4lessIiEENS_9allocatorIiEEE3endB7v160006Ev, symObjAddr: 0x108DC, symBinAddr: 0x100013BBC, symSize: 0x34 }
  - { offsetInCU: 0x3C221, offset: 0x3C221, size: 0x8, addend: 0x0, symName: __ZNSt3__16__treeIiNS_4lessIiEENS_9allocatorIiEEE15__insert_uniqueB7v160006ERKi, symObjAddr: 0x109D0, symBinAddr: 0x100013CB0, symSize: 0x50 }
  - { offsetInCU: 0x3C256, offset: 0x3C256, size: 0x8, addend: 0x0, symName: __ZNSt3__14pairINS_21__tree_const_iteratorIiPNS_11__tree_nodeIiPvEElEEbEC1B7v160006INS_15__tree_iteratorIiS5_lEEbLS3_0EEEONS0_IT_T0_EE, symObjAddr: 0x10A20, symBinAddr: 0x100013D00, symSize: 0x34 }
  - { offsetInCU: 0x3C2A7, offset: 0x3C2A7, size: 0x8, addend: 0x0, symName: __ZNSt3__16__treeIiNS_4lessIiEENS_9allocatorIiEEE25__emplace_unique_key_argsIiJRKiEEENS_4pairINS_15__tree_iteratorIiPNS_11__tree_nodeIiPvEElEEbEERKT_DpOT0_, symObjAddr: 0x10A54, symBinAddr: 0x100013D34, symSize: 0xF0 }
  - { offsetInCU: 0x3C353, offset: 0x3C353, size: 0x8, addend: 0x0, symName: __ZNSt3__14pairINS_21__tree_const_iteratorIiPNS_11__tree_nodeIiPvEElEEbEC2B7v160006INS_15__tree_iteratorIiS5_lEEbLS3_0EEEONS0_IT_T0_EE, symObjAddr: 0x10B44, symBinAddr: 0x100013E24, symSize: 0x50 }
  - { offsetInCU: 0x3C3A4, offset: 0x3C3A4, size: 0x8, addend: 0x0, symName: __ZNSt3__16vectorIbNS_9allocatorIbEEEC2B7v160006Ev, symObjAddr: 0x10B94, symBinAddr: 0x100013E74, symSize: 0x4C }
  - { offsetInCU: 0x3C3D0, offset: 0x3C3D0, size: 0x8, addend: 0x0, symName: __ZNSt3__117__compressed_pairImNS_9allocatorImEEEC1B7v160006IiNS_18__default_init_tagEEEOT_OT0_, symObjAddr: 0x10BE0, symBinAddr: 0x100013EC0, symSize: 0x3C }
  - { offsetInCU: 0x3C428, offset: 0x3C428, size: 0x8, addend: 0x0, symName: __ZNSt3__117__compressed_pairImNS_9allocatorImEEEC2B7v160006IiNS_18__default_init_tagEEEOT_OT0_, symObjAddr: 0x10C1C, symBinAddr: 0x100013EFC, symSize: 0x40 }
  - { offsetInCU: 0x3C480, offset: 0x3C480, size: 0x8, addend: 0x0, symName: __ZNSt3__122__compressed_pair_elemINS_9allocatorImEELi1ELb1EEC2B7v160006ENS_18__default_init_tagE, symObjAddr: 0x10C5C, symBinAddr: 0x100013F3C, symSize: 0x2C }
  - { offsetInCU: 0x3C4B4, offset: 0x3C4B4, size: 0x8, addend: 0x0, symName: __ZNSt3__19allocatorImEC2B7v160006Ev, symObjAddr: 0x10C88, symBinAddr: 0x100013F68, symSize: 0x2C }
  - { offsetInCU: 0x3C4DE, offset: 0x3C4DE, size: 0x8, addend: 0x0, symName: __ZNSt3__116__non_trivial_ifILb1ENS_9allocatorImEEEC2B7v160006Ev, symObjAddr: 0x10CB4, symBinAddr: 0x100013F94, symSize: 0x14 }
  - { offsetInCU: 0x3C508, offset: 0x3C508, size: 0x8, addend: 0x0, symName: __ZNSt3__16vectorIbNS_9allocatorIbEEED2B7v160006Ev, symObjAddr: 0x10CC8, symBinAddr: 0x100013FA8, symSize: 0x44 }
  - { offsetInCU: 0x3C532, offset: 0x3C532, size: 0x8, addend: 0x0, symName: __ZNSt3__16vectorIbNS_9allocatorIbEEE16__destroy_vectorC1ERS3_, symObjAddr: 0x10D0C, symBinAddr: 0x100013FEC, symSize: 0x34 }
  - { offsetInCU: 0x3C56B, offset: 0x3C56B, size: 0x8, addend: 0x0, symName: __ZNSt3__16vectorIbNS_9allocatorIbEEE16__destroy_vectorclB7v160006Ev, symObjAddr: 0x10D40, symBinAddr: 0x100014020, symSize: 0x84 }
  - { offsetInCU: 0x3C591, offset: 0x3C591, size: 0x8, addend: 0x0, symName: __ZNSt3__16vectorIbNS_9allocatorIbEEE16__destroy_vectorC2ERS3_, symObjAddr: 0x10DC4, symBinAddr: 0x1000140A4, symSize: 0x20 }
  - { offsetInCU: 0x3C5CA, offset: 0x3C5CA, size: 0x8, addend: 0x0, symName: __ZNSt3__116allocator_traitsINS_9allocatorImEEE10deallocateB7v160006ERS2_Pmm, symObjAddr: 0x10DE4, symBinAddr: 0x1000140C4, symSize: 0x34 }
  - { offsetInCU: 0x3C60C, offset: 0x3C60C, size: 0x8, addend: 0x0, symName: __ZNSt3__16vectorIbNS_9allocatorIbEEE7__allocB7v160006Ev, symObjAddr: 0x10E18, symBinAddr: 0x1000140F8, symSize: 0x28 }
  - { offsetInCU: 0x3C632, offset: 0x3C632, size: 0x8, addend: 0x0, symName: __ZNSt3__16vectorIbNS_9allocatorIbEEE5__capB7v160006Ev, symObjAddr: 0x10E40, symBinAddr: 0x100014120, symSize: 0x28 }
  - { offsetInCU: 0x3C658, offset: 0x3C658, size: 0x8, addend: 0x0, symName: __ZNSt3__19allocatorImE10deallocateB7v160006EPmm, symObjAddr: 0x10E78, symBinAddr: 0x100014158, symSize: 0x40 }
  - { offsetInCU: 0x3C69A, offset: 0x3C69A, size: 0x8, addend: 0x0, symName: __ZNSt3__117__compressed_pairImNS_9allocatorImEEE6secondB7v160006Ev, symObjAddr: 0x10EB8, symBinAddr: 0x100014198, symSize: 0x24 }
  - { offsetInCU: 0x3C6C0, offset: 0x3C6C0, size: 0x8, addend: 0x0, symName: __ZNSt3__122__compressed_pair_elemINS_9allocatorImEELi1ELb1EE5__getB7v160006Ev, symObjAddr: 0x10EDC, symBinAddr: 0x1000141BC, symSize: 0x14 }
  - { offsetInCU: 0x3C6E6, offset: 0x3C6E6, size: 0x8, addend: 0x0, symName: __ZNSt3__117__compressed_pairImNS_9allocatorImEEE5firstB7v160006Ev, symObjAddr: 0x10EF0, symBinAddr: 0x1000141D0, symSize: 0x24 }
  - { offsetInCU: 0x3C70C, offset: 0x3C70C, size: 0x8, addend: 0x0, symName: __ZNKSt3__13setIiNS_4lessIiEENS_9allocatorIiEEE4sizeB7v160006Ev, symObjAddr: 0x10F14, symBinAddr: 0x1000141F4, symSize: 0x28 }
  - { offsetInCU: 0x3C732, offset: 0x3C732, size: 0x8, addend: 0x0, symName: __ZNKSt3__16__treeIiNS_4lessIiEENS_9allocatorIiEEE4sizeB7v160006Ev, symObjAddr: 0x10F8C, symBinAddr: 0x10001426C, symSize: 0x28 }
  - { offsetInCU: 0x3C758, offset: 0x3C758, size: 0x8, addend: 0x0, symName: __ZNKSt3__117__compressed_pairImNS_4lessIiEEE5firstB7v160006Ev, symObjAddr: 0x10FB4, symBinAddr: 0x100014294, symSize: 0x24 }
  - { offsetInCU: 0x3C788, offset: 0x3C788, size: 0x8, addend: 0x0, symName: __ZNKSt3__110__equal_toclB7v160006IiiEEbRKT_RKT0_, symObjAddr: 0x11088, symBinAddr: 0x100014368, symSize: 0x34 }
  - { offsetInCU: 0x3C7DC, offset: 0x3C7DC, size: 0x8, addend: 0x0, symName: __ZNSt3__19basic_iosIcNS_11char_traitsIcEEEC2B7v160006Ev, symObjAddr: 0x110BC, symBinAddr: 0x10001439C, symSize: 0x44 }
  - { offsetInCU: 0x3C806, offset: 0x3C806, size: 0x8, addend: 0x0, symName: __ZNSt3__113basic_istreamIcNS_11char_traitsIcEEEC2B7v160006EPNS_15basic_streambufIcS2_EE, symObjAddr: 0x11100, symBinAddr: 0x1000143E0, symSize: 0x64 }
  - { offsetInCU: 0x3C84B, offset: 0x3C84B, size: 0x8, addend: 0x0, symName: __ZNSt3__18ios_baseC2B7v160006Ev, symObjAddr: 0x11164, symBinAddr: 0x100014444, symSize: 0x24 }
  - { offsetInCU: 0x3C875, offset: 0x3C875, size: 0x8, addend: 0x0, symName: __ZNSt3__19basic_iosIcNS_11char_traitsIcEEE4initB7v160006EPNS_15basic_streambufIcS2_EE, symObjAddr: 0x11188, symBinAddr: 0x100014468, symSize: 0x44 }
  - { offsetInCU: 0x3C8AC, offset: 0x3C8AC, size: 0x8, addend: 0x0, symName: __ZNSt3__111char_traitsIcE3eofEv, symObjAddr: 0x111CC, symBinAddr: 0x1000144AC, symSize: 0x8 }
  - { offsetInCU: 0x3C8C0, offset: 0x3C8C0, size: 0x8, addend: 0x0, symName: __ZNSt3__113basic_ostreamIcNS_11char_traitsIcEEEC2B7v160006EPNS_15basic_streambufIcS2_EE, symObjAddr: 0x111D4, symBinAddr: 0x1000144B4, symSize: 0x60 }
  - { offsetInCU: 0x3C905, offset: 0x3C905, size: 0x8, addend: 0x0, symName: __ZNSt3__111char_traitsIcE6lengthEPKc, symObjAddr: 0x11420, symBinAddr: 0x100014700, symSize: 0x34 }
  - { offsetInCU: 0x3C946, offset: 0x3C946, size: 0x8, addend: 0x0, symName: __ZNKSt3__113basic_ostreamIcNS_11char_traitsIcEEE6sentrycvbB7v160006Ev, symObjAddr: 0x11454, symBinAddr: 0x100014734, symSize: 0x1C }
  - { offsetInCU: 0x3C96C, offset: 0x3C96C, size: 0x8, addend: 0x0, symName: __ZNSt3__119ostreambuf_iteratorIcNS_11char_traitsIcEEEC1B7v160006ERNS_13basic_ostreamIcS2_EE, symObjAddr: 0x116B0, symBinAddr: 0x100014990, symSize: 0x34 }
  - { offsetInCU: 0x3C9A4, offset: 0x3C9A4, size: 0x8, addend: 0x0, symName: __ZNKSt3__18ios_base5flagsB7v160006Ev, symObjAddr: 0x116E4, symBinAddr: 0x1000149C4, symSize: 0x18 }
  - { offsetInCU: 0x3C9CC, offset: 0x3C9CC, size: 0x8, addend: 0x0, symName: __ZNKSt3__19basic_iosIcNS_11char_traitsIcEEE4fillB7v160006Ev, symObjAddr: 0x116FC, symBinAddr: 0x1000149DC, symSize: 0x64 }
  - { offsetInCU: 0x3C9F4, offset: 0x3C9F4, size: 0x8, addend: 0x0, symName: __ZNKSt3__119ostreambuf_iteratorIcNS_11char_traitsIcEEE6failedB7v160006Ev, symObjAddr: 0x11760, symBinAddr: 0x100014A40, symSize: 0x24 }
  - { offsetInCU: 0x3CA1A, offset: 0x3CA1A, size: 0x8, addend: 0x0, symName: __ZNSt3__19basic_iosIcNS_11char_traitsIcEEE8setstateB7v160006Ej, symObjAddr: 0x11784, symBinAddr: 0x100014A64, symSize: 0x2C }
  - { offsetInCU: 0x3CA4F, offset: 0x3CA4F, size: 0x8, addend: 0x0, symName: __ZNKSt3__18ios_base5widthB7v160006Ev, symObjAddr: 0x117B0, symBinAddr: 0x100014A90, symSize: 0x18 }
  - { offsetInCU: 0x3CA77, offset: 0x3CA77, size: 0x8, addend: 0x0, symName: __ZNSt3__115basic_streambufIcNS_11char_traitsIcEEE5sputnB7v160006EPKcl, symObjAddr: 0x117C8, symBinAddr: 0x100014AA8, symSize: 0x3C }
  - { offsetInCU: 0x3CAB9, offset: 0x3CAB9, size: 0x8, addend: 0x0, symName: __ZNSt3__112basic_stringIcNS_11char_traitsIcEENS_9allocatorIcEEEC1B7v160006Emc, symObjAddr: 0x11804, symBinAddr: 0x100014AE4, symSize: 0x3C }
  - { offsetInCU: 0x3CB01, offset: 0x3CB01, size: 0x8, addend: 0x0, symName: __ZNKSt3__112basic_stringIcNS_11char_traitsIcEENS_9allocatorIcEEE4dataB7v160006Ev, symObjAddr: 0x11840, symBinAddr: 0x100014B20, symSize: 0x28 }
  - { offsetInCU: 0x3CB27, offset: 0x3CB27, size: 0x8, addend: 0x0, symName: __ZNSt3__18ios_base5widthB7v160006El, symObjAddr: 0x11868, symBinAddr: 0x100014B48, symSize: 0x2C }
  - { offsetInCU: 0x3CB6D, offset: 0x3CB6D, size: 0x8, addend: 0x0, symName: __ZNSt3__112basic_stringIcNS_11char_traitsIcEENS_9allocatorIcEEEC2B7v160006Emc, symObjAddr: 0x11894, symBinAddr: 0x100014B74, symSize: 0x54 }
  - { offsetInCU: 0x3CBB5, offset: 0x3CBB5, size: 0x8, addend: 0x0, symName: __ZNKSt3__112basic_stringIcNS_11char_traitsIcEENS_9allocatorIcEEE13__get_pointerB7v160006Ev, symObjAddr: 0x118FC, symBinAddr: 0x100014BDC, symSize: 0x54 }
  - { offsetInCU: 0x3CBDB, offset: 0x3CBDB, size: 0x8, addend: 0x0, symName: __ZNKSt3__112basic_stringIcNS_11char_traitsIcEENS_9allocatorIcEEE18__get_long_pointerB7v160006Ev, symObjAddr: 0x11950, symBinAddr: 0x100014C30, symSize: 0x28 }
  - { offsetInCU: 0x3CC01, offset: 0x3CC01, size: 0x8, addend: 0x0, symName: __ZNKSt3__112basic_stringIcNS_11char_traitsIcEENS_9allocatorIcEEE19__get_short_pointerB7v160006Ev, symObjAddr: 0x11978, symBinAddr: 0x100014C58, symSize: 0x28 }
  - { offsetInCU: 0x3CC27, offset: 0x3CC27, size: 0x8, addend: 0x0, symName: __ZNSt3__114pointer_traitsIPKcE10pointer_toB7v160006ERS1_, symObjAddr: 0x119A0, symBinAddr: 0x100014C80, symSize: 0x14 }
  - { offsetInCU: 0x3CC4A, offset: 0x3CC4A, size: 0x8, addend: 0x0, symName: __ZNSt3__119ostreambuf_iteratorIcNS_11char_traitsIcEEEC2B7v160006ERNS_13basic_ostreamIcS2_EE, symObjAddr: 0x119B4, symBinAddr: 0x100014C94, symSize: 0x54 }
  - { offsetInCU: 0x3CC82, offset: 0x3CC82, size: 0x8, addend: 0x0, symName: __ZNKSt3__19basic_iosIcNS_11char_traitsIcEEE5rdbufB7v160006Ev, symObjAddr: 0x11A08, symBinAddr: 0x100014CE8, symSize: 0x24 }
  - { offsetInCU: 0x3CCAA, offset: 0x3CCAA, size: 0x8, addend: 0x0, symName: __ZNKSt3__18ios_base5rdbufB7v160006Ev, symObjAddr: 0x11A2C, symBinAddr: 0x100014D0C, symSize: 0x18 }
  - { offsetInCU: 0x3CCD0, offset: 0x3CCD0, size: 0x8, addend: 0x0, symName: __ZNSt3__111char_traitsIcE11eq_int_typeEii, symObjAddr: 0x11A44, symBinAddr: 0x100014D24, symSize: 0x28 }
  - { offsetInCU: 0x3CD01, offset: 0x3CD01, size: 0x8, addend: 0x0, symName: __ZNKSt3__19basic_iosIcNS_11char_traitsIcEEE5widenB7v160006Ec, symObjAddr: 0x11A6C, symBinAddr: 0x100014D4C, symSize: 0x84 }
  - { offsetInCU: 0x3CD65, offset: 0x3CD65, size: 0x8, addend: 0x0, symName: __ZNKSt3__15ctypeIcE5widenB7v160006Ec, symObjAddr: 0x11B1C, symBinAddr: 0x100014DFC, symSize: 0x38 }
  - { offsetInCU: 0x3CD9A, offset: 0x3CD9A, size: 0x8, addend: 0x0, symName: __ZNSt3__18ios_base8setstateB7v160006Ej, symObjAddr: 0x11B54, symBinAddr: 0x100014E34, symSize: 0x34 }
  - { offsetInCU: 0x3CDEF, offset: 0x3CDEF, size: 0x8, addend: 0x0, symName: __ZNKSt3__113basic_istreamIcNS_11char_traitsIcEEE6sentrycvbB7v160006Ev, symObjAddr: 0x11BAC, symBinAddr: 0x100014E8C, symSize: 0x1C }
  - { offsetInCU: 0x3CE15, offset: 0x3CE15, size: 0x8, addend: 0x0, symName: __ZNSt3__112basic_stringIcNS_11char_traitsIcEENS_9allocatorIcEEE5clearB7v160006Ev, symObjAddr: 0x11BC8, symBinAddr: 0x100014EA8, symSize: 0x88 }
  - { offsetInCU: 0x3CE3D, offset: 0x3CE3D, size: 0x8, addend: 0x0, symName: __ZNKSt3__112basic_stringIcNS_11char_traitsIcEENS_9allocatorIcEEE8max_sizeB7v160006Ev, symObjAddr: 0x11C50, symBinAddr: 0x100014F30, symSize: 0xAC }
  - { offsetInCU: 0x3CE8F, offset: 0x3CE8F, size: 0x8, addend: 0x0, symName: __ZNSt3__114numeric_limitsIlE3maxB7v160006Ev, symObjAddr: 0x11CFC, symBinAddr: 0x100014FDC, symSize: 0x14 }
  - { offsetInCU: 0x3CEA3, offset: 0x3CEA3, size: 0x8, addend: 0x0, symName: __ZNSt3__115basic_streambufIcNS_11char_traitsIcEEE5sgetcB7v160006Ev, symObjAddr: 0x11D10, symBinAddr: 0x100014FF0, symSize: 0x70 }
  - { offsetInCU: 0x3CEC9, offset: 0x3CEC9, size: 0x8, addend: 0x0, symName: __ZNSt3__111char_traitsIcE12to_char_typeEi, symObjAddr: 0x11D80, symBinAddr: 0x100015060, symSize: 0x18 }
  - { offsetInCU: 0x3CEEC, offset: 0x3CEEC, size: 0x8, addend: 0x0, symName: __ZNKSt3__15ctypeIcE2isB7v160006Ejc, symObjAddr: 0x11D98, symBinAddr: 0x100015078, symSize: 0x7C }
  - { offsetInCU: 0x3CF30, offset: 0x3CF30, size: 0x8, addend: 0x0, symName: __ZNSt3__115basic_streambufIcNS_11char_traitsIcEEE6sbumpcB7v160006Ev, symObjAddr: 0x11E14, symBinAddr: 0x1000150F4, symSize: 0x78 }
  - { offsetInCU: 0x3CF56, offset: 0x3CF56, size: 0x8, addend: 0x0, symName: __ZNSt3__18ios_base18__setstate_nothrowB7v160006Ej, symObjAddr: 0x11E8C, symBinAddr: 0x10001516C, symSize: 0x64 }
  - { offsetInCU: 0x3CF8B, offset: 0x3CF8B, size: 0x8, addend: 0x0, symName: __ZNKSt3__19basic_iosIcNS_11char_traitsIcEEE10exceptionsB7v160006Ev, symObjAddr: 0x11EF0, symBinAddr: 0x1000151D0, symSize: 0x24 }
  - { offsetInCU: 0x3CFB1, offset: 0x3CFB1, size: 0x8, addend: 0x0, symName: __ZNSt3__112basic_stringIcNS_11char_traitsIcEENS_9allocatorIcEEE15__set_long_sizeB7v160006Em, symObjAddr: 0x11F24, symBinAddr: 0x100015204, symSize: 0x38 }
  - { offsetInCU: 0x3CFF0, offset: 0x3CFF0, size: 0x8, addend: 0x0, symName: __ZNSt3__116allocator_traitsINS_9allocatorIcEEE8max_sizeB7v160006IS2_vEEmRKS2_, symObjAddr: 0x11F5C, symBinAddr: 0x10001523C, symSize: 0x24 }
  - { offsetInCU: 0x3D01E, offset: 0x3D01E, size: 0x8, addend: 0x0, symName: __ZNKSt3__112basic_stringIcNS_11char_traitsIcEENS_9allocatorIcEEE7__allocB7v160006Ev, symObjAddr: 0x11F80, symBinAddr: 0x100015260, symSize: 0x24 }
  - { offsetInCU: 0x3D044, offset: 0x3D044, size: 0x8, addend: 0x0, symName: __ZNSt3__114numeric_limitsImE3maxB7v160006Ev, symObjAddr: 0x11FA4, symBinAddr: 0x100015284, symSize: 0x14 }
  - { offsetInCU: 0x3D058, offset: 0x3D058, size: 0x8, addend: 0x0, symName: __ZNKSt3__19allocatorIcE8max_sizeB7v160006Ev, symObjAddr: 0x11FB8, symBinAddr: 0x100015298, symSize: 0x14 }
  - { offsetInCU: 0x3D07E, offset: 0x3D07E, size: 0x8, addend: 0x0, symName: __ZNKSt3__117__compressed_pairINS_12basic_stringIcNS_11char_traitsIcEENS_9allocatorIcEEE5__repES5_E6secondB7v160006Ev, symObjAddr: 0x11FCC, symBinAddr: 0x1000152AC, symSize: 0x24 }
  - { offsetInCU: 0x3D0A4, offset: 0x3D0A4, size: 0x8, addend: 0x0, symName: __ZNKSt3__122__compressed_pair_elemINS_9allocatorIcEELi1ELb1EE5__getB7v160006Ev, symObjAddr: 0x11FF0, symBinAddr: 0x1000152D0, symSize: 0x14 }
  - { offsetInCU: 0x3D0CA, offset: 0x3D0CA, size: 0x8, addend: 0x0, symName: __ZNSt3__123__libcpp_numeric_limitsImLb1EE3maxB7v160006Ev, symObjAddr: 0x12004, symBinAddr: 0x1000152E4, symSize: 0x8 }
  - { offsetInCU: 0x3D0DE, offset: 0x3D0DE, size: 0x8, addend: 0x0, symName: __ZNSt3__123__libcpp_numeric_limitsIlLb1EE3maxB7v160006Ev, symObjAddr: 0x1200C, symBinAddr: 0x1000152EC, symSize: 0x8 }
  - { offsetInCU: 0x3D0F2, offset: 0x3D0F2, size: 0x8, addend: 0x0, symName: __ZNSt3__111char_traitsIcE11to_int_typeEc, symObjAddr: 0x12014, symBinAddr: 0x1000152F4, symSize: 0x14 }
  - { offsetInCU: 0x3D114, offset: 0x3D114, size: 0x8, addend: 0x0, symName: __Z7isasciii, symObjAddr: 0x12028, symBinAddr: 0x100015308, symSize: 0x24 }
  - { offsetInCU: 0x3D141, offset: 0x3D141, size: 0x8, addend: 0x0, symName: __ZNKSt3__18ios_base10exceptionsB7v160006Ev, symObjAddr: 0x1204C, symBinAddr: 0x10001532C, symSize: 0x18 }
  - { offsetInCU: 0x3D169, offset: 0x3D169, size: 0x8, addend: 0x0, symName: __ZNKSt3__18ios_base4failB7v160006Ev, symObjAddr: 0x12064, symBinAddr: 0x100015344, symSize: 0x28 }
  - { offsetInCU: 0x3D191, offset: 0x3D191, size: 0x8, addend: 0x0, symName: __ZNKSt3__112basic_stringIcNS_11char_traitsIcEENS_9allocatorIcEEE4sizeB7v160006Ev, symObjAddr: 0x1208C, symBinAddr: 0x10001536C, symSize: 0x54 }
  - { offsetInCU: 0x3D1B7, offset: 0x3D1B7, size: 0x8, addend: 0x0, symName: __ZNKSt3__112basic_stringIcNS_11char_traitsIcEENS_9allocatorIcEEE15__get_long_sizeB7v160006Ev, symObjAddr: 0x120E0, symBinAddr: 0x1000153C0, symSize: 0x28 }
  - { offsetInCU: 0x3D1DD, offset: 0x3D1DD, size: 0x8, addend: 0x0, symName: __ZNKSt3__112basic_stringIcNS_11char_traitsIcEENS_9allocatorIcEEE16__get_short_sizeB7v160006Ev, symObjAddr: 0x12108, symBinAddr: 0x1000153E8, symSize: 0x34 }
  - { offsetInCU: 0x3D203, offset: 0x3D203, size: 0x8, addend: 0x0, symName: __ZNSt3__111char_traitsIcE2eqEcc, symObjAddr: 0x12370, symBinAddr: 0x100015650, symSize: 0x28 }
  - { offsetInCU: 0x3D234, offset: 0x3D234, size: 0x8, addend: 0x0, symName: __ZNKSt3__18ios_base3eofB7v160006Ev, symObjAddr: 0x12398, symBinAddr: 0x100015678, symSize: 0x24 }
  - { offsetInCU: 0x3D25C, offset: 0x3D25C, size: 0x8, addend: 0x0, symName: __ZNSt3__112basic_stringIcNS_11char_traitsIcEENS_9allocatorIcEEEC2B7v160006IDnEEPKc, symObjAddr: 0x123BC, symBinAddr: 0x10001569C, symSize: 0x60 }
  - { offsetInCU: 0x3D29A, offset: 0x3D29A, size: 0x8, addend: 0x0, symName: __ZNSt3__111char_traitsIcE4findEPKcmRS2_, symObjAddr: 0x12654, symBinAddr: 0x100015934, symSize: 0x70 }
  - { offsetInCU: 0x3D2D9, offset: 0x3D2D9, size: 0x8, addend: 0x0, symName: __ZNSt3__111char_traitsIcE7compareEPKcS3_m, symObjAddr: 0x126C4, symBinAddr: 0x1000159A4, symSize: 0x6C }
  - { offsetInCU: 0x3D318, offset: 0x3D318, size: 0x8, addend: 0x0, symName: __ZNSt3__19allocatorIcEC1B7v160006Ev, symObjAddr: 0x12798, symBinAddr: 0x100015A78, symSize: 0x2C }
  - { offsetInCU: 0x3D342, offset: 0x3D342, size: 0x8, addend: 0x0, symName: __ZNKSt3__16__treeINS_12__value_typeINS_12basic_stringIcNS_11char_traitsIcEENS_9allocatorIcEEEEiEENS_19__map_value_compareIS7_S8_NS_4lessIS7_EELb1EEENS5_IS8_EEE4sizeB7v160006Ev, symObjAddr: 0x127C4, symBinAddr: 0x100015AA4, symSize: 0x28 }
  - { offsetInCU: 0x3D368, offset: 0x3D368, size: 0x8, addend: 0x0, symName: __ZNKSt3__117__compressed_pairImNS_19__map_value_compareINS_12basic_stringIcNS_11char_traitsIcEENS_9allocatorIcEEEENS_12__value_typeIS7_iEENS_4lessIS7_EELb1EEEE5firstB7v160006Ev, symObjAddr: 0x127EC, symBinAddr: 0x100015ACC, symSize: 0x24 }
  - { offsetInCU: 0x3D3A3, offset: 0x3D3A3, size: 0x8, addend: 0x0, symName: __ZNSt3__16__treeINS_12__value_typeINS_12basic_stringIcNS_11char_traitsIcEENS_9allocatorIcEEEEiEENS_19__map_value_compareIS7_S8_NS_4lessIS7_EELb1EEENS5_IS8_EEE25__emplace_unique_key_argsIS7_JRKNS_21piecewise_construct_tENS_5tupleIJRKS7_EEENSJ_IJEEEEEENS_4pairINS_15__tree_iteratorIS8_PNS_11__tree_nodeIS8_PvEElEEbEERKT_DpOT0_, symObjAddr: 0x12810, symBinAddr: 0x100015AF0, symSize: 0x100 }
  - { offsetInCU: 0x3D479, offset: 0x3D479, size: 0x8, addend: 0x0, symName: __ZNKSt3__115__tree_iteratorINS_12__value_typeINS_12basic_stringIcNS_11char_traitsIcEENS_9allocatorIcEEEEiEEPNS_11__tree_nodeIS8_PvEElEptB7v160006Ev, symObjAddr: 0x12940, symBinAddr: 0x100015C20, symSize: 0x2C }
  - { offsetInCU: 0x3D49F, offset: 0x3D49F, size: 0x8, addend: 0x0, symName: __ZNSt3__16__treeINS_12__value_typeINS_12basic_stringIcNS_11char_traitsIcEENS_9allocatorIcEEEEiEENS_19__map_value_compareIS7_S8_NS_4lessIS7_EELb1EEENS5_IS8_EEE12__find_equalIS7_EERPNS_16__tree_node_baseIPvEERPNS_15__tree_end_nodeISJ_EERKT_, symObjAddr: 0x1296C, symBinAddr: 0x100015C4C, symSize: 0x184 }
  - { offsetInCU: 0x3D50C, offset: 0x3D50C, size: 0x8, addend: 0x0, symName: __ZNSt3__16__treeINS_12__value_typeINS_12basic_stringIcNS_11char_traitsIcEENS_9allocatorIcEEEEiEENS_19__map_value_compareIS7_S8_NS_4lessIS7_EELb1EEENS5_IS8_EEE16__construct_nodeIJRKNS_21piecewise_construct_tENS_5tupleIJRKS7_EEENSJ_IJEEEEEENS_10unique_ptrINS_11__tree_nodeIS8_PvEENS_22__tree_node_destructorINS5_ISR_EEEEEEDpOT_, symObjAddr: 0x12AF0, symBinAddr: 0x100015DD0, symSize: 0x120 }
  - { offsetInCU: 0x3D595, offset: 0x3D595, size: 0x8, addend: 0x0, symName: __ZNSt3__16__treeINS_12__value_typeINS_12basic_stringIcNS_11char_traitsIcEENS_9allocatorIcEEEEiEENS_19__map_value_compareIS7_S8_NS_4lessIS7_EELb1EEENS5_IS8_EEE16__insert_node_atEPNS_15__tree_end_nodeIPNS_16__tree_node_baseIPvEEEERSJ_SJ_, symObjAddr: 0x12C10, symBinAddr: 0x100015EF0, symSize: 0xCC }
  - { offsetInCU: 0x3D5EA, offset: 0x3D5EA, size: 0x8, addend: 0x0, symName: __ZNKSt3__110unique_ptrINS_11__tree_nodeINS_12__value_typeINS_12basic_stringIcNS_11char_traitsIcEENS_9allocatorIcEEEEiEEPvEENS_22__tree_node_destructorINS6_ISB_EEEEE3getB7v160006Ev, symObjAddr: 0x12CDC, symBinAddr: 0x100015FBC, symSize: 0x28 }
  - { offsetInCU: 0x3D610, offset: 0x3D610, size: 0x8, addend: 0x0, symName: __ZNSt3__110unique_ptrINS_11__tree_nodeINS_12__value_typeINS_12basic_stringIcNS_11char_traitsIcEENS_9allocatorIcEEEEiEEPvEENS_22__tree_node_destructorINS6_ISB_EEEEE7releaseB7v160006Ev, symObjAddr: 0x12D04, symBinAddr: 0x100015FE4, symSize: 0x44 }
  - { offsetInCU: 0x3D645, offset: 0x3D645, size: 0x8, addend: 0x0, symName: __ZNSt3__110unique_ptrINS_11__tree_nodeINS_12__value_typeINS_12basic_stringIcNS_11char_traitsIcEENS_9allocatorIcEEEEiEEPvEENS_22__tree_node_destructorINS6_ISB_EEEEED1B7v160006Ev, symObjAddr: 0x12D48, symBinAddr: 0x100016028, symSize: 0x2C }
  - { offsetInCU: 0x3D66F, offset: 0x3D66F, size: 0x8, addend: 0x0, symName: __ZNSt3__115__tree_iteratorINS_12__value_typeINS_12basic_stringIcNS_11char_traitsIcEENS_9allocatorIcEEEEiEEPNS_11__tree_nodeIS8_PvEElEC1B7v160006ESC_, symObjAddr: 0x12D74, symBinAddr: 0x100016054, symSize: 0x34 }
  - { offsetInCU: 0x3D6AE, offset: 0x3D6AE, size: 0x8, addend: 0x0, symName: __ZNSt3__14pairINS_15__tree_iteratorINS_12__value_typeINS_12basic_stringIcNS_11char_traitsIcEENS_9allocatorIcEEEEiEEPNS_11__tree_nodeIS9_PvEElEEbEC1B7v160006ISE_RbLSB_0EEEOT_OT0_, symObjAddr: 0x12DA8, symBinAddr: 0x100016088, symSize: 0x3C }
  - { offsetInCU: 0x3D70C, offset: 0x3D70C, size: 0x8, addend: 0x0, symName: __ZNKSt3__16__treeINS_12__value_typeINS_12basic_stringIcNS_11char_traitsIcEENS_9allocatorIcEEEEiEENS_19__map_value_compareIS7_S8_NS_4lessIS7_EELb1EEENS5_IS8_EEE10__root_ptrEv, symObjAddr: 0x12DE4, symBinAddr: 0x1000160C4, symSize: 0x24 }
  - { offsetInCU: 0x3D732, offset: 0x3D732, size: 0x8, addend: 0x0, symName: __ZNSt3__16__treeINS_12__value_typeINS_12basic_stringIcNS_11char_traitsIcEENS_9allocatorIcEEEEiEENS_19__map_value_compareIS7_S8_NS_4lessIS7_EELb1EEENS5_IS8_EEE10value_compB7v160006Ev, symObjAddr: 0x12E08, symBinAddr: 0x1000160E8, symSize: 0x28 }
  - { offsetInCU: 0x3D758, offset: 0x3D758, size: 0x8, addend: 0x0, symName: __ZNKSt3__119__map_value_compareINS_12basic_stringIcNS_11char_traitsIcEENS_9allocatorIcEEEENS_12__value_typeIS6_iEENS_4lessIS6_EELb1EEclB7v160006ERKS6_RKS8_, symObjAddr: 0x12E30, symBinAddr: 0x100016110, symSize: 0x50 }
  - { offsetInCU: 0x3D79C, offset: 0x3D79C, size: 0x8, addend: 0x0, symName: __ZNKSt3__119__map_value_compareINS_12basic_stringIcNS_11char_traitsIcEENS_9allocatorIcEEEENS_12__value_typeIS6_iEENS_4lessIS6_EELb1EEclB7v160006ERKS8_RKS6_, symObjAddr: 0x12E80, symBinAddr: 0x100016160, symSize: 0x48 }
  - { offsetInCU: 0x3D7E0, offset: 0x3D7E0, size: 0x8, addend: 0x0, symName: __ZNSt3__117__compressed_pairImNS_19__map_value_compareINS_12basic_stringIcNS_11char_traitsIcEENS_9allocatorIcEEEENS_12__value_typeIS7_iEENS_4lessIS7_EELb1EEEE6secondB7v160006Ev, symObjAddr: 0x12EC8, symBinAddr: 0x1000161A8, symSize: 0x24 }
  - { offsetInCU: 0x3D806, offset: 0x3D806, size: 0x8, addend: 0x0, symName: __ZNSt3__122__compressed_pair_elemINS_19__map_value_compareINS_12basic_stringIcNS_11char_traitsIcEENS_9allocatorIcEEEENS_12__value_typeIS7_iEENS_4lessIS7_EELb1EEELi1ELb1EE5__getB7v160006Ev, symObjAddr: 0x12EEC, symBinAddr: 0x1000161CC, symSize: 0x14 }
  - { offsetInCU: 0x3D82C, offset: 0x3D82C, size: 0x8, addend: 0x0, symName: __ZNKSt3__14lessINS_12basic_stringIcNS_11char_traitsIcEENS_9allocatorIcEEEEEclB7v160006ERKS6_S9_, symObjAddr: 0x12F00, symBinAddr: 0x1000161E0, symSize: 0x34 }
  - { offsetInCU: 0x3D870, offset: 0x3D870, size: 0x8, addend: 0x0, symName: __ZNKSt3__112__value_typeINS_12basic_stringIcNS_11char_traitsIcEENS_9allocatorIcEEEEiE11__get_valueB7v160006Ev, symObjAddr: 0x12F34, symBinAddr: 0x100016214, symSize: 0x14 }
  - { offsetInCU: 0x3D896, offset: 0x3D896, size: 0x8, addend: 0x0, symName: __ZNKSt3__112basic_stringIcNS_11char_traitsIcEENS_9allocatorIcEEE7compareB7v160006ERKS5_, symObjAddr: 0x12F80, symBinAddr: 0x100016260, symSize: 0x4C }
  - { offsetInCU: 0x3D8CD, offset: 0x3D8CD, size: 0x8, addend: 0x0, symName: __ZNKSt3__112basic_stringIcNS_11char_traitsIcEENS_9allocatorIcEEE7compareINS_17basic_string_viewIcS2_EEEENS_9enable_ifIXsr33__can_be_converted_to_string_viewIcS2_T_EE5valueEiE4typeERKSA_, symObjAddr: 0x12FCC, symBinAddr: 0x1000162AC, symSize: 0x12C }
  - { offsetInCU: 0x3D94A, offset: 0x3D94A, size: 0x8, addend: 0x0, symName: __ZNKSt3__112basic_stringIcNS_11char_traitsIcEENS_9allocatorIcEEEcvNS_17basic_string_viewIcS2_EEB7v160006Ev, symObjAddr: 0x130F8, symBinAddr: 0x1000163D8, symSize: 0x50 }
  - { offsetInCU: 0x3D970, offset: 0x3D970, size: 0x8, addend: 0x0, symName: __ZNKSt3__117basic_string_viewIcNS_11char_traitsIcEEE4sizeB7v160006Ev, symObjAddr: 0x13148, symBinAddr: 0x100016428, symSize: 0x18 }
  - { offsetInCU: 0x3D996, offset: 0x3D996, size: 0x8, addend: 0x0, symName: __ZNKSt3__117basic_string_viewIcNS_11char_traitsIcEEE4dataB7v160006Ev, symObjAddr: 0x13160, symBinAddr: 0x100016440, symSize: 0x18 }
  - { offsetInCU: 0x3D9C6, offset: 0x3D9C6, size: 0x8, addend: 0x0, symName: __ZNKSt3__16__lessImmEclB7v160006ERKmS3_, symObjAddr: 0x131F8, symBinAddr: 0x1000164D8, symSize: 0x34 }
  - { offsetInCU: 0x3DA08, offset: 0x3DA08, size: 0x8, addend: 0x0, symName: __ZNSt3__117basic_string_viewIcNS_11char_traitsIcEEEC1B7v160006EPKcm, symObjAddr: 0x1322C, symBinAddr: 0x10001650C, symSize: 0x3C }
  - { offsetInCU: 0x3DA50, offset: 0x3DA50, size: 0x8, addend: 0x0, symName: __ZNSt3__117basic_string_viewIcNS_11char_traitsIcEEEC2B7v160006EPKcm, symObjAddr: 0x13268, symBinAddr: 0x100016548, symSize: 0x2C }
  - { offsetInCU: 0x3DA98, offset: 0x3DA98, size: 0x8, addend: 0x0, symName: __ZNSt3__116allocator_traitsINS_9allocatorINS_11__tree_nodeINS_12__value_typeINS_12basic_stringIcNS_11char_traitsIcEENS1_IcEEEEiEEPvEEEEE8allocateB7v160006ERSC_m, symObjAddr: 0x13294, symBinAddr: 0x100016574, symSize: 0x2C }
  - { offsetInCU: 0x3DACB, offset: 0x3DACB, size: 0x8, addend: 0x0, symName: __ZNSt3__122__tree_node_destructorINS_9allocatorINS_11__tree_nodeINS_12__value_typeINS_12basic_stringIcNS_11char_traitsIcEENS1_IcEEEEiEEPvEEEEEC1B7v160006ERSC_b, symObjAddr: 0x132C0, symBinAddr: 0x1000165A0, symSize: 0x48 }
  - { offsetInCU: 0x3DB19, offset: 0x3DB19, size: 0x8, addend: 0x0, symName: __ZNSt3__110unique_ptrINS_11__tree_nodeINS_12__value_typeINS_12basic_stringIcNS_11char_traitsIcEENS_9allocatorIcEEEEiEEPvEENS_22__tree_node_destructorINS6_ISB_EEEEEC1B7v160006ILb1EvEEPSB_NS_16__dependent_typeINS_27__unique_ptr_deleter_sfinaeISE_EEXT_EE20__good_rval_ref_typeE, symObjAddr: 0x13308, symBinAddr: 0x1000165E8, symSize: 0x3C }
  - { offsetInCU: 0x3DB6A, offset: 0x3DB6A, size: 0x8, addend: 0x0, symName: __ZNSt3__116allocator_traitsINS_9allocatorINS_11__tree_nodeINS_12__value_typeINS_12basic_stringIcNS_11char_traitsIcEENS1_IcEEEEiEEPvEEEEE9constructB7v160006INS_4pairIKS8_iEEJRKNS_21piecewise_construct_tENS_5tupleIJRSG_EEENSL_IJEEEEvEEvRSC_PT_DpOT0_, symObjAddr: 0x13344, symBinAddr: 0x100016624, symSize: 0x44 }
  - { offsetInCU: 0x3DBE9, offset: 0x3DBE9, size: 0x8, addend: 0x0, symName: __ZNKSt3__110unique_ptrINS_11__tree_nodeINS_12__value_typeINS_12basic_stringIcNS_11char_traitsIcEENS_9allocatorIcEEEEiEEPvEENS_22__tree_node_destructorINS6_ISB_EEEEEptB7v160006Ev, symObjAddr: 0x13388, symBinAddr: 0x100016668, symSize: 0x28 }
  - { offsetInCU: 0x3DC0F, offset: 0x3DC0F, size: 0x8, addend: 0x0, symName: __ZNSt3__110unique_ptrINS_11__tree_nodeINS_12__value_typeINS_12basic_stringIcNS_11char_traitsIcEENS_9allocatorIcEEEEiEEPvEENS_22__tree_node_destructorINS6_ISB_EEEEE11get_deleterB7v160006Ev, symObjAddr: 0x133B0, symBinAddr: 0x100016690, symSize: 0x24 }
  - { offsetInCU: 0x3DC35, offset: 0x3DC35, size: 0x8, addend: 0x0, symName: __ZNSt3__19allocatorINS_11__tree_nodeINS_12__value_typeINS_12basic_stringIcNS_11char_traitsIcEENS0_IcEEEEiEEPvEEE8allocateB7v160006Em, symObjAddr: 0x133D4, symBinAddr: 0x1000166B4, symSize: 0x58 }
  - { offsetInCU: 0x3DC73, offset: 0x3DC73, size: 0x8, addend: 0x0, symName: __ZNSt3__116allocator_traitsINS_9allocatorINS_11__tree_nodeINS_12__value_typeINS_12basic_stringIcNS_11char_traitsIcEENS1_IcEEEEiEEPvEEEEE8max_sizeB7v160006ISC_vEEmRKSC_, symObjAddr: 0x1342C, symBinAddr: 0x10001670C, symSize: 0x24 }
  - { offsetInCU: 0x3DCA1, offset: 0x3DCA1, size: 0x8, addend: 0x0, symName: __ZNKSt3__19allocatorINS_11__tree_nodeINS_12__value_typeINS_12basic_stringIcNS_11char_traitsIcEENS0_IcEEEEiEEPvEEE8max_sizeB7v160006Ev, symObjAddr: 0x13450, symBinAddr: 0x100016730, symSize: 0x14 }
  - { offsetInCU: 0x3DCC7, offset: 0x3DCC7, size: 0x8, addend: 0x0, symName: __ZNSt3__122__tree_node_destructorINS_9allocatorINS_11__tree_nodeINS_12__value_typeINS_12basic_stringIcNS_11char_traitsIcEENS1_IcEEEEiEEPvEEEEEC2B7v160006ERSC_b, symObjAddr: 0x13464, symBinAddr: 0x100016744, symSize: 0x38 }
  - { offsetInCU: 0x3DD0F, offset: 0x3DD0F, size: 0x8, addend: 0x0, symName: __ZNSt3__110unique_ptrINS_11__tree_nodeINS_12__value_typeINS_12basic_stringIcNS_11char_traitsIcEENS_9allocatorIcEEEEiEEPvEENS_22__tree_node_destructorINS6_ISB_EEEEEC2B7v160006ILb1EvEEPSB_NS_16__dependent_typeINS_27__unique_ptr_deleter_sfinaeISE_EEXT_EE20__good_rval_ref_typeE, symObjAddr: 0x1349C, symBinAddr: 0x10001677C, symSize: 0x48 }
  - { offsetInCU: 0x3DD60, offset: 0x3DD60, size: 0x8, addend: 0x0, symName: __ZNSt3__117__compressed_pairIPNS_11__tree_nodeINS_12__value_typeINS_12basic_stringIcNS_11char_traitsIcEENS_9allocatorIcEEEEiEEPvEENS_22__tree_node_destructorINS6_ISB_EEEEEC1B7v160006IRSC_SF_EEOT_OT0_, symObjAddr: 0x134E4, symBinAddr: 0x1000167C4, symSize: 0x3C }
  - { offsetInCU: 0x3DDB8, offset: 0x3DDB8, size: 0x8, addend: 0x0, symName: __ZNSt3__117__compressed_pairIPNS_11__tree_nodeINS_12__value_typeINS_12basic_stringIcNS_11char_traitsIcEENS_9allocatorIcEEEEiEEPvEENS_22__tree_node_destructorINS6_ISB_EEEEEC2B7v160006IRSC_SF_EEOT_OT0_, symObjAddr: 0x13520, symBinAddr: 0x100016800, symSize: 0x48 }
  - { offsetInCU: 0x3DE10, offset: 0x3DE10, size: 0x8, addend: 0x0, symName: __ZNSt3__122__compressed_pair_elemIPNS_11__tree_nodeINS_12__value_typeINS_12basic_stringIcNS_11char_traitsIcEENS_9allocatorIcEEEEiEEPvEELi0ELb0EEC2B7v160006IRSC_vEEOT_, symObjAddr: 0x13568, symBinAddr: 0x100016848, symSize: 0x24 }
  - { offsetInCU: 0x3DE52, offset: 0x3DE52, size: 0x8, addend: 0x0, symName: __ZNSt3__122__compressed_pair_elemINS_22__tree_node_destructorINS_9allocatorINS_11__tree_nodeINS_12__value_typeINS_12basic_stringIcNS_11char_traitsIcEENS2_IcEEEEiEEPvEEEEEELi1ELb0EEC2B7v160006ISE_vEEOT_, symObjAddr: 0x1358C, symBinAddr: 0x10001686C, symSize: 0x24 }
  - { offsetInCU: 0x3DE94, offset: 0x3DE94, size: 0x8, addend: 0x0, symName: __ZNSt3__19allocatorINS_11__tree_nodeINS_12__value_typeINS_12basic_stringIcNS_11char_traitsIcEENS0_IcEEEEiEEPvEEE9constructB7v160006INS_4pairIKS7_iEEJRKNS_21piecewise_construct_tENS_5tupleIJRSE_EEENSJ_IJEEEEEEvPT_DpOT0_, symObjAddr: 0x135B0, symBinAddr: 0x100016890, symSize: 0x44 }
  - { offsetInCU: 0x3DF10, offset: 0x3DF10, size: 0x8, addend: 0x0, symName: __ZNSt3__14pairIKNS_12basic_stringIcNS_11char_traitsIcEENS_9allocatorIcEEEEiEC1B7v160006IJRS7_EJEEENS_21piecewise_construct_tENS_5tupleIJDpT_EEENSC_IJDpT0_EEE, symObjAddr: 0x135F4, symBinAddr: 0x1000168D4, symSize: 0x3C }
  - { offsetInCU: 0x3DF77, offset: 0x3DF77, size: 0x8, addend: 0x0, symName: __ZNSt3__14pairIKNS_12basic_stringIcNS_11char_traitsIcEENS_9allocatorIcEEEEiEC1B7v160006IJRS7_EJEJLm0EEJEEENS_21piecewise_construct_tERNS_5tupleIJDpT_EEERNSC_IJDpT0_EEENS_15__tuple_indicesIJXspT1_EEEENSL_IJXspT2_EEEE, symObjAddr: 0x13630, symBinAddr: 0x100016910, symSize: 0x3C }
  - { offsetInCU: 0x3E004, offset: 0x3E004, size: 0x8, addend: 0x0, symName: __ZNSt3__14pairIKNS_12basic_stringIcNS_11char_traitsIcEENS_9allocatorIcEEEEiEC2B7v160006IJRS7_EJEJLm0EEJEEENS_21piecewise_construct_tERNS_5tupleIJDpT_EEERNSC_IJDpT0_EEENS_15__tuple_indicesIJXspT1_EEEENSL_IJXspT2_EEEE, symObjAddr: 0x1366C, symBinAddr: 0x10001694C, symSize: 0x48 }
  - { offsetInCU: 0x3E091, offset: 0x3E091, size: 0x8, addend: 0x0, symName: __ZNSt3__112__tuple_leafILm0ERKNS_12basic_stringIcNS_11char_traitsIcEENS_9allocatorIcEEEELb0EE3getB7v160006Ev, symObjAddr: 0x136D8, symBinAddr: 0x1000169B8, symSize: 0x18 }
  - { offsetInCU: 0x3E0B7, offset: 0x3E0B7, size: 0x8, addend: 0x0, symName: __ZNKSt3__117__compressed_pairIPNS_11__tree_nodeINS_12__value_typeINS_12basic_stringIcNS_11char_traitsIcEENS_9allocatorIcEEEEiEEPvEENS_22__tree_node_destructorINS6_ISB_EEEEE5firstB7v160006Ev, symObjAddr: 0x136F0, symBinAddr: 0x1000169D0, symSize: 0x24 }
  - { offsetInCU: 0x3E0DD, offset: 0x3E0DD, size: 0x8, addend: 0x0, symName: __ZNKSt3__122__compressed_pair_elemIPNS_11__tree_nodeINS_12__value_typeINS_12basic_stringIcNS_11char_traitsIcEENS_9allocatorIcEEEEiEEPvEELi0ELb0EE5__getB7v160006Ev, symObjAddr: 0x13714, symBinAddr: 0x1000169F4, symSize: 0x14 }
  - { offsetInCU: 0x3E103, offset: 0x3E103, size: 0x8, addend: 0x0, symName: __ZNSt3__117__compressed_pairIPNS_11__tree_nodeINS_12__value_typeINS_12basic_stringIcNS_11char_traitsIcEENS_9allocatorIcEEEEiEEPvEENS_22__tree_node_destructorINS6_ISB_EEEEE6secondB7v160006Ev, symObjAddr: 0x13728, symBinAddr: 0x100016A08, symSize: 0x28 }
  - { offsetInCU: 0x3E129, offset: 0x3E129, size: 0x8, addend: 0x0, symName: __ZNSt3__122__compressed_pair_elemINS_22__tree_node_destructorINS_9allocatorINS_11__tree_nodeINS_12__value_typeINS_12basic_stringIcNS_11char_traitsIcEENS2_IcEEEEiEEPvEEEEEELi1ELb0EE5__getB7v160006Ev, symObjAddr: 0x13750, symBinAddr: 0x100016A30, symSize: 0x14 }
  - { offsetInCU: 0x3E14F, offset: 0x3E14F, size: 0x8, addend: 0x0, symName: __ZNSt3__16__treeINS_12__value_typeINS_12basic_stringIcNS_11char_traitsIcEENS_9allocatorIcEEEEiEENS_19__map_value_compareIS7_S8_NS_4lessIS7_EELb1EEENS5_IS8_EEE4sizeB7v160006Ev, symObjAddr: 0x13764, symBinAddr: 0x100016A44, symSize: 0x28 }
  - { offsetInCU: 0x3E175, offset: 0x3E175, size: 0x8, addend: 0x0, symName: __ZNSt3__117__compressed_pairImNS_19__map_value_compareINS_12basic_stringIcNS_11char_traitsIcEENS_9allocatorIcEEEENS_12__value_typeIS7_iEENS_4lessIS7_EELb1EEEE5firstB7v160006Ev, symObjAddr: 0x1378C, symBinAddr: 0x100016A6C, symSize: 0x24 }
  - { offsetInCU: 0x3E19B, offset: 0x3E19B, size: 0x8, addend: 0x0, symName: __ZNSt3__117__compressed_pairIPNS_11__tree_nodeINS_12__value_typeINS_12basic_stringIcNS_11char_traitsIcEENS_9allocatorIcEEEEiEEPvEENS_22__tree_node_destructorINS6_ISB_EEEEE5firstB7v160006Ev, symObjAddr: 0x137B0, symBinAddr: 0x100016A90, symSize: 0x24 }
  - { offsetInCU: 0x3E1C1, offset: 0x3E1C1, size: 0x8, addend: 0x0, symName: __ZNSt3__122__compressed_pair_elemIPNS_11__tree_nodeINS_12__value_typeINS_12basic_stringIcNS_11char_traitsIcEENS_9allocatorIcEEEEiEEPvEELi0ELb0EE5__getB7v160006Ev, symObjAddr: 0x137D4, symBinAddr: 0x100016AB4, symSize: 0x14 }
  - { offsetInCU: 0x3E1E7, offset: 0x3E1E7, size: 0x8, addend: 0x0, symName: __ZNSt3__110unique_ptrINS_11__tree_nodeINS_12__value_typeINS_12basic_stringIcNS_11char_traitsIcEENS_9allocatorIcEEEEiEEPvEENS_22__tree_node_destructorINS6_ISB_EEEEED2B7v160006Ev, symObjAddr: 0x137E8, symBinAddr: 0x100016AC8, symSize: 0x30 }
  - { offsetInCU: 0x3E211, offset: 0x3E211, size: 0x8, addend: 0x0, symName: __ZNSt3__110unique_ptrINS_11__tree_nodeINS_12__value_typeINS_12basic_stringIcNS_11char_traitsIcEENS_9allocatorIcEEEEiEEPvEENS_22__tree_node_destructorINS6_ISB_EEEEE5resetB7v160006EPSB_, symObjAddr: 0x13818, symBinAddr: 0x100016AF8, symSize: 0x78 }
  - { offsetInCU: 0x3E255, offset: 0x3E255, size: 0x8, addend: 0x0, symName: __ZNSt3__122__tree_node_destructorINS_9allocatorINS_11__tree_nodeINS_12__value_typeINS_12basic_stringIcNS_11char_traitsIcEENS1_IcEEEEiEEPvEEEEEclB7v160006EPSB_, symObjAddr: 0x13890, symBinAddr: 0x100016B70, symSize: 0x94 }
  - { offsetInCU: 0x3E28A, offset: 0x3E28A, size: 0x8, addend: 0x0, symName: __ZNSt3__115__tree_iteratorINS_12__value_typeINS_12basic_stringIcNS_11char_traitsIcEENS_9allocatorIcEEEEiEEPNS_11__tree_nodeIS8_PvEElEC2B7v160006ESC_, symObjAddr: 0x13924, symBinAddr: 0x100016C04, symSize: 0x20 }
  - { offsetInCU: 0x3E2C3, offset: 0x3E2C3, size: 0x8, addend: 0x0, symName: __ZNSt3__14pairINS_15__tree_iteratorINS_12__value_typeINS_12basic_stringIcNS_11char_traitsIcEENS_9allocatorIcEEEEiEEPNS_11__tree_nodeIS9_PvEElEEbEC2B7v160006ISE_RbLSB_0EEEOT_OT0_, symObjAddr: 0x13944, symBinAddr: 0x100016C24, symSize: 0x38 }
  - { offsetInCU: 0x3E321, offset: 0x3E321, size: 0x8, addend: 0x0, symName: __ZNSt3__15tupleIJRKNS_12basic_stringIcNS_11char_traitsIcEENS_9allocatorIcEEEEEEC1B7v160006INS_4_AndELi0EEES8_, symObjAddr: 0x1397C, symBinAddr: 0x100016C5C, symSize: 0x34 }
  - { offsetInCU: 0x3E369, offset: 0x3E369, size: 0x8, addend: 0x0, symName: __ZNSt3__15tupleIJRKNS_12basic_stringIcNS_11char_traitsIcEENS_9allocatorIcEEEEEEC2B7v160006INS_4_AndELi0EEES8_, symObjAddr: 0x139B0, symBinAddr: 0x100016C90, symSize: 0x34 }
  - { offsetInCU: 0x3E3B1, offset: 0x3E3B1, size: 0x8, addend: 0x0, symName: __ZNSt3__112__tuple_implINS_15__tuple_indicesIJLm0EEEEJRKNS_12basic_stringIcNS_11char_traitsIcEENS_9allocatorIcEEEEEEC1B7v160006IJLm0EEJSA_EJEJEJSA_EEENS1_IJXspT_EEEENS_13__tuple_typesIJDpT0_EEENS1_IJXspT1_EEEENSE_IJDpT2_EEEDpOT3_, symObjAddr: 0x139E4, symBinAddr: 0x100016CC4, symSize: 0x34 }
  - { offsetInCU: 0x3E442, offset: 0x3E442, size: 0x8, addend: 0x0, symName: __ZNSt3__112__tuple_implINS_15__tuple_indicesIJLm0EEEEJRKNS_12basic_stringIcNS_11char_traitsIcEENS_9allocatorIcEEEEEEC2B7v160006IJLm0EEJSA_EJEJEJSA_EEENS1_IJXspT_EEEENS_13__tuple_typesIJDpT0_EEENS1_IJXspT1_EEEENSE_IJDpT2_EEEDpOT3_, symObjAddr: 0x13A18, symBinAddr: 0x100016CF8, symSize: 0x34 }
  - { offsetInCU: 0x3E4D3, offset: 0x3E4D3, size: 0x8, addend: 0x0, symName: __ZNSt3__112__tuple_leafILm0ERKNS_12basic_stringIcNS_11char_traitsIcEENS_9allocatorIcEEEELb0EEC2B7v160006IS8_vEEOT_, symObjAddr: 0x13A4C, symBinAddr: 0x100016D2C, symSize: 0x20 }
  - { offsetInCU: 0x3E516, offset: 0x3E516, size: 0x8, addend: 0x0, symName: __ZNSt3__114pointer_traitsIPNS_12__value_typeINS_12basic_stringIcNS_11char_traitsIcEENS_9allocatorIcEEEEiEEE10pointer_toB7v160006ERS8_, symObjAddr: 0x13A6C, symBinAddr: 0x100016D4C, symSize: 0x14 }
  - { offsetInCU: 0x3E539, offset: 0x3E539, size: 0x8, addend: 0x0, symName: __ZNKSt3__115__tree_iteratorINS_12__value_typeINS_12basic_stringIcNS_11char_traitsIcEENS_9allocatorIcEEEEiEEPNS_11__tree_nodeIS8_PvEElE8__get_npB7v160006Ev, symObjAddr: 0x13A80, symBinAddr: 0x100016D60, symSize: 0x18 }
  - { offsetInCU: 0x3E55F, offset: 0x3E55F, size: 0x8, addend: 0x0, symName: __ZNKSt3__16vectorIiNS_9allocatorIiEEE17__annotate_shrinkB7v160006Em, symObjAddr: 0x13A98, symBinAddr: 0x100016D78, symSize: 0xB4 }
  - { offsetInCU: 0x3E594, offset: 0x3E594, size: 0x8, addend: 0x0, symName: __ZNSt3__16vectorI8ProducerNS_9allocatorIS1_EEE9__end_capB7v160006Ev, symObjAddr: 0x13B5C, symBinAddr: 0x100016E3C, symSize: 0x28 }
  - { offsetInCU: 0x3E5BA, offset: 0x3E5BA, size: 0x8, addend: 0x0, symName: __ZNSt3__16vectorI8ProducerNS_9allocatorIS1_EEE22__construct_one_at_endB7v160006IJRKS1_EEEvDpOT_, symObjAddr: 0x13B84, symBinAddr: 0x100016E64, symSize: 0x90 }
  - { offsetInCU: 0x3E609, offset: 0x3E609, size: 0x8, addend: 0x0, symName: __ZNSt3__16vectorI8ProducerNS_9allocatorIS1_EEE21__push_back_slow_pathIRKS1_EEvOT_, symObjAddr: 0x13C14, symBinAddr: 0x100016EF4, symSize: 0xD8 }
  - { offsetInCU: 0x3E667, offset: 0x3E667, size: 0x8, addend: 0x0, symName: __ZNSt3__117__compressed_pairIP8ProducerNS_9allocatorIS1_EEE5firstB7v160006Ev, symObjAddr: 0x13CEC, symBinAddr: 0x100016FCC, symSize: 0x24 }
  - { offsetInCU: 0x3E68D, offset: 0x3E68D, size: 0x8, addend: 0x0, symName: __ZNSt3__122__compressed_pair_elemIP8ProducerLi0ELb0EE5__getB7v160006Ev, symObjAddr: 0x13D10, symBinAddr: 0x100016FF0, symSize: 0x14 }
  - { offsetInCU: 0x3E6CC, offset: 0x3E6CC, size: 0x8, addend: 0x0, symName: __ZNSt3__16vectorI8ProducerNS_9allocatorIS1_EEE21_ConstructTransactionC1B7v160006ERS4_m, symObjAddr: 0x13D24, symBinAddr: 0x100017004, symSize: 0x3C }
  - { offsetInCU: 0x3E714, offset: 0x3E714, size: 0x8, addend: 0x0, symName: __ZNSt3__116allocator_traitsINS_9allocatorI8ProducerEEE9constructB7v160006IS2_JRKS2_EvEEvRS3_PT_DpOT0_, symObjAddr: 0x13D60, symBinAddr: 0x100017040, symSize: 0x34 }
  - { offsetInCU: 0x3E76B, offset: 0x3E76B, size: 0x8, addend: 0x0, symName: __ZNSt3__16vectorI8ProducerNS_9allocatorIS1_EEE21_ConstructTransactionD1B7v160006Ev, symObjAddr: 0x13D94, symBinAddr: 0x100017074, symSize: 0x2C }
  - { offsetInCU: 0x3E795, offset: 0x3E795, size: 0x8, addend: 0x0, symName: __ZNSt3__16vectorI8ProducerNS_9allocatorIS1_EEE21_ConstructTransactionC2B7v160006ERS4_m, symObjAddr: 0x13DC0, symBinAddr: 0x1000170A0, symSize: 0x44 }
  - { offsetInCU: 0x3E7DD, offset: 0x3E7DD, size: 0x8, addend: 0x0, symName: __ZNSt3__19allocatorI8ProducerE9constructB7v160006IS1_JRKS1_EEEvPT_DpOT0_, symObjAddr: 0x13E04, symBinAddr: 0x1000170E4, symSize: 0x30 }
  - { offsetInCU: 0x3E833, offset: 0x3E833, size: 0x8, addend: 0x0, symName: __ZN8ProducerC1ERKS_, symObjAddr: 0x13E34, symBinAddr: 0x100017114, symSize: 0x34 }
  - { offsetInCU: 0x3E868, offset: 0x3E868, size: 0x8, addend: 0x0, symName: __ZN8ProducerC2ERKS_, symObjAddr: 0x13E68, symBinAddr: 0x100017148, symSize: 0x48 }
  - { offsetInCU: 0x3E89D, offset: 0x3E89D, size: 0x8, addend: 0x0, symName: __ZNSt3__16vectorI8ProducerNS_9allocatorIS1_EEE21_ConstructTransactionD2B7v160006Ev, symObjAddr: 0x13EB0, symBinAddr: 0x100017190, symSize: 0x20 }
  - { offsetInCU: 0x3E8C7, offset: 0x3E8C7, size: 0x8, addend: 0x0, symName: __ZNKSt3__16vectorI8ProducerNS_9allocatorIS1_EEE11__recommendB7v160006Em, symObjAddr: 0x13ED0, symBinAddr: 0x1000171B0, symSize: 0xB4 }
  - { offsetInCU: 0x3E91C, offset: 0x3E91C, size: 0x8, addend: 0x0, symName: __ZNSt3__114__split_bufferI8ProducerRNS_9allocatorIS1_EEEC1EmmS4_, symObjAddr: 0x13F84, symBinAddr: 0x100017264, symSize: 0x44 }
  - { offsetInCU: 0x3E972, offset: 0x3E972, size: 0x8, addend: 0x0, symName: __ZNSt3__114__split_bufferI8ProducerRNS_9allocatorIS1_EEED1Ev, symObjAddr: 0x140E0, symBinAddr: 0x1000173C0, symSize: 0x2C }
  - { offsetInCU: 0x3E99E, offset: 0x3E99E, size: 0x8, addend: 0x0, symName: __ZNKSt3__16vectorI8ProducerNS_9allocatorIS1_EEE8max_sizeEv, symObjAddr: 0x1410C, symBinAddr: 0x1000173EC, symSize: 0x60 }
  - { offsetInCU: 0x3E9C6, offset: 0x3E9C6, size: 0x8, addend: 0x0, symName: __ZNKSt3__16vectorI8ProducerNS_9allocatorIS1_EEE20__throw_length_errorB7v160006Ev, symObjAddr: 0x1416C, symBinAddr: 0x10001744C, symSize: 0x1C }
  - { offsetInCU: 0x3E9F6, offset: 0x3E9F6, size: 0x8, addend: 0x0, symName: __ZNSt3__116allocator_traitsINS_9allocatorI8ProducerEEE8max_sizeB7v160006IS3_vEEmRKS3_, symObjAddr: 0x141B4, symBinAddr: 0x100017494, symSize: 0x24 }
  - { offsetInCU: 0x3EA24, offset: 0x3EA24, size: 0x8, addend: 0x0, symName: __ZNKSt3__16vectorI8ProducerNS_9allocatorIS1_EEE7__allocB7v160006Ev, symObjAddr: 0x141D8, symBinAddr: 0x1000174B8, symSize: 0x28 }
  - { offsetInCU: 0x3EA4A, offset: 0x3EA4A, size: 0x8, addend: 0x0, symName: __ZNKSt3__19allocatorI8ProducerE8max_sizeB7v160006Ev, symObjAddr: 0x14200, symBinAddr: 0x1000174E0, symSize: 0x14 }
  - { offsetInCU: 0x3EA70, offset: 0x3EA70, size: 0x8, addend: 0x0, symName: __ZNKSt3__117__compressed_pairIP8ProducerNS_9allocatorIS1_EEE6secondB7v160006Ev, symObjAddr: 0x14214, symBinAddr: 0x1000174F4, symSize: 0x24 }
  - { offsetInCU: 0x3EA96, offset: 0x3EA96, size: 0x8, addend: 0x0, symName: __ZNKSt3__122__compressed_pair_elemINS_9allocatorI8ProducerEELi1ELb1EE5__getB7v160006Ev, symObjAddr: 0x14238, symBinAddr: 0x100017518, symSize: 0x14 }
  - { offsetInCU: 0x3EABC, offset: 0x3EABC, size: 0x8, addend: 0x0, symName: __ZNSt12length_errorC1B7v160006EPKc, symObjAddr: 0x142B0, symBinAddr: 0x100017590, symSize: 0x34 }
  - { offsetInCU: 0x3EAF4, offset: 0x3EAF4, size: 0x8, addend: 0x0, symName: __ZNSt12length_errorC2B7v160006EPKc, symObjAddr: 0x142E4, symBinAddr: 0x1000175C4, symSize: 0x4C }
  - { offsetInCU: 0x3EB2C, offset: 0x3EB2C, size: 0x8, addend: 0x0, symName: __ZNSt3__114__split_bufferI8ProducerRNS_9allocatorIS1_EEEC2EmmS4_, symObjAddr: 0x14384, symBinAddr: 0x100017664, symSize: 0xD4 }
  - { offsetInCU: 0x3EB9F, offset: 0x3EB9F, size: 0x8, addend: 0x0, symName: __ZNSt3__117__compressed_pairIP8ProducerRNS_9allocatorIS1_EEEC1B7v160006IDnS5_EEOT_OT0_, symObjAddr: 0x14458, symBinAddr: 0x100017738, symSize: 0x3C }
  - { offsetInCU: 0x3EBF7, offset: 0x3EBF7, size: 0x8, addend: 0x0, symName: __ZNSt3__114__split_bufferI8ProducerRNS_9allocatorIS1_EEE7__allocB7v160006Ev, symObjAddr: 0x144D4, symBinAddr: 0x1000177B4, symSize: 0x28 }
  - { offsetInCU: 0x3EC1D, offset: 0x3EC1D, size: 0x8, addend: 0x0, symName: __ZNSt3__114__split_bufferI8ProducerRNS_9allocatorIS1_EEE9__end_capB7v160006Ev, symObjAddr: 0x144FC, symBinAddr: 0x1000177DC, symSize: 0x28 }
  - { offsetInCU: 0x3EC43, offset: 0x3EC43, size: 0x8, addend: 0x0, symName: __ZNSt3__117__compressed_pairIP8ProducerRNS_9allocatorIS1_EEEC2B7v160006IDnS5_EEOT_OT0_, symObjAddr: 0x14524, symBinAddr: 0x100017804, symSize: 0x48 }
  - { offsetInCU: 0x3EC9B, offset: 0x3EC9B, size: 0x8, addend: 0x0, symName: __ZNSt3__122__compressed_pair_elemIRNS_9allocatorI8ProducerEELi1ELb0EEC2B7v160006IS4_vEEOT_, symObjAddr: 0x1456C, symBinAddr: 0x10001784C, symSize: 0x20 }
  - { offsetInCU: 0x3ECDD, offset: 0x3ECDD, size: 0x8, addend: 0x0, symName: __ZNSt3__19allocatorI8ProducerE8allocateB7v160006Em, symObjAddr: 0x1458C, symBinAddr: 0x10001786C, symSize: 0x58 }
  - { offsetInCU: 0x3ED11, offset: 0x3ED11, size: 0x8, addend: 0x0, symName: __ZNSt3__117__compressed_pairIP8ProducerRNS_9allocatorIS1_EEE6secondB7v160006Ev, symObjAddr: 0x145E4, symBinAddr: 0x1000178C4, symSize: 0x28 }
  - { offsetInCU: 0x3ED37, offset: 0x3ED37, size: 0x8, addend: 0x0, symName: __ZNSt3__122__compressed_pair_elemIRNS_9allocatorI8ProducerEELi1ELb0EE5__getB7v160006Ev, symObjAddr: 0x1460C, symBinAddr: 0x1000178EC, symSize: 0x18 }
  - { offsetInCU: 0x3ED5D, offset: 0x3ED5D, size: 0x8, addend: 0x0, symName: __ZNSt3__117__compressed_pairIP8ProducerRNS_9allocatorIS1_EEE5firstB7v160006Ev, symObjAddr: 0x14624, symBinAddr: 0x100017904, symSize: 0x24 }
  - { offsetInCU: 0x3ED83, offset: 0x3ED83, size: 0x8, addend: 0x0, symName: __ZNSt3__116reverse_iteratorIP8ProducerEC1B7v160006ES2_, symObjAddr: 0x14774, symBinAddr: 0x100017A54, symSize: 0x34 }
  - { offsetInCU: 0x3EDBB, offset: 0x3EDBB, size: 0x8, addend: 0x0, symName: __ZNKSt3__116reverse_iteratorIP8ProducerE4baseB7v160006Ev, symObjAddr: 0x147A8, symBinAddr: 0x100017A88, symSize: 0x18 }
  - { offsetInCU: 0x3EDE1, offset: 0x3EDE1, size: 0x8, addend: 0x0, symName: __ZNKSt3__16vectorI8ProducerNS_9allocatorIS1_EEE14__annotate_newB7v160006Em, symObjAddr: 0x147FC, symBinAddr: 0x100017ADC, symSize: 0xAC }
  - { offsetInCU: 0x3EE16, offset: 0x3EE16, size: 0x8, addend: 0x0, symName: __ZNSt3__129_AllocatorDestroyRangeReverseINS_9allocatorI8ProducerEENS_16reverse_iteratorIPS2_EEEC1B7v160006ERS3_RS6_S9_, symObjAddr: 0x14904, symBinAddr: 0x100017BE4, symSize: 0x44 }
  - { offsetInCU: 0x3EE73, offset: 0x3EE73, size: 0x8, addend: 0x0, symName: __ZNSt3__116allocator_traitsINS_9allocatorI8ProducerEEE9constructB7v160006IS2_JS2_EvEEvRS3_PT_DpOT0_, symObjAddr: 0x14990, symBinAddr: 0x100017C70, symSize: 0x34 }
  - { offsetInCU: 0x3EECA, offset: 0x3EECA, size: 0x8, addend: 0x0, symName: __ZNKSt3__116reverse_iteratorIP8ProducerEdeB7v160006Ev, symObjAddr: 0x149E8, symBinAddr: 0x100017CC8, symSize: 0x28 }
  - { offsetInCU: 0x3EEFE, offset: 0x3EEFE, size: 0x8, addend: 0x0, symName: __ZNSt3__116reverse_iteratorIP8ProducerEppB7v160006Ev, symObjAddr: 0x14A10, symBinAddr: 0x100017CF0, symSize: 0x20 }
  - { offsetInCU: 0x3EF24, offset: 0x3EF24, size: 0x8, addend: 0x0, symName: __ZNSt3__128__exception_guard_exceptionsINS_29_AllocatorDestroyRangeReverseINS_9allocatorI8ProducerEENS_16reverse_iteratorIPS3_EEEEE10__completeB7v160006Ev, symObjAddr: 0x14A30, symBinAddr: 0x100017D10, symSize: 0x1C }
  - { offsetInCU: 0x3EF4A, offset: 0x3EF4A, size: 0x8, addend: 0x0, symName: __ZNSt3__128__exception_guard_exceptionsINS_29_AllocatorDestroyRangeReverseINS_9allocatorI8ProducerEENS_16reverse_iteratorIPS3_EEEEED1B7v160006Ev, symObjAddr: 0x14A4C, symBinAddr: 0x100017D2C, symSize: 0x2C }
  - { offsetInCU: 0x3EF74, offset: 0x3EF74, size: 0x8, addend: 0x0, symName: __ZNSt3__128__exception_guard_exceptionsINS_29_AllocatorDestroyRangeReverseINS_9allocatorI8ProducerEENS_16reverse_iteratorIPS3_EEEEEC1B7v160006ES8_, symObjAddr: 0x14A78, symBinAddr: 0x100017D58, symSize: 0x34 }
  - { offsetInCU: 0x3EFAD, offset: 0x3EFAD, size: 0x8, addend: 0x0, symName: __ZNSt3__128__exception_guard_exceptionsINS_29_AllocatorDestroyRangeReverseINS_9allocatorI8ProducerEENS_16reverse_iteratorIPS3_EEEEEC2B7v160006ES8_, symObjAddr: 0x14AAC, symBinAddr: 0x100017D8C, symSize: 0x30 }
  - { offsetInCU: 0x3EFE6, offset: 0x3EFE6, size: 0x8, addend: 0x0, symName: __ZNSt3__129_AllocatorDestroyRangeReverseINS_9allocatorI8ProducerEENS_16reverse_iteratorIPS2_EEEC2B7v160006ERS3_RS6_S9_, symObjAddr: 0x14ADC, symBinAddr: 0x100017DBC, symSize: 0x38 }
  - { offsetInCU: 0x3F03D, offset: 0x3F03D, size: 0x8, addend: 0x0, symName: __ZNSt3__19allocatorI8ProducerE9constructB7v160006IS1_JS1_EEEvPT_DpOT0_, symObjAddr: 0x14B14, symBinAddr: 0x100017DF4, symSize: 0x30 }
  - { offsetInCU: 0x3F093, offset: 0x3F093, size: 0x8, addend: 0x0, symName: __ZN8ProducerC1EOS_, symObjAddr: 0x14B44, symBinAddr: 0x100017E24, symSize: 0x34 }
  - { offsetInCU: 0x3F0C8, offset: 0x3F0C8, size: 0x8, addend: 0x0, symName: __ZN8ProducerC2EOS_, symObjAddr: 0x14B78, symBinAddr: 0x100017E58, symSize: 0x48 }
  - { offsetInCU: 0x3F0FD, offset: 0x3F0FD, size: 0x8, addend: 0x0, symName: __ZNSt3__16vectorIiNS_9allocatorIiEEEC1B7v160006EOS3_, symObjAddr: 0x14BC0, symBinAddr: 0x100017EA0, symSize: 0x34 }
  - { offsetInCU: 0x3F138, offset: 0x3F138, size: 0x8, addend: 0x0, symName: __ZNSt3__16vectorIiNS_9allocatorIiEEEC2B7v160006EOS3_, symObjAddr: 0x14BF4, symBinAddr: 0x100017ED4, symSize: 0xDC }
  - { offsetInCU: 0x3F179, offset: 0x3F179, size: 0x8, addend: 0x0, symName: __ZNSt3__117__compressed_pairIPiNS_9allocatorIiEEEC1B7v160006IDnS3_EEOT_OT0_, symObjAddr: 0x14CD0, symBinAddr: 0x100017FB0, symSize: 0x3C }
  - { offsetInCU: 0x3F1D1, offset: 0x3F1D1, size: 0x8, addend: 0x0, symName: __ZNSt3__16vectorIiNS_9allocatorIiEEE9__end_capB7v160006Ev, symObjAddr: 0x14D20, symBinAddr: 0x100018000, symSize: 0x28 }
  - { offsetInCU: 0x3F1F7, offset: 0x3F1F7, size: 0x8, addend: 0x0, symName: __ZNSt3__117__compressed_pairIPiNS_9allocatorIiEEEC2B7v160006IDnS3_EEOT_OT0_, symObjAddr: 0x14D48, symBinAddr: 0x100018028, symSize: 0x44 }
  - { offsetInCU: 0x3F24F, offset: 0x3F24F, size: 0x8, addend: 0x0, symName: __ZNSt3__122__compressed_pair_elemINS_9allocatorIiEELi1ELb1EEC2B7v160006IS2_vEEOT_, symObjAddr: 0x14D8C, symBinAddr: 0x10001806C, symSize: 0x18 }
  - { offsetInCU: 0x3F291, offset: 0x3F291, size: 0x8, addend: 0x0, symName: __ZNSt3__117__compressed_pairIPiNS_9allocatorIiEEE5firstB7v160006Ev, symObjAddr: 0x14DA4, symBinAddr: 0x100018084, symSize: 0x24 }
  - { offsetInCU: 0x3F2B7, offset: 0x3F2B7, size: 0x8, addend: 0x0, symName: __ZNSt3__122__compressed_pair_elemIPiLi0ELb0EE5__getB7v160006Ev, symObjAddr: 0x14DC8, symBinAddr: 0x1000180A8, symSize: 0x14 }
  - { offsetInCU: 0x3F2E2, offset: 0x3F2E2, size: 0x8, addend: 0x0, symName: __ZNSt3__119__to_address_helperINS_16reverse_iteratorIP8ProducerEEvE6__callB7v160006ERKS4_, symObjAddr: 0x14DDC, symBinAddr: 0x1000180BC, symSize: 0x38 }
  - { offsetInCU: 0x3F305, offset: 0x3F305, size: 0x8, addend: 0x0, symName: __ZNKSt3__116reverse_iteratorIP8ProducerEptB7v160006Ev, symObjAddr: 0x14E14, symBinAddr: 0x1000180F4, symSize: 0x24 }
  - { offsetInCU: 0x3F32B, offset: 0x3F32B, size: 0x8, addend: 0x0, symName: __ZNSt3__128__exception_guard_exceptionsINS_29_AllocatorDestroyRangeReverseINS_9allocatorI8ProducerEENS_16reverse_iteratorIPS3_EEEEED2B7v160006Ev, symObjAddr: 0x14E38, symBinAddr: 0x100018118, symSize: 0x50 }
  - { offsetInCU: 0x3F355, offset: 0x3F355, size: 0x8, addend: 0x0, symName: __ZNKSt3__129_AllocatorDestroyRangeReverseINS_9allocatorI8ProducerEENS_16reverse_iteratorIPS2_EEEclB7v160006Ev, symObjAddr: 0x14E88, symBinAddr: 0x100018168, symSize: 0xB4 }
  - { offsetInCU: 0x3F37C, offset: 0x3F37C, size: 0x8, addend: 0x0, symName: __ZNSt3__116reverse_iteratorINS0_IP8ProducerEEEC1B7v160006ES3_, symObjAddr: 0x14FAC, symBinAddr: 0x10001828C, symSize: 0x3C }
  - { offsetInCU: 0x3F3B4, offset: 0x3F3B4, size: 0x8, addend: 0x0, symName: __ZNSt3__116reverse_iteratorINS0_IP8ProducerEEEppB7v160006Ev, symObjAddr: 0x1506C, symBinAddr: 0x10001834C, symSize: 0x30 }
  - { offsetInCU: 0x3F3DA, offset: 0x3F3DA, size: 0x8, addend: 0x0, symName: __ZNKSt3__116reverse_iteratorINS0_IP8ProducerEEE4baseB7v160006Ev, symObjAddr: 0x1509C, symBinAddr: 0x10001837C, symSize: 0x24 }
  - { offsetInCU: 0x3F405, offset: 0x3F405, size: 0x8, addend: 0x0, symName: __ZNSt3__119__to_address_helperINS_16reverse_iteratorINS1_IP8ProducerEEEEvE6__callB7v160006ERKS5_, symObjAddr: 0x150C0, symBinAddr: 0x1000183A0, symSize: 0x38 }
  - { offsetInCU: 0x3F428, offset: 0x3F428, size: 0x8, addend: 0x0, symName: __ZNKSt3__116reverse_iteratorINS0_IP8ProducerEEEptB7v160006Ev, symObjAddr: 0x150F8, symBinAddr: 0x1000183D8, symSize: 0x24 }
  - { offsetInCU: 0x3F44E, offset: 0x3F44E, size: 0x8, addend: 0x0, symName: __ZNKSt3__116reverse_iteratorINS0_IP8ProducerEEEdeB7v160006Ev, symObjAddr: 0x1511C, symBinAddr: 0x1000183FC, symSize: 0x34 }
  - { offsetInCU: 0x3F482, offset: 0x3F482, size: 0x8, addend: 0x0, symName: __ZNSt3__116reverse_iteratorIP8ProducerEmmB7v160006Ev, symObjAddr: 0x15150, symBinAddr: 0x100018430, symSize: 0x20 }
  - { offsetInCU: 0x3F4A8, offset: 0x3F4A8, size: 0x8, addend: 0x0, symName: __ZNSt3__116reverse_iteratorINS0_IP8ProducerEEEC2B7v160006ES3_, symObjAddr: 0x15170, symBinAddr: 0x100018450, symSize: 0x2C }
  - { offsetInCU: 0x3F4E0, offset: 0x3F4E0, size: 0x8, addend: 0x0, symName: __ZNSt3__116reverse_iteratorIP8ProducerEC2B7v160006ES2_, symObjAddr: 0x1519C, symBinAddr: 0x10001847C, symSize: 0x28 }
  - { offsetInCU: 0x3F518, offset: 0x3F518, size: 0x8, addend: 0x0, symName: __ZNSt3__114__split_bufferI8ProducerRNS_9allocatorIS1_EEED2Ev, symObjAddr: 0x151C4, symBinAddr: 0x1000184A4, symSize: 0x8C }
  - { offsetInCU: 0x3F544, offset: 0x3F544, size: 0x8, addend: 0x0, symName: __ZNSt3__114__split_bufferI8ProducerRNS_9allocatorIS1_EEE5clearB7v160006Ev, symObjAddr: 0x15250, symBinAddr: 0x100018530, symSize: 0x28 }
  - { offsetInCU: 0x3F56A, offset: 0x3F56A, size: 0x8, addend: 0x0, symName: __ZNKSt3__114__split_bufferI8ProducerRNS_9allocatorIS1_EEE8capacityB7v160006Ev, symObjAddr: 0x15278, symBinAddr: 0x100018558, symSize: 0x40 }
  - { offsetInCU: 0x3F590, offset: 0x3F590, size: 0x8, addend: 0x0, symName: __ZNSt3__114__split_bufferI8ProducerRNS_9allocatorIS1_EEE17__destruct_at_endB7v160006EPS1_, symObjAddr: 0x152B8, symBinAddr: 0x100018598, symSize: 0x2C }
  - { offsetInCU: 0x3F5C4, offset: 0x3F5C4, size: 0x8, addend: 0x0, symName: __ZNSt3__114__split_bufferI8ProducerRNS_9allocatorIS1_EEE17__destruct_at_endB7v160006EPS1_NS_17integral_constantIbLb0EEE, symObjAddr: 0x152E4, symBinAddr: 0x1000185C4, symSize: 0x80 }
  - { offsetInCU: 0x3F604, offset: 0x3F604, size: 0x8, addend: 0x0, symName: __ZNKSt3__114__split_bufferI8ProducerRNS_9allocatorIS1_EEE9__end_capB7v160006Ev, symObjAddr: 0x15364, symBinAddr: 0x100018644, symSize: 0x28 }
  - { offsetInCU: 0x3F62A, offset: 0x3F62A, size: 0x8, addend: 0x0, symName: __ZNKSt3__117__compressed_pairIP8ProducerRNS_9allocatorIS1_EEE5firstB7v160006Ev, symObjAddr: 0x1538C, symBinAddr: 0x10001866C, symSize: 0x24 }
  - { offsetInCU: 0x3F650, offset: 0x3F650, size: 0x8, addend: 0x0, symName: __ZNSt3__16vectorIiNS_9allocatorIiEEE22__construct_one_at_endB7v160006IJiEEEvDpOT_, symObjAddr: 0x153B0, symBinAddr: 0x100018690, symSize: 0x90 }
  - { offsetInCU: 0x3F69F, offset: 0x3F69F, size: 0x8, addend: 0x0, symName: __ZNSt3__16vectorIiNS_9allocatorIiEEE21__push_back_slow_pathIiEEvOT_, symObjAddr: 0x15440, symBinAddr: 0x100018720, symSize: 0xD8 }
  - { offsetInCU: 0x3F716, offset: 0x3F716, size: 0x8, addend: 0x0, symName: __ZNSt3__16vectorIiNS_9allocatorIiEEE21_ConstructTransactionC1B7v160006ERS3_m, symObjAddr: 0x15518, symBinAddr: 0x1000187F8, symSize: 0x3C }
  - { offsetInCU: 0x3F75E, offset: 0x3F75E, size: 0x8, addend: 0x0, symName: __ZNSt3__116allocator_traitsINS_9allocatorIiEEE9constructB7v160006IiJiEvEEvRS2_PT_DpOT0_, symObjAddr: 0x15554, symBinAddr: 0x100018834, symSize: 0x34 }
  - { offsetInCU: 0x3F7B5, offset: 0x3F7B5, size: 0x8, addend: 0x0, symName: __ZNSt3__16vectorIiNS_9allocatorIiEEE21_ConstructTransactionD1B7v160006Ev, symObjAddr: 0x15588, symBinAddr: 0x100018868, symSize: 0x2C }
  - { offsetInCU: 0x3F7DF, offset: 0x3F7DF, size: 0x8, addend: 0x0, symName: __ZNSt3__16vectorIiNS_9allocatorIiEEE21_ConstructTransactionC2B7v160006ERS3_m, symObjAddr: 0x155B4, symBinAddr: 0x100018894, symSize: 0x44 }
  - { offsetInCU: 0x3F827, offset: 0x3F827, size: 0x8, addend: 0x0, symName: __ZNSt3__19allocatorIiE9constructB7v160006IiJiEEEvPT_DpOT0_, symObjAddr: 0x155F8, symBinAddr: 0x1000188D8, symSize: 0x28 }
  - { offsetInCU: 0x3F87D, offset: 0x3F87D, size: 0x8, addend: 0x0, symName: __ZNSt3__16vectorIiNS_9allocatorIiEEE21_ConstructTransactionD2B7v160006Ev, symObjAddr: 0x15620, symBinAddr: 0x100018900, symSize: 0x20 }
  - { offsetInCU: 0x3F8A7, offset: 0x3F8A7, size: 0x8, addend: 0x0, symName: __ZNKSt3__16vectorIiNS_9allocatorIiEEE11__recommendB7v160006Em, symObjAddr: 0x15640, symBinAddr: 0x100018920, symSize: 0xB4 }
  - { offsetInCU: 0x3F8FC, offset: 0x3F8FC, size: 0x8, addend: 0x0, symName: __ZNSt3__114__split_bufferIiRNS_9allocatorIiEEEC1EmmS3_, symObjAddr: 0x156F4, symBinAddr: 0x1000189D4, symSize: 0x44 }
  - { offsetInCU: 0x3F952, offset: 0x3F952, size: 0x8, addend: 0x0, symName: __ZNSt3__114__split_bufferIiRNS_9allocatorIiEEED1Ev, symObjAddr: 0x15850, symBinAddr: 0x100018B30, symSize: 0x2C }
  - { offsetInCU: 0x3F97E, offset: 0x3F97E, size: 0x8, addend: 0x0, symName: __ZNKSt3__16vectorIiNS_9allocatorIiEEE8max_sizeEv, symObjAddr: 0x1587C, symBinAddr: 0x100018B5C, symSize: 0x60 }
  - { offsetInCU: 0x3F9A6, offset: 0x3F9A6, size: 0x8, addend: 0x0, symName: __ZNKSt3__16vectorIiNS_9allocatorIiEEE20__throw_length_errorB7v160006Ev, symObjAddr: 0x158DC, symBinAddr: 0x100018BBC, symSize: 0x1C }
  - { offsetInCU: 0x3F9D6, offset: 0x3F9D6, size: 0x8, addend: 0x0, symName: __ZNSt3__116allocator_traitsINS_9allocatorIiEEE8max_sizeB7v160006IS2_vEEmRKS2_, symObjAddr: 0x158F8, symBinAddr: 0x100018BD8, symSize: 0x24 }
  - { offsetInCU: 0x3FA04, offset: 0x3FA04, size: 0x8, addend: 0x0, symName: __ZNKSt3__16vectorIiNS_9allocatorIiEEE7__allocB7v160006Ev, symObjAddr: 0x1591C, symBinAddr: 0x100018BFC, symSize: 0x28 }
  - { offsetInCU: 0x3FA2A, offset: 0x3FA2A, size: 0x8, addend: 0x0, symName: __ZNKSt3__19allocatorIiE8max_sizeB7v160006Ev, symObjAddr: 0x15944, symBinAddr: 0x100018C24, symSize: 0x14 }
  - { offsetInCU: 0x3FA50, offset: 0x3FA50, size: 0x8, addend: 0x0, symName: __ZNKSt3__117__compressed_pairIPiNS_9allocatorIiEEE6secondB7v160006Ev, symObjAddr: 0x15958, symBinAddr: 0x100018C38, symSize: 0x24 }
  - { offsetInCU: 0x3FA76, offset: 0x3FA76, size: 0x8, addend: 0x0, symName: __ZNKSt3__122__compressed_pair_elemINS_9allocatorIiEELi1ELb1EE5__getB7v160006Ev, symObjAddr: 0x1597C, symBinAddr: 0x100018C5C, symSize: 0x14 }
  - { offsetInCU: 0x3FA9C, offset: 0x3FA9C, size: 0x8, addend: 0x0, symName: __ZNSt3__114__split_bufferIiRNS_9allocatorIiEEEC2EmmS3_, symObjAddr: 0x15990, symBinAddr: 0x100018C70, symSize: 0xD4 }
  - { offsetInCU: 0x3FB0F, offset: 0x3FB0F, size: 0x8, addend: 0x0, symName: __ZNSt3__117__compressed_pairIPiRNS_9allocatorIiEEEC1B7v160006IDnS4_EEOT_OT0_, symObjAddr: 0x15A64, symBinAddr: 0x100018D44, symSize: 0x3C }
  - { offsetInCU: 0x3FB67, offset: 0x3FB67, size: 0x8, addend: 0x0, symName: __ZNSt3__114__split_bufferIiRNS_9allocatorIiEEE7__allocB7v160006Ev, symObjAddr: 0x15AE0, symBinAddr: 0x100018DC0, symSize: 0x28 }
  - { offsetInCU: 0x3FB8D, offset: 0x3FB8D, size: 0x8, addend: 0x0, symName: __ZNSt3__114__split_bufferIiRNS_9allocatorIiEEE9__end_capB7v160006Ev, symObjAddr: 0x15B08, symBinAddr: 0x100018DE8, symSize: 0x28 }
  - { offsetInCU: 0x3FBB3, offset: 0x3FBB3, size: 0x8, addend: 0x0, symName: __ZNSt3__117__compressed_pairIPiRNS_9allocatorIiEEEC2B7v160006IDnS4_EEOT_OT0_, symObjAddr: 0x15B30, symBinAddr: 0x100018E10, symSize: 0x48 }
  - { offsetInCU: 0x3FC0B, offset: 0x3FC0B, size: 0x8, addend: 0x0, symName: __ZNSt3__122__compressed_pair_elemIRNS_9allocatorIiEELi1ELb0EEC2B7v160006IS3_vEEOT_, symObjAddr: 0x15B78, symBinAddr: 0x100018E58, symSize: 0x20 }
  - { offsetInCU: 0x3FC4D, offset: 0x3FC4D, size: 0x8, addend: 0x0, symName: __ZNSt3__19allocatorIiE8allocateB7v160006Em, symObjAddr: 0x15B98, symBinAddr: 0x100018E78, symSize: 0x58 }
  - { offsetInCU: 0x3FC81, offset: 0x3FC81, size: 0x8, addend: 0x0, symName: __ZNSt3__117__compressed_pairIPiRNS_9allocatorIiEEE6secondB7v160006Ev, symObjAddr: 0x15BF0, symBinAddr: 0x100018ED0, symSize: 0x28 }
  - { offsetInCU: 0x3FCA7, offset: 0x3FCA7, size: 0x8, addend: 0x0, symName: __ZNSt3__122__compressed_pair_elemIRNS_9allocatorIiEELi1ELb0EE5__getB7v160006Ev, symObjAddr: 0x15C18, symBinAddr: 0x100018EF8, symSize: 0x18 }
  - { offsetInCU: 0x3FCCD, offset: 0x3FCCD, size: 0x8, addend: 0x0, symName: __ZNSt3__117__compressed_pairIPiRNS_9allocatorIiEEE5firstB7v160006Ev, symObjAddr: 0x15C30, symBinAddr: 0x100018F10, symSize: 0x24 }
  - { offsetInCU: 0x3FCF3, offset: 0x3FCF3, size: 0x8, addend: 0x0, symName: __ZNSt3__116reverse_iteratorIPiEC1B7v160006ES1_, symObjAddr: 0x15CCC, symBinAddr: 0x100018FAC, symSize: 0x34 }
  - { offsetInCU: 0x3FD2B, offset: 0x3FD2B, size: 0x8, addend: 0x0, symName: __ZNKSt3__116reverse_iteratorIPiE4baseB7v160006Ev, symObjAddr: 0x15D00, symBinAddr: 0x100018FE0, symSize: 0x18 }
  - { offsetInCU: 0x3FD51, offset: 0x3FD51, size: 0x8, addend: 0x0, symName: __ZNKSt3__16vectorIiNS_9allocatorIiEEE14__annotate_newB7v160006Em, symObjAddr: 0x15D54, symBinAddr: 0x100019034, symSize: 0xAC }
  - { offsetInCU: 0x3FDAA, offset: 0x3FDAA, size: 0x8, addend: 0x0, symName: __ZNKSt3__111__move_loopINS_17_ClassicAlgPolicyEEclB7v160006INS_16reverse_iteratorIPiEES6_S6_EENS_4pairIT_T1_EES8_T0_S9_, symObjAddr: 0x160F0, symBinAddr: 0x1000193D0, symSize: 0xA0 }
  - { offsetInCU: 0x3FE15, offset: 0x3FE15, size: 0x8, addend: 0x0, symName: __ZNSt3__18_IterOpsINS_17_ClassicAlgPolicyEE11__iter_moveB7v160006IRNS_16reverse_iteratorIPiEEEENS_9enable_ifIXsr12is_referenceIDTdeclsr3stdE7declvalIRT_EEEEE5valueEDTclsr3stdE4movedeclsr3stdE7declvalISA_EEEEE4typeEOS9_, symObjAddr: 0x16324, symBinAddr: 0x100019604, symSize: 0x28 }
  - { offsetInCU: 0x3FE41, offset: 0x3FE41, size: 0x8, addend: 0x0, symName: __ZNKSt3__116reverse_iteratorIPiEdeB7v160006Ev, symObjAddr: 0x1634C, symBinAddr: 0x10001962C, symSize: 0x28 }
  - { offsetInCU: 0x3FE75, offset: 0x3FE75, size: 0x8, addend: 0x0, symName: __ZNSt3__116reverse_iteratorIPiEppB7v160006Ev, symObjAddr: 0x16374, symBinAddr: 0x100019654, symSize: 0x20 }
  - { offsetInCU: 0x3FE9B, offset: 0x3FE9B, size: 0x8, addend: 0x0, symName: __ZNSt3__18_IterOpsINS_17_ClassicAlgPolicyEE25__validate_iter_referenceB7v160006IRNS_16reverse_iteratorIPiEEEEvv, symObjAddr: 0x16394, symBinAddr: 0x100019674, symSize: 0x4 }
  - { offsetInCU: 0x3FEB9, offset: 0x3FEB9, size: 0x8, addend: 0x0, symName: __ZNSt3__118__unwrap_iter_implINS_16reverse_iteratorIPiEELb0EE8__unwrapB7v160006ES3_, symObjAddr: 0x16398, symBinAddr: 0x100019678, symSize: 0x24 }
  - { offsetInCU: 0x3FEE2, offset: 0x3FEE2, size: 0x8, addend: 0x0, symName: __ZNSt3__14pairINS_16reverse_iteratorIPiEES3_EC1B7v160006IS3_S3_LPv0EEEOT_OT0_, symObjAddr: 0x163BC, symBinAddr: 0x10001969C, symSize: 0x3C }
  - { offsetInCU: 0x3FF40, offset: 0x3FF40, size: 0x8, addend: 0x0, symName: __ZNSt3__14pairINS_16reverse_iteratorIPiEES3_EC2B7v160006IS3_S3_LPv0EEEOT_OT0_, symObjAddr: 0x163F8, symBinAddr: 0x1000196D8, symSize: 0x34 }
  - { offsetInCU: 0x3FF9E, offset: 0x3FF9E, size: 0x8, addend: 0x0, symName: __ZNSt3__118__unwrap_iter_implINS_16reverse_iteratorIPiEELb0EE8__rewrapB7v160006ES3_S3_, symObjAddr: 0x1642C, symBinAddr: 0x10001970C, symSize: 0x2C }
  - { offsetInCU: 0x3FFCB, offset: 0x3FFCB, size: 0x8, addend: 0x0, symName: __ZNSt3__116reverse_iteratorIPiEC2B7v160006ES1_, symObjAddr: 0x16458, symBinAddr: 0x100019738, symSize: 0x28 }
  - { offsetInCU: 0x40003, offset: 0x40003, size: 0x8, addend: 0x0, symName: __ZNSt3__114__split_bufferIiRNS_9allocatorIiEEED2Ev, symObjAddr: 0x16480, symBinAddr: 0x100019760, symSize: 0x8C }
  - { offsetInCU: 0x4002F, offset: 0x4002F, size: 0x8, addend: 0x0, symName: __ZNSt3__114__split_bufferIiRNS_9allocatorIiEEE5clearB7v160006Ev, symObjAddr: 0x1650C, symBinAddr: 0x1000197EC, symSize: 0x28 }
  - { offsetInCU: 0x40055, offset: 0x40055, size: 0x8, addend: 0x0, symName: __ZNKSt3__114__split_bufferIiRNS_9allocatorIiEEE8capacityB7v160006Ev, symObjAddr: 0x16534, symBinAddr: 0x100019814, symSize: 0x40 }
  - { offsetInCU: 0x4007B, offset: 0x4007B, size: 0x8, addend: 0x0, symName: __ZNSt3__114__split_bufferIiRNS_9allocatorIiEEE17__destruct_at_endB7v160006EPi, symObjAddr: 0x16574, symBinAddr: 0x100019854, symSize: 0x2C }
  - { offsetInCU: 0x400AF, offset: 0x400AF, size: 0x8, addend: 0x0, symName: __ZNSt3__114__split_bufferIiRNS_9allocatorIiEEE17__destruct_at_endB7v160006EPiNS_17integral_constantIbLb0EEE, symObjAddr: 0x165A0, symBinAddr: 0x100019880, symSize: 0x80 }
  - { offsetInCU: 0x400EF, offset: 0x400EF, size: 0x8, addend: 0x0, symName: __ZNKSt3__114__split_bufferIiRNS_9allocatorIiEEE9__end_capB7v160006Ev, symObjAddr: 0x16620, symBinAddr: 0x100019900, symSize: 0x28 }
  - { offsetInCU: 0x40115, offset: 0x40115, size: 0x8, addend: 0x0, symName: __ZNKSt3__117__compressed_pairIPiRNS_9allocatorIiEEE5firstB7v160006Ev, symObjAddr: 0x16648, symBinAddr: 0x100019928, symSize: 0x24 }
  - { offsetInCU: 0x4013B, offset: 0x4013B, size: 0x8, addend: 0x0, symName: __ZNSt3__16vectorINS_12basic_stringIcNS_11char_traitsIcEENS_9allocatorIcEEEENS4_IS6_EEE9__end_capB7v160006Ev, symObjAddr: 0x1666C, symBinAddr: 0x10001994C, symSize: 0x28 }
  - { offsetInCU: 0x40167, offset: 0x40167, size: 0x8, addend: 0x0, symName: __ZNSt3__16vectorINS_12basic_stringIcNS_11char_traitsIcEENS_9allocatorIcEEEENS4_IS6_EEE22__construct_one_at_endB7v160006IJS6_EEEvDpOT_, symObjAddr: 0x16694, symBinAddr: 0x100019974, symSize: 0x90 }
  - { offsetInCU: 0x401B6, offset: 0x401B6, size: 0x8, addend: 0x0, symName: __ZNSt3__16vectorINS_12basic_stringIcNS_11char_traitsIcEENS_9allocatorIcEEEENS4_IS6_EEE21__push_back_slow_pathIS6_EEvOT_, symObjAddr: 0x16724, symBinAddr: 0x100019A04, symSize: 0xD8 }
  - { offsetInCU: 0x40214, offset: 0x40214, size: 0x8, addend: 0x0, symName: __ZNSt3__117__compressed_pairIPNS_12basic_stringIcNS_11char_traitsIcEENS_9allocatorIcEEEENS4_IS6_EEE5firstB7v160006Ev, symObjAddr: 0x167FC, symBinAddr: 0x100019ADC, symSize: 0x24 }
  - { offsetInCU: 0x4023A, offset: 0x4023A, size: 0x8, addend: 0x0, symName: __ZNSt3__122__compressed_pair_elemIPNS_12basic_stringIcNS_11char_traitsIcEENS_9allocatorIcEEEELi0ELb0EE5__getB7v160006Ev, symObjAddr: 0x16820, symBinAddr: 0x100019B00, symSize: 0x14 }
  - { offsetInCU: 0x40279, offset: 0x40279, size: 0x8, addend: 0x0, symName: __ZNSt3__16vectorINS_12basic_stringIcNS_11char_traitsIcEENS_9allocatorIcEEEENS4_IS6_EEE21_ConstructTransactionC1B7v160006ERS8_m, symObjAddr: 0x16834, symBinAddr: 0x100019B14, symSize: 0x3C }
  - { offsetInCU: 0x402C1, offset: 0x402C1, size: 0x8, addend: 0x0, symName: __ZNSt3__116allocator_traitsINS_9allocatorINS_12basic_stringIcNS_11char_traitsIcEENS1_IcEEEEEEE9constructB7v160006IS6_JS6_EvEEvRS7_PT_DpOT0_, symObjAddr: 0x16870, symBinAddr: 0x100019B50, symSize: 0x34 }
  - { offsetInCU: 0x40318, offset: 0x40318, size: 0x8, addend: 0x0, symName: __ZNSt3__16vectorINS_12basic_stringIcNS_11char_traitsIcEENS_9allocatorIcEEEENS4_IS6_EEE21_ConstructTransactionD1B7v160006Ev, symObjAddr: 0x168A4, symBinAddr: 0x100019B84, symSize: 0x2C }
  - { offsetInCU: 0x40342, offset: 0x40342, size: 0x8, addend: 0x0, symName: __ZNSt3__16vectorINS_12basic_stringIcNS_11char_traitsIcEENS_9allocatorIcEEEENS4_IS6_EEE21_ConstructTransactionC2B7v160006ERS8_m, symObjAddr: 0x168D0, symBinAddr: 0x100019BB0, symSize: 0x4C }
  - { offsetInCU: 0x4038A, offset: 0x4038A, size: 0x8, addend: 0x0, symName: __ZNSt3__19allocatorINS_12basic_stringIcNS_11char_traitsIcEENS0_IcEEEEE9constructB7v160006IS5_JS5_EEEvPT_DpOT0_, symObjAddr: 0x1691C, symBinAddr: 0x100019BFC, symSize: 0x30 }
  - { offsetInCU: 0x403E0, offset: 0x403E0, size: 0x8, addend: 0x0, symName: __ZNSt3__112basic_stringIcNS_11char_traitsIcEENS_9allocatorIcEEEC1B7v160006EOS5_, symObjAddr: 0x1694C, symBinAddr: 0x100019C2C, symSize: 0x34 }
  - { offsetInCU: 0x40419, offset: 0x40419, size: 0x8, addend: 0x0, symName: __ZNSt3__112basic_stringIcNS_11char_traitsIcEENS_9allocatorIcEEEC2B7v160006EOS5_, symObjAddr: 0x16980, symBinAddr: 0x100019C60, symSize: 0x80 }
  - { offsetInCU: 0x40452, offset: 0x40452, size: 0x8, addend: 0x0, symName: __ZNSt3__16vectorINS_12basic_stringIcNS_11char_traitsIcEENS_9allocatorIcEEEENS4_IS6_EEE21_ConstructTransactionD2B7v160006Ev, symObjAddr: 0x16A14, symBinAddr: 0x100019CF4, symSize: 0x20 }
  - { offsetInCU: 0x4047C, offset: 0x4047C, size: 0x8, addend: 0x0, symName: __ZNKSt3__16vectorINS_12basic_stringIcNS_11char_traitsIcEENS_9allocatorIcEEEENS4_IS6_EEE11__recommendB7v160006Em, symObjAddr: 0x16A34, symBinAddr: 0x100019D14, symSize: 0xB4 }
  - { offsetInCU: 0x404D1, offset: 0x404D1, size: 0x8, addend: 0x0, symName: __ZNSt3__114__split_bufferINS_12basic_stringIcNS_11char_traitsIcEENS_9allocatorIcEEEERNS4_IS6_EEEC1EmmS8_, symObjAddr: 0x16AE8, symBinAddr: 0x100019DC8, symSize: 0x44 }
  - { offsetInCU: 0x40527, offset: 0x40527, size: 0x8, addend: 0x0, symName: __ZNSt3__114__split_bufferINS_12basic_stringIcNS_11char_traitsIcEENS_9allocatorIcEEEERNS4_IS6_EEED1Ev, symObjAddr: 0x16C44, symBinAddr: 0x100019F24, symSize: 0x2C }
  - { offsetInCU: 0x40553, offset: 0x40553, size: 0x8, addend: 0x0, symName: __ZNKSt3__16vectorINS_12basic_stringIcNS_11char_traitsIcEENS_9allocatorIcEEEENS4_IS6_EEE8max_sizeEv, symObjAddr: 0x16C70, symBinAddr: 0x100019F50, symSize: 0x60 }
  - { offsetInCU: 0x4057B, offset: 0x4057B, size: 0x8, addend: 0x0, symName: __ZNKSt3__16vectorINS_12basic_stringIcNS_11char_traitsIcEENS_9allocatorIcEEEENS4_IS6_EEE20__throw_length_errorB7v160006Ev, symObjAddr: 0x16CD0, symBinAddr: 0x100019FB0, symSize: 0x1C }
  - { offsetInCU: 0x405AB, offset: 0x405AB, size: 0x8, addend: 0x0, symName: __ZNSt3__116allocator_traitsINS_9allocatorINS_12basic_stringIcNS_11char_traitsIcEENS1_IcEEEEEEE8max_sizeB7v160006IS7_vEEmRKS7_, symObjAddr: 0x16CEC, symBinAddr: 0x100019FCC, symSize: 0x24 }
  - { offsetInCU: 0x405D9, offset: 0x405D9, size: 0x8, addend: 0x0, symName: __ZNKSt3__16vectorINS_12basic_stringIcNS_11char_traitsIcEENS_9allocatorIcEEEENS4_IS6_EEE7__allocB7v160006Ev, symObjAddr: 0x16D10, symBinAddr: 0x100019FF0, symSize: 0x28 }
  - { offsetInCU: 0x405FF, offset: 0x405FF, size: 0x8, addend: 0x0, symName: __ZNKSt3__19allocatorINS_12basic_stringIcNS_11char_traitsIcEENS0_IcEEEEE8max_sizeB7v160006Ev, symObjAddr: 0x16D38, symBinAddr: 0x10001A018, symSize: 0x18 }
  - { offsetInCU: 0x40625, offset: 0x40625, size: 0x8, addend: 0x0, symName: __ZNKSt3__117__compressed_pairIPNS_12basic_stringIcNS_11char_traitsIcEENS_9allocatorIcEEEENS4_IS6_EEE6secondB7v160006Ev, symObjAddr: 0x16D50, symBinAddr: 0x10001A030, symSize: 0x24 }
  - { offsetInCU: 0x4064B, offset: 0x4064B, size: 0x8, addend: 0x0, symName: __ZNKSt3__122__compressed_pair_elemINS_9allocatorINS_12basic_stringIcNS_11char_traitsIcEENS1_IcEEEEEELi1ELb1EE5__getB7v160006Ev, symObjAddr: 0x16D74, symBinAddr: 0x10001A054, symSize: 0x14 }
  - { offsetInCU: 0x40671, offset: 0x40671, size: 0x8, addend: 0x0, symName: __ZNSt3__114__split_bufferINS_12basic_stringIcNS_11char_traitsIcEENS_9allocatorIcEEEERNS4_IS6_EEEC2EmmS8_, symObjAddr: 0x16D88, symBinAddr: 0x10001A068, symSize: 0xE0 }
  - { offsetInCU: 0x406E4, offset: 0x406E4, size: 0x8, addend: 0x0, symName: __ZNSt3__117__compressed_pairIPNS_12basic_stringIcNS_11char_traitsIcEENS_9allocatorIcEEEERNS4_IS6_EEEC1B7v160006IDnS9_EEOT_OT0_, symObjAddr: 0x16E68, symBinAddr: 0x10001A148, symSize: 0x3C }
  - { offsetInCU: 0x4073C, offset: 0x4073C, size: 0x8, addend: 0x0, symName: __ZNSt3__114__split_bufferINS_12basic_stringIcNS_11char_traitsIcEENS_9allocatorIcEEEERNS4_IS6_EEE7__allocB7v160006Ev, symObjAddr: 0x16EE4, symBinAddr: 0x10001A1C4, symSize: 0x28 }
  - { offsetInCU: 0x40762, offset: 0x40762, size: 0x8, addend: 0x0, symName: __ZNSt3__114__split_bufferINS_12basic_stringIcNS_11char_traitsIcEENS_9allocatorIcEEEERNS4_IS6_EEE9__end_capB7v160006Ev, symObjAddr: 0x16F0C, symBinAddr: 0x10001A1EC, symSize: 0x28 }
  - { offsetInCU: 0x40788, offset: 0x40788, size: 0x8, addend: 0x0, symName: __ZNSt3__117__compressed_pairIPNS_12basic_stringIcNS_11char_traitsIcEENS_9allocatorIcEEEERNS4_IS6_EEEC2B7v160006IDnS9_EEOT_OT0_, symObjAddr: 0x16F34, symBinAddr: 0x10001A214, symSize: 0x48 }
  - { offsetInCU: 0x407E0, offset: 0x407E0, size: 0x8, addend: 0x0, symName: __ZNSt3__122__compressed_pair_elemIRNS_9allocatorINS_12basic_stringIcNS_11char_traitsIcEENS1_IcEEEEEELi1ELb0EEC2B7v160006IS8_vEEOT_, symObjAddr: 0x16F7C, symBinAddr: 0x10001A25C, symSize: 0x20 }
  - { offsetInCU: 0x40822, offset: 0x40822, size: 0x8, addend: 0x0, symName: __ZNSt3__19allocatorINS_12basic_stringIcNS_11char_traitsIcEENS0_IcEEEEE8allocateB7v160006Em, symObjAddr: 0x16F9C, symBinAddr: 0x10001A27C, symSize: 0x5C }
  - { offsetInCU: 0x40856, offset: 0x40856, size: 0x8, addend: 0x0, symName: __ZNSt3__117__compressed_pairIPNS_12basic_stringIcNS_11char_traitsIcEENS_9allocatorIcEEEERNS4_IS6_EEE6secondB7v160006Ev, symObjAddr: 0x16FF8, symBinAddr: 0x10001A2D8, symSize: 0x28 }
  - { offsetInCU: 0x4087C, offset: 0x4087C, size: 0x8, addend: 0x0, symName: __ZNSt3__122__compressed_pair_elemIRNS_9allocatorINS_12basic_stringIcNS_11char_traitsIcEENS1_IcEEEEEELi1ELb0EE5__getB7v160006Ev, symObjAddr: 0x17020, symBinAddr: 0x10001A300, symSize: 0x18 }
  - { offsetInCU: 0x408A2, offset: 0x408A2, size: 0x8, addend: 0x0, symName: __ZNSt3__117__compressed_pairIPNS_12basic_stringIcNS_11char_traitsIcEENS_9allocatorIcEEEERNS4_IS6_EEE5firstB7v160006Ev, symObjAddr: 0x17038, symBinAddr: 0x10001A318, symSize: 0x24 }
  - { offsetInCU: 0x408C8, offset: 0x408C8, size: 0x8, addend: 0x0, symName: __ZNSt3__116reverse_iteratorIPNS_12basic_stringIcNS_11char_traitsIcEENS_9allocatorIcEEEEEC1B7v160006ES7_, symObjAddr: 0x17188, symBinAddr: 0x10001A468, symSize: 0x34 }
  - { offsetInCU: 0x40900, offset: 0x40900, size: 0x8, addend: 0x0, symName: __ZNKSt3__116reverse_iteratorIPNS_12basic_stringIcNS_11char_traitsIcEENS_9allocatorIcEEEEE4baseB7v160006Ev, symObjAddr: 0x171BC, symBinAddr: 0x10001A49C, symSize: 0x18 }
  - { offsetInCU: 0x40926, offset: 0x40926, size: 0x8, addend: 0x0, symName: __ZNKSt3__16vectorINS_12basic_stringIcNS_11char_traitsIcEENS_9allocatorIcEEEENS4_IS6_EEE14__annotate_newB7v160006Em, symObjAddr: 0x17210, symBinAddr: 0x10001A4F0, symSize: 0xC8 }
  - { offsetInCU: 0x4095B, offset: 0x4095B, size: 0x8, addend: 0x0, symName: __ZNSt3__129_AllocatorDestroyRangeReverseINS_9allocatorINS_12basic_stringIcNS_11char_traitsIcEENS1_IcEEEEEENS_16reverse_iteratorIPS6_EEEC1B7v160006ERS7_RSA_SD_, symObjAddr: 0x17334, symBinAddr: 0x10001A614, symSize: 0x44 }
  - { offsetInCU: 0x409B2, offset: 0x409B2, size: 0x8, addend: 0x0, symName: __ZNKSt3__116reverse_iteratorIPNS_12basic_stringIcNS_11char_traitsIcEENS_9allocatorIcEEEEEdeB7v160006Ev, symObjAddr: 0x173E4, symBinAddr: 0x10001A6C4, symSize: 0x28 }
  - { offsetInCU: 0x409E6, offset: 0x409E6, size: 0x8, addend: 0x0, symName: __ZNSt3__116reverse_iteratorIPNS_12basic_stringIcNS_11char_traitsIcEENS_9allocatorIcEEEEEppB7v160006Ev, symObjAddr: 0x1740C, symBinAddr: 0x10001A6EC, symSize: 0x20 }
  - { offsetInCU: 0x40A0C, offset: 0x40A0C, size: 0x8, addend: 0x0, symName: __ZNSt3__128__exception_guard_exceptionsINS_29_AllocatorDestroyRangeReverseINS_9allocatorINS_12basic_stringIcNS_11char_traitsIcEENS2_IcEEEEEENS_16reverse_iteratorIPS7_EEEEE10__completeB7v160006Ev, symObjAddr: 0x1742C, symBinAddr: 0x10001A70C, symSize: 0x1C }
  - { offsetInCU: 0x40A32, offset: 0x40A32, size: 0x8, addend: 0x0, symName: __ZNSt3__128__exception_guard_exceptionsINS_29_AllocatorDestroyRangeReverseINS_9allocatorINS_12basic_stringIcNS_11char_traitsIcEENS2_IcEEEEEENS_16reverse_iteratorIPS7_EEEEED1B7v160006Ev, symObjAddr: 0x17448, symBinAddr: 0x10001A728, symSize: 0x2C }
  - { offsetInCU: 0x40A5C, offset: 0x40A5C, size: 0x8, addend: 0x0, symName: __ZNSt3__128__exception_guard_exceptionsINS_29_AllocatorDestroyRangeReverseINS_9allocatorINS_12basic_stringIcNS_11char_traitsIcEENS2_IcEEEEEENS_16reverse_iteratorIPS7_EEEEEC1B7v160006ESC_, symObjAddr: 0x17474, symBinAddr: 0x10001A754, symSize: 0x34 }
  - { offsetInCU: 0x40A95, offset: 0x40A95, size: 0x8, addend: 0x0, symName: __ZNSt3__128__exception_guard_exceptionsINS_29_AllocatorDestroyRangeReverseINS_9allocatorINS_12basic_stringIcNS_11char_traitsIcEENS2_IcEEEEEENS_16reverse_iteratorIPS7_EEEEEC2B7v160006ESC_, symObjAddr: 0x174A8, symBinAddr: 0x10001A788, symSize: 0x30 }
  - { offsetInCU: 0x40ACE, offset: 0x40ACE, size: 0x8, addend: 0x0, symName: __ZNSt3__129_AllocatorDestroyRangeReverseINS_9allocatorINS_12basic_stringIcNS_11char_traitsIcEENS1_IcEEEEEENS_16reverse_iteratorIPS6_EEEC2B7v160006ERS7_RSA_SD_, symObjAddr: 0x174D8, symBinAddr: 0x10001A7B8, symSize: 0x38 }
  - { offsetInCU: 0x40B2A, offset: 0x40B2A, size: 0x8, addend: 0x0, symName: __ZNSt3__119__to_address_helperINS_16reverse_iteratorIPNS_12basic_stringIcNS_11char_traitsIcEENS_9allocatorIcEEEEEEvE6__callB7v160006ERKS9_, symObjAddr: 0x17510, symBinAddr: 0x10001A7F0, symSize: 0x38 }
  - { offsetInCU: 0x40B4D, offset: 0x40B4D, size: 0x8, addend: 0x0, symName: __ZNKSt3__116reverse_iteratorIPNS_12basic_stringIcNS_11char_traitsIcEENS_9allocatorIcEEEEEptB7v160006Ev, symObjAddr: 0x17548, symBinAddr: 0x10001A828, symSize: 0x24 }
  - { offsetInCU: 0x40B73, offset: 0x40B73, size: 0x8, addend: 0x0, symName: __ZNSt3__128__exception_guard_exceptionsINS_29_AllocatorDestroyRangeReverseINS_9allocatorINS_12basic_stringIcNS_11char_traitsIcEENS2_IcEEEEEENS_16reverse_iteratorIPS7_EEEEED2B7v160006Ev, symObjAddr: 0x1756C, symBinAddr: 0x10001A84C, symSize: 0x50 }
  - { offsetInCU: 0x40B9D, offset: 0x40B9D, size: 0x8, addend: 0x0, symName: __ZNKSt3__129_AllocatorDestroyRangeReverseINS_9allocatorINS_12basic_stringIcNS_11char_traitsIcEENS1_IcEEEEEENS_16reverse_iteratorIPS6_EEEclB7v160006Ev, symObjAddr: 0x175BC, symBinAddr: 0x10001A89C, symSize: 0xB4 }
  - { offsetInCU: 0x40BC4, offset: 0x40BC4, size: 0x8, addend: 0x0, symName: __ZNSt3__116reverse_iteratorINS0_IPNS_12basic_stringIcNS_11char_traitsIcEENS_9allocatorIcEEEEEEEC1B7v160006ES8_, symObjAddr: 0x176E0, symBinAddr: 0x10001A9C0, symSize: 0x3C }
  - { offsetInCU: 0x40BFC, offset: 0x40BFC, size: 0x8, addend: 0x0, symName: __ZNSt3__116reverse_iteratorINS0_IPNS_12basic_stringIcNS_11char_traitsIcEENS_9allocatorIcEEEEEEEppB7v160006Ev, symObjAddr: 0x177A0, symBinAddr: 0x10001AA80, symSize: 0x30 }
  - { offsetInCU: 0x40C22, offset: 0x40C22, size: 0x8, addend: 0x0, symName: __ZNKSt3__116reverse_iteratorINS0_IPNS_12basic_stringIcNS_11char_traitsIcEENS_9allocatorIcEEEEEEE4baseB7v160006Ev, symObjAddr: 0x177D0, symBinAddr: 0x10001AAB0, symSize: 0x24 }
  - { offsetInCU: 0x40C4D, offset: 0x40C4D, size: 0x8, addend: 0x0, symName: __ZNSt3__119__to_address_helperINS_16reverse_iteratorINS1_IPNS_12basic_stringIcNS_11char_traitsIcEENS_9allocatorIcEEEEEEEEvE6__callB7v160006ERKSA_, symObjAddr: 0x177F4, symBinAddr: 0x10001AAD4, symSize: 0x38 }
  - { offsetInCU: 0x40C70, offset: 0x40C70, size: 0x8, addend: 0x0, symName: __ZNKSt3__116reverse_iteratorINS0_IPNS_12basic_stringIcNS_11char_traitsIcEENS_9allocatorIcEEEEEEEptB7v160006Ev, symObjAddr: 0x1782C, symBinAddr: 0x10001AB0C, symSize: 0x24 }
  - { offsetInCU: 0x40C96, offset: 0x40C96, size: 0x8, addend: 0x0, symName: __ZNKSt3__116reverse_iteratorINS0_IPNS_12basic_stringIcNS_11char_traitsIcEENS_9allocatorIcEEEEEEEdeB7v160006Ev, symObjAddr: 0x17850, symBinAddr: 0x10001AB30, symSize: 0x34 }
  - { offsetInCU: 0x40CCA, offset: 0x40CCA, size: 0x8, addend: 0x0, symName: __ZNSt3__116reverse_iteratorIPNS_12basic_stringIcNS_11char_traitsIcEENS_9allocatorIcEEEEEmmB7v160006Ev, symObjAddr: 0x17884, symBinAddr: 0x10001AB64, symSize: 0x20 }
  - { offsetInCU: 0x40CF0, offset: 0x40CF0, size: 0x8, addend: 0x0, symName: __ZNSt3__116reverse_iteratorINS0_IPNS_12basic_stringIcNS_11char_traitsIcEENS_9allocatorIcEEEEEEEC2B7v160006ES8_, symObjAddr: 0x178A4, symBinAddr: 0x10001AB84, symSize: 0x2C }
  - { offsetInCU: 0x40D28, offset: 0x40D28, size: 0x8, addend: 0x0, symName: __ZNSt3__116reverse_iteratorIPNS_12basic_stringIcNS_11char_traitsIcEENS_9allocatorIcEEEEEC2B7v160006ES7_, symObjAddr: 0x178D0, symBinAddr: 0x10001ABB0, symSize: 0x28 }
  - { offsetInCU: 0x40D60, offset: 0x40D60, size: 0x8, addend: 0x0, symName: __ZNSt3__114__split_bufferINS_12basic_stringIcNS_11char_traitsIcEENS_9allocatorIcEEEERNS4_IS6_EEED2Ev, symObjAddr: 0x178F8, symBinAddr: 0x10001ABD8, symSize: 0x8C }
  - { offsetInCU: 0x40D8C, offset: 0x40D8C, size: 0x8, addend: 0x0, symName: __ZNSt3__114__split_bufferINS_12basic_stringIcNS_11char_traitsIcEENS_9allocatorIcEEEERNS4_IS6_EEE5clearB7v160006Ev, symObjAddr: 0x17984, symBinAddr: 0x10001AC64, symSize: 0x28 }
  - { offsetInCU: 0x40DB2, offset: 0x40DB2, size: 0x8, addend: 0x0, symName: __ZNKSt3__114__split_bufferINS_12basic_stringIcNS_11char_traitsIcEENS_9allocatorIcEEEERNS4_IS6_EEE8capacityB7v160006Ev, symObjAddr: 0x179AC, symBinAddr: 0x10001AC8C, symSize: 0x40 }
  - { offsetInCU: 0x40DD8, offset: 0x40DD8, size: 0x8, addend: 0x0, symName: __ZNSt3__114__split_bufferINS_12basic_stringIcNS_11char_traitsIcEENS_9allocatorIcEEEERNS4_IS6_EEE17__destruct_at_endB7v160006EPS6_, symObjAddr: 0x179EC, symBinAddr: 0x10001ACCC, symSize: 0x2C }
  - { offsetInCU: 0x40E0C, offset: 0x40E0C, size: 0x8, addend: 0x0, symName: __ZNSt3__114__split_bufferINS_12basic_stringIcNS_11char_traitsIcEENS_9allocatorIcEEEERNS4_IS6_EEE17__destruct_at_endB7v160006EPS6_NS_17integral_constantIbLb0EEE, symObjAddr: 0x17A18, symBinAddr: 0x10001ACF8, symSize: 0x80 }
  - { offsetInCU: 0x40E4C, offset: 0x40E4C, size: 0x8, addend: 0x0, symName: __ZNKSt3__114__split_bufferINS_12basic_stringIcNS_11char_traitsIcEENS_9allocatorIcEEEERNS4_IS6_EEE9__end_capB7v160006Ev, symObjAddr: 0x17A98, symBinAddr: 0x10001AD78, symSize: 0x28 }
  - { offsetInCU: 0x40E72, offset: 0x40E72, size: 0x8, addend: 0x0, symName: __ZNKSt3__117__compressed_pairIPNS_12basic_stringIcNS_11char_traitsIcEENS_9allocatorIcEEEERNS4_IS6_EEE5firstB7v160006Ev, symObjAddr: 0x17AC0, symBinAddr: 0x10001ADA0, symSize: 0x24 }
  - { offsetInCU: 0x40E98, offset: 0x40E98, size: 0x8, addend: 0x0, symName: __ZNSt3__16vectorIiNS_9allocatorIiEEE22__construct_one_at_endB7v160006IJRKiEEEvDpOT_, symObjAddr: 0x17AE4, symBinAddr: 0x10001ADC4, symSize: 0x90 }
  - { offsetInCU: 0x40EE7, offset: 0x40EE7, size: 0x8, addend: 0x0, symName: __ZNSt3__16vectorIiNS_9allocatorIiEEE21__push_back_slow_pathIRKiEEvOT_, symObjAddr: 0x17B74, symBinAddr: 0x10001AE54, symSize: 0xD8 }
  - { offsetInCU: 0x40F45, offset: 0x40F45, size: 0x8, addend: 0x0, symName: __ZNSt3__116allocator_traitsINS_9allocatorIiEEE9constructB7v160006IiJRKiEvEEvRS2_PT_DpOT0_, symObjAddr: 0x17C4C, symBinAddr: 0x10001AF2C, symSize: 0x34 }
  - { offsetInCU: 0x40F9C, offset: 0x40F9C, size: 0x8, addend: 0x0, symName: __ZNSt3__19allocatorIiE9constructB7v160006IiJRKiEEEvPT_DpOT0_, symObjAddr: 0x17C80, symBinAddr: 0x10001AF60, symSize: 0x28 }
  - { offsetInCU: 0x40FF2, offset: 0x40FF2, size: 0x8, addend: 0x0, symName: __ZNSt3__16__treeINS_12__value_typeIiNS_6vectorIiNS_9allocatorIiEEEEEENS_19__map_value_compareIiS6_NS_4lessIiEELb1EEENS3_IS6_EEE4findIiEENS_15__tree_iteratorIS6_PNS_11__tree_nodeIS6_PvEElEERKT_, symObjAddr: 0x17CA8, symBinAddr: 0x10001AF88, symSize: 0xF8 }
  - { offsetInCU: 0x41041, offset: 0x41041, size: 0x8, addend: 0x0, symName: __ZNSt3__114__map_iteratorINS_15__tree_iteratorINS_12__value_typeIiNS_6vectorIiNS_9allocatorIiEEEEEEPNS_11__tree_nodeIS7_PvEElEEEC1B7v160006ESC_, symObjAddr: 0x17DA0, symBinAddr: 0x10001B080, symSize: 0x34 }
  - { offsetInCU: 0x4107A, offset: 0x4107A, size: 0x8, addend: 0x0, symName: __ZNSt3__16__treeINS_12__value_typeIiNS_6vectorIiNS_9allocatorIiEEEEEENS_19__map_value_compareIiS6_NS_4lessIiEELb1EEENS3_IS6_EEE13__lower_boundIiEENS_15__tree_iteratorIS6_PNS_11__tree_nodeIS6_PvEElEERKT_SI_PNS_15__tree_end_nodeIPNS_16__tree_node_baseISG_EEEE, symObjAddr: 0x17DD4, symBinAddr: 0x10001B0B4, symSize: 0xA4 }
  - { offsetInCU: 0x410D8, offset: 0x410D8, size: 0x8, addend: 0x0, symName: __ZNSt3__16__treeINS_12__value_typeIiNS_6vectorIiNS_9allocatorIiEEEEEENS_19__map_value_compareIiS6_NS_4lessIiEELb1EEENS3_IS6_EEE3endB7v160006Ev, symObjAddr: 0x17EAC, symBinAddr: 0x10001B18C, symSize: 0x34 }
  - { offsetInCU: 0x410FE, offset: 0x410FE, size: 0x8, addend: 0x0, symName: __ZNSt3__16__treeINS_12__value_typeIiNS_6vectorIiNS_9allocatorIiEEEEEENS_19__map_value_compareIiS6_NS_4lessIiEELb1EEENS3_IS6_EEE10value_compB7v160006Ev, symObjAddr: 0x17EE0, symBinAddr: 0x10001B1C0, symSize: 0x28 }
  - { offsetInCU: 0x41124, offset: 0x41124, size: 0x8, addend: 0x0, symName: __ZNKSt3__119__map_value_compareIiNS_12__value_typeIiNS_6vectorIiNS_9allocatorIiEEEEEENS_4lessIiEELb1EEclB7v160006ERKiRKS6_, symObjAddr: 0x17F08, symBinAddr: 0x10001B1E8, symSize: 0x50 }
  - { offsetInCU: 0x41168, offset: 0x41168, size: 0x8, addend: 0x0, symName: __ZNKSt3__115__tree_iteratorINS_12__value_typeIiNS_6vectorIiNS_9allocatorIiEEEEEEPNS_11__tree_nodeIS6_PvEElEdeB7v160006Ev, symObjAddr: 0x17F58, symBinAddr: 0x10001B238, symSize: 0x28 }
  - { offsetInCU: 0x4118E, offset: 0x4118E, size: 0x8, addend: 0x0, symName: __ZNKSt3__119__map_value_compareIiNS_12__value_typeIiNS_6vectorIiNS_9allocatorIiEEEEEENS_4lessIiEELb1EEclB7v160006ERKS6_RKi, symObjAddr: 0x17F80, symBinAddr: 0x10001B260, symSize: 0x48 }
  - { offsetInCU: 0x411D2, offset: 0x411D2, size: 0x8, addend: 0x0, symName: __ZNSt3__115__tree_iteratorINS_12__value_typeIiNS_6vectorIiNS_9allocatorIiEEEEEEPNS_11__tree_nodeIS6_PvEElEC1B7v160006EPNS_15__tree_end_nodeIPNS_16__tree_node_baseIS8_EEEE, symObjAddr: 0x17FC8, symBinAddr: 0x10001B2A8, symSize: 0x34 }
  - { offsetInCU: 0x4120B, offset: 0x4120B, size: 0x8, addend: 0x0, symName: __ZNKSt3__112__value_typeIiNS_6vectorIiNS_9allocatorIiEEEEE11__get_valueB7v160006Ev, symObjAddr: 0x17FFC, symBinAddr: 0x10001B2DC, symSize: 0x14 }
  - { offsetInCU: 0x41231, offset: 0x41231, size: 0x8, addend: 0x0, symName: __ZNSt3__115__tree_iteratorINS_12__value_typeIiNS_6vectorIiNS_9allocatorIiEEEEEEPNS_11__tree_nodeIS6_PvEElEC2B7v160006EPNS_15__tree_end_nodeIPNS_16__tree_node_baseIS8_EEEE, symObjAddr: 0x18010, symBinAddr: 0x10001B2F0, symSize: 0x20 }
  - { offsetInCU: 0x4126A, offset: 0x4126A, size: 0x8, addend: 0x0, symName: __ZNSt3__117__compressed_pairImNS_19__map_value_compareIiNS_12__value_typeIiNS_6vectorIiNS_9allocatorIiEEEEEENS_4lessIiEELb1EEEE6secondB7v160006Ev, symObjAddr: 0x18060, symBinAddr: 0x10001B340, symSize: 0x24 }
  - { offsetInCU: 0x41290, offset: 0x41290, size: 0x8, addend: 0x0, symName: __ZNSt3__122__compressed_pair_elemINS_19__map_value_compareIiNS_12__value_typeIiNS_6vectorIiNS_9allocatorIiEEEEEENS_4lessIiEELb1EEELi1ELb1EE5__getB7v160006Ev, symObjAddr: 0x18084, symBinAddr: 0x10001B364, symSize: 0x14 }
  - { offsetInCU: 0x412B6, offset: 0x412B6, size: 0x8, addend: 0x0, symName: __ZNKSt3__115__tree_iteratorINS_12__value_typeIiNS_6vectorIiNS_9allocatorIiEEEEEEPNS_11__tree_nodeIS6_PvEElE8__get_npB7v160006Ev, symObjAddr: 0x18098, symBinAddr: 0x10001B378, symSize: 0x18 }
  - { offsetInCU: 0x412DC, offset: 0x412DC, size: 0x8, addend: 0x0, symName: __ZNSt3__114__map_iteratorINS_15__tree_iteratorINS_12__value_typeIiNS_6vectorIiNS_9allocatorIiEEEEEEPNS_11__tree_nodeIS7_PvEElEEEC2B7v160006ESC_, symObjAddr: 0x180B0, symBinAddr: 0x10001B390, symSize: 0x20 }
  - { offsetInCU: 0x41315, offset: 0x41315, size: 0x8, addend: 0x0, symName: __ZNSt3__16vectorIiNS_9allocatorIiEEE19__copy_assign_allocB7v160006ERKS3_, symObjAddr: 0x180D0, symBinAddr: 0x10001B3B0, symSize: 0x2C }
  - { offsetInCU: 0x4134A, offset: 0x4134A, size: 0x8, addend: 0x0, symName: __ZNSt3__16vectorIiNS_9allocatorIiEEE6assignIPiLi0EEEvT_S6_, symObjAddr: 0x180FC, symBinAddr: 0x10001B3DC, symSize: 0x17C }
  - { offsetInCU: 0x413E9, offset: 0x413E9, size: 0x8, addend: 0x0, symName: __ZNSt3__16vectorIiNS_9allocatorIiEEE19__copy_assign_allocB7v160006ERKS3_NS_17integral_constantIbLb0EEE, symObjAddr: 0x18278, symBinAddr: 0x10001B558, symSize: 0x14 }
  - { offsetInCU: 0x41425, offset: 0x41425, size: 0x8, addend: 0x0, symName: __ZNSt3__16vectorIiNS_9allocatorIiEEE18__construct_at_endIPiLi0EEEvT_S6_m, symObjAddr: 0x18348, symBinAddr: 0x10001B628, symSize: 0x8C }
  - { offsetInCU: 0x41498, offset: 0x41498, size: 0x8, addend: 0x0, symName: __ZNSt3__16vectorIiNS_9allocatorIiEEE17__destruct_at_endB7v160006EPi, symObjAddr: 0x183D4, symBinAddr: 0x10001B6B4, symSize: 0x60 }
  - { offsetInCU: 0x414DC, offset: 0x414DC, size: 0x8, addend: 0x0, symName: __ZNSt3__16vectorIiNS_9allocatorIiEEE13__vdeallocateEv, symObjAddr: 0x18434, symBinAddr: 0x10001B714, symSize: 0x8C }
  - { offsetInCU: 0x41504, offset: 0x41504, size: 0x8, addend: 0x0, symName: __ZNSt3__16vectorIiNS_9allocatorIiEEE11__vallocateB7v160006Em, symObjAddr: 0x184C0, symBinAddr: 0x10001B7A0, symSize: 0xAC }
  - { offsetInCU: 0x4156C, offset: 0x4156C, size: 0x8, addend: 0x0, symName: __ZNKSt3__114__copy_trivialclB7v160006IiiLi0EEENS_4pairIPT_PT0_EES4_S4_S6_, symObjAddr: 0x1876C, symBinAddr: 0x10001BA4C, symSize: 0x48 }
  - { offsetInCU: 0x415DA, offset: 0x415DA, size: 0x8, addend: 0x0, symName: __ZNSt3__14pairIPiS1_EC1B7v160006IRS1_S1_LPv0EEEOT_OT0_, symObjAddr: 0x18934, symBinAddr: 0x10001BC14, symSize: 0x3C }
  - { offsetInCU: 0x41638, offset: 0x41638, size: 0x8, addend: 0x0, symName: __ZNSt3__14pairIPiS1_EC2B7v160006IRS1_S1_LPv0EEEOT_OT0_, symObjAddr: 0x18970, symBinAddr: 0x10001BC50, symSize: 0x34 }
  - { offsetInCU: 0x41696, offset: 0x41696, size: 0x8, addend: 0x0, symName: __ZNSt3__118__unwrap_iter_implIPiLb1EE8__unwrapB7v160006ES1_, symObjAddr: 0x189A4, symBinAddr: 0x10001BC84, symSize: 0x24 }
  - { offsetInCU: 0x416B9, offset: 0x416B9, size: 0x8, addend: 0x0, symName: __ZNSt3__14pairIPiS1_EC1B7v160006IS1_S1_LPv0EEEOT_OT0_, symObjAddr: 0x189C8, symBinAddr: 0x10001BCA8, symSize: 0x3C }
  - { offsetInCU: 0x41717, offset: 0x41717, size: 0x8, addend: 0x0, symName: __ZNSt3__14pairIPiS1_EC2B7v160006IS1_S1_LPv0EEEOT_OT0_, symObjAddr: 0x18A04, symBinAddr: 0x10001BCE4, symSize: 0x34 }
  - { offsetInCU: 0x41775, offset: 0x41775, size: 0x8, addend: 0x0, symName: __ZNSt3__118__unwrap_iter_implIPiLb1EE8__rewrapB7v160006ES1_S1_, symObjAddr: 0x18A38, symBinAddr: 0x10001BD18, symSize: 0x50 }
  - { offsetInCU: 0x417A6, offset: 0x417A6, size: 0x8, addend: 0x0, symName: __ZNSt3__129_AllocatorDestroyRangeReverseINS_9allocatorIiEEPiEC1B7v160006ERS2_RS3_S6_, symObjAddr: 0x18BC8, symBinAddr: 0x10001BEA8, symSize: 0x44 }
  - { offsetInCU: 0x417FD, offset: 0x417FD, size: 0x8, addend: 0x0, symName: __ZNSt3__116allocator_traitsINS_9allocatorIiEEE9constructB7v160006IiJRiEvEEvRS2_PT_DpOT0_, symObjAddr: 0x18C0C, symBinAddr: 0x10001BEEC, symSize: 0x34 }
  - { offsetInCU: 0x41854, offset: 0x41854, size: 0x8, addend: 0x0, symName: __ZNSt3__128__exception_guard_exceptionsINS_29_AllocatorDestroyRangeReverseINS_9allocatorIiEEPiEEE10__completeB7v160006Ev, symObjAddr: 0x18C40, symBinAddr: 0x10001BF20, symSize: 0x1C }
  - { offsetInCU: 0x4187A, offset: 0x4187A, size: 0x8, addend: 0x0, symName: __ZNSt3__128__exception_guard_exceptionsINS_29_AllocatorDestroyRangeReverseINS_9allocatorIiEEPiEEED1B7v160006Ev, symObjAddr: 0x18C5C, symBinAddr: 0x10001BF3C, symSize: 0x2C }
  - { offsetInCU: 0x418A4, offset: 0x418A4, size: 0x8, addend: 0x0, symName: __ZNSt3__128__exception_guard_exceptionsINS_29_AllocatorDestroyRangeReverseINS_9allocatorIiEEPiEEEC1B7v160006ES5_, symObjAddr: 0x18C88, symBinAddr: 0x10001BF68, symSize: 0x34 }
  - { offsetInCU: 0x418DD, offset: 0x418DD, size: 0x8, addend: 0x0, symName: __ZNSt3__128__exception_guard_exceptionsINS_29_AllocatorDestroyRangeReverseINS_9allocatorIiEEPiEEEC2B7v160006ES5_, symObjAddr: 0x18CBC, symBinAddr: 0x10001BF9C, symSize: 0x30 }
  - { offsetInCU: 0x41916, offset: 0x41916, size: 0x8, addend: 0x0, symName: __ZNSt3__129_AllocatorDestroyRangeReverseINS_9allocatorIiEEPiEC2B7v160006ERS2_RS3_S6_, symObjAddr: 0x18CEC, symBinAddr: 0x10001BFCC, symSize: 0x38 }
  - { offsetInCU: 0x4196D, offset: 0x4196D, size: 0x8, addend: 0x0, symName: __ZNSt3__19allocatorIiE9constructB7v160006IiJRiEEEvPT_DpOT0_, symObjAddr: 0x18D24, symBinAddr: 0x10001C004, symSize: 0x28 }
  - { offsetInCU: 0x419C3, offset: 0x419C3, size: 0x8, addend: 0x0, symName: __ZNSt3__128__exception_guard_exceptionsINS_29_AllocatorDestroyRangeReverseINS_9allocatorIiEEPiEEED2B7v160006Ev, symObjAddr: 0x18D4C, symBinAddr: 0x10001C02C, symSize: 0x50 }
  - { offsetInCU: 0x419ED, offset: 0x419ED, size: 0x8, addend: 0x0, symName: __ZNKSt3__129_AllocatorDestroyRangeReverseINS_9allocatorIiEEPiEclB7v160006Ev, symObjAddr: 0x18D9C, symBinAddr: 0x10001C07C, symSize: 0x68 }
  - { offsetInCU: 0x41A18, offset: 0x41A18, size: 0x8, addend: 0x0, symName: __ZNSt3__119__to_address_helperINS_16reverse_iteratorIPiEEvE6__callB7v160006ERKS3_, symObjAddr: 0x18E98, symBinAddr: 0x10001C178, symSize: 0x38 }
  - { offsetInCU: 0x41A3B, offset: 0x41A3B, size: 0x8, addend: 0x0, symName: __ZNKSt3__116reverse_iteratorIPiEptB7v160006Ev, symObjAddr: 0x18ED0, symBinAddr: 0x10001C1B0, symSize: 0x24 }
  - { offsetInCU: 0x41A61, offset: 0x41A61, size: 0x8, addend: 0x0, symName: __ZNSt3__16vectorIiNS_9allocatorIiEEE27__invalidate_iterators_pastB7v160006EPi, symObjAddr: 0x18EF4, symBinAddr: 0x10001C1D4, symSize: 0x14 }
  - { offsetInCU: 0x41A98, offset: 0x41A98, size: 0x8, addend: 0x0, symName: __ZNSt3__16__treeINS_12__value_typeIiNS_6vectorIiNS_9allocatorIiEEEEEENS_19__map_value_compareIiS6_NS_4lessIiEELb1EEENS3_IS6_EEE15__insert_uniqueB7v160006IRNS_4pairIiS5_EEvEENSE_INS_15__tree_iteratorIS6_PNS_11__tree_nodeIS6_PvEElEEbEEOT_, symObjAddr: 0x18F08, symBinAddr: 0x10001C1E8, symSize: 0x3C }
  - { offsetInCU: 0x41AD7, offset: 0x41AD7, size: 0x8, addend: 0x0, symName: __ZNSt3__14pairINS_14__map_iteratorINS_15__tree_iteratorINS_12__value_typeIiNS_6vectorIiNS_9allocatorIiEEEEEEPNS_11__tree_nodeIS8_PvEElEEEEbEC1B7v160006ISD_bLSA_0EEEONS0_IT_T0_EE, symObjAddr: 0x18F44, symBinAddr: 0x10001C224, symSize: 0x34 }
  - { offsetInCU: 0x41B28, offset: 0x41B28, size: 0x8, addend: 0x0, symName: __ZNSt3__16__treeINS_12__value_typeIiNS_6vectorIiNS_9allocatorIiEEEEEENS_19__map_value_compareIiS6_NS_4lessIiEELb1EEENS3_IS6_EEE16__emplace_uniqueB7v160006IRNS_4pairIiS5_EEEENSE_INS_15__tree_iteratorIS6_PNS_11__tree_nodeIS6_PvEElEEbEEOT_, symObjAddr: 0x18F78, symBinAddr: 0x10001C258, symSize: 0x3C }
  - { offsetInCU: 0x41B66, offset: 0x41B66, size: 0x8, addend: 0x0, symName: __ZNSt3__16__treeINS_12__value_typeIiNS_6vectorIiNS_9allocatorIiEEEEEENS_19__map_value_compareIiS6_NS_4lessIiEELb1EEENS3_IS6_EEE28__emplace_unique_extract_keyB7v160006IRNS_4pairIiS5_EEEENSE_INS_15__tree_iteratorIS6_PNS_11__tree_nodeIS6_PvEElEEbEEOT_NS_23__extract_key_first_tagE, symObjAddr: 0x18FB4, symBinAddr: 0x10001C294, symSize: 0x40 }
  - { offsetInCU: 0x41BAF, offset: 0x41BAF, size: 0x8, addend: 0x0, symName: __ZNSt3__16__treeINS_12__value_typeIiNS_6vectorIiNS_9allocatorIiEEEEEENS_19__map_value_compareIiS6_NS_4lessIiEELb1EEENS3_IS6_EEE25__emplace_unique_key_argsIiJRNS_4pairIiS5_EEEEENSE_INS_15__tree_iteratorIS6_PNS_11__tree_nodeIS6_PvEElEEbEERKT_DpOT0_, symObjAddr: 0x18FF4, symBinAddr: 0x10001C2D4, symSize: 0xF0 }
  - { offsetInCU: 0x41C5B, offset: 0x41C5B, size: 0x8, addend: 0x0, symName: __ZNSt3__16__treeINS_12__value_typeIiNS_6vectorIiNS_9allocatorIiEEEEEENS_19__map_value_compareIiS6_NS_4lessIiEELb1EEENS3_IS6_EEE12__find_equalIiEERPNS_16__tree_node_baseIPvEERPNS_15__tree_end_nodeISH_EERKT_, symObjAddr: 0x190E4, symBinAddr: 0x10001C3C4, symSize: 0x184 }
  - { offsetInCU: 0x41CC8, offset: 0x41CC8, size: 0x8, addend: 0x0, symName: __ZNSt3__16__treeINS_12__value_typeIiNS_6vectorIiNS_9allocatorIiEEEEEENS_19__map_value_compareIiS6_NS_4lessIiEELb1EEENS3_IS6_EEE16__construct_nodeIJRNS_4pairIiS5_EEEEENS_10unique_ptrINS_11__tree_nodeIS6_PvEENS_22__tree_node_destructorINS3_ISK_EEEEEEDpOT_, symObjAddr: 0x19268, symBinAddr: 0x10001C548, symSize: 0x110 }
  - { offsetInCU: 0x41D29, offset: 0x41D29, size: 0x8, addend: 0x0, symName: __ZNSt3__16__treeINS_12__value_typeIiNS_6vectorIiNS_9allocatorIiEEEEEENS_19__map_value_compareIiS6_NS_4lessIiEELb1EEENS3_IS6_EEE16__insert_node_atEPNS_15__tree_end_nodeIPNS_16__tree_node_baseIPvEEEERSH_SH_, symObjAddr: 0x19378, symBinAddr: 0x10001C658, symSize: 0xCC }
  - { offsetInCU: 0x41D7E, offset: 0x41D7E, size: 0x8, addend: 0x0, symName: __ZNKSt3__110unique_ptrINS_11__tree_nodeINS_12__value_typeIiNS_6vectorIiNS_9allocatorIiEEEEEEPvEENS_22__tree_node_destructorINS4_IS9_EEEEE3getB7v160006Ev, symObjAddr: 0x19444, symBinAddr: 0x10001C724, symSize: 0x28 }
  - { offsetInCU: 0x41DA4, offset: 0x41DA4, size: 0x8, addend: 0x0, symName: __ZNSt3__110unique_ptrINS_11__tree_nodeINS_12__value_typeIiNS_6vectorIiNS_9allocatorIiEEEEEEPvEENS_22__tree_node_destructorINS4_IS9_EEEEE7releaseB7v160006Ev, symObjAddr: 0x1946C, symBinAddr: 0x10001C74C, symSize: 0x44 }
  - { offsetInCU: 0x41DD9, offset: 0x41DD9, size: 0x8, addend: 0x0, symName: __ZNSt3__110unique_ptrINS_11__tree_nodeINS_12__value_typeIiNS_6vectorIiNS_9allocatorIiEEEEEEPvEENS_22__tree_node_destructorINS4_IS9_EEEEED1B7v160006Ev, symObjAddr: 0x194B0, symBinAddr: 0x10001C790, symSize: 0x2C }
  - { offsetInCU: 0x41E03, offset: 0x41E03, size: 0x8, addend: 0x0, symName: __ZNSt3__115__tree_iteratorINS_12__value_typeIiNS_6vectorIiNS_9allocatorIiEEEEEEPNS_11__tree_nodeIS6_PvEElEC1B7v160006ESA_, symObjAddr: 0x194DC, symBinAddr: 0x10001C7BC, symSize: 0x34 }
  - { offsetInCU: 0x41E42, offset: 0x41E42, size: 0x8, addend: 0x0, symName: __ZNSt3__14pairINS_15__tree_iteratorINS_12__value_typeIiNS_6vectorIiNS_9allocatorIiEEEEEEPNS_11__tree_nodeIS7_PvEElEEbEC1B7v160006ISC_RbLS9_0EEEOT_OT0_, symObjAddr: 0x19510, symBinAddr: 0x10001C7F0, symSize: 0x3C }
  - { offsetInCU: 0x41EA0, offset: 0x41EA0, size: 0x8, addend: 0x0, symName: __ZNKSt3__16__treeINS_12__value_typeIiNS_6vectorIiNS_9allocatorIiEEEEEENS_19__map_value_compareIiS6_NS_4lessIiEELb1EEENS3_IS6_EEE10__root_ptrEv, symObjAddr: 0x1954C, symBinAddr: 0x10001C82C, symSize: 0x24 }
  - { offsetInCU: 0x41EC6, offset: 0x41EC6, size: 0x8, addend: 0x0, symName: __ZNSt3__116allocator_traitsINS_9allocatorINS_11__tree_nodeINS_12__value_typeIiNS_6vectorIiNS1_IiEEEEEEPvEEEEE8allocateB7v160006ERSA_m, symObjAddr: 0x19570, symBinAddr: 0x10001C850, symSize: 0x2C }
  - { offsetInCU: 0x41EF9, offset: 0x41EF9, size: 0x8, addend: 0x0, symName: __ZNSt3__122__tree_node_destructorINS_9allocatorINS_11__tree_nodeINS_12__value_typeIiNS_6vectorIiNS1_IiEEEEEEPvEEEEEC1B7v160006ERSA_b, symObjAddr: 0x1959C, symBinAddr: 0x10001C87C, symSize: 0x48 }
  - { offsetInCU: 0x41F47, offset: 0x41F47, size: 0x8, addend: 0x0, symName: __ZNSt3__110unique_ptrINS_11__tree_nodeINS_12__value_typeIiNS_6vectorIiNS_9allocatorIiEEEEEEPvEENS_22__tree_node_destructorINS4_IS9_EEEEEC1B7v160006ILb1EvEEPS9_NS_16__dependent_typeINS_27__unique_ptr_deleter_sfinaeISC_EEXT_EE20__good_rval_ref_typeE, symObjAddr: 0x195E4, symBinAddr: 0x10001C8C4, symSize: 0x3C }
  - { offsetInCU: 0x41F98, offset: 0x41F98, size: 0x8, addend: 0x0, symName: __ZNSt3__116allocator_traitsINS_9allocatorINS_11__tree_nodeINS_12__value_typeIiNS_6vectorIiNS1_IiEEEEEEPvEEEEE9constructB7v160006INS_4pairIKiS6_EEJRNSD_IiS6_EEEvEEvRSA_PT_DpOT0_, symObjAddr: 0x19620, symBinAddr: 0x10001C900, symSize: 0x34 }
  - { offsetInCU: 0x41FEF, offset: 0x41FEF, size: 0x8, addend: 0x0, symName: __ZNKSt3__110unique_ptrINS_11__tree_nodeINS_12__value_typeIiNS_6vectorIiNS_9allocatorIiEEEEEEPvEENS_22__tree_node_destructorINS4_IS9_EEEEEptB7v160006Ev, symObjAddr: 0x19654, symBinAddr: 0x10001C934, symSize: 0x28 }
  - { offsetInCU: 0x42015, offset: 0x42015, size: 0x8, addend: 0x0, symName: __ZNSt3__110unique_ptrINS_11__tree_nodeINS_12__value_typeIiNS_6vectorIiNS_9allocatorIiEEEEEEPvEENS_22__tree_node_destructorINS4_IS9_EEEEE11get_deleterB7v160006Ev, symObjAddr: 0x1967C, symBinAddr: 0x10001C95C, symSize: 0x24 }
  - { offsetInCU: 0x4203B, offset: 0x4203B, size: 0x8, addend: 0x0, symName: __ZNSt3__19allocatorINS_11__tree_nodeINS_12__value_typeIiNS_6vectorIiNS0_IiEEEEEEPvEEE8allocateB7v160006Em, symObjAddr: 0x196A0, symBinAddr: 0x10001C980, symSize: 0x58 }
  - { offsetInCU: 0x42079, offset: 0x42079, size: 0x8, addend: 0x0, symName: __ZNSt3__116allocator_traitsINS_9allocatorINS_11__tree_nodeINS_12__value_typeIiNS_6vectorIiNS1_IiEEEEEEPvEEEEE8max_sizeB7v160006ISA_vEEmRKSA_, symObjAddr: 0x196F8, symBinAddr: 0x10001C9D8, symSize: 0x24 }
  - { offsetInCU: 0x420A7, offset: 0x420A7, size: 0x8, addend: 0x0, symName: __ZNKSt3__19allocatorINS_11__tree_nodeINS_12__value_typeIiNS_6vectorIiNS0_IiEEEEEEPvEEE8max_sizeB7v160006Ev, symObjAddr: 0x1971C, symBinAddr: 0x10001C9FC, symSize: 0x14 }
  - { offsetInCU: 0x420CD, offset: 0x420CD, size: 0x8, addend: 0x0, symName: __ZNSt3__122__tree_node_destructorINS_9allocatorINS_11__tree_nodeINS_12__value_typeIiNS_6vectorIiNS1_IiEEEEEEPvEEEEEC2B7v160006ERSA_b, symObjAddr: 0x19730, symBinAddr: 0x10001CA10, symSize: 0x38 }
  - { offsetInCU: 0x42115, offset: 0x42115, size: 0x8, addend: 0x0, symName: __ZNSt3__110unique_ptrINS_11__tree_nodeINS_12__value_typeIiNS_6vectorIiNS_9allocatorIiEEEEEEPvEENS_22__tree_node_destructorINS4_IS9_EEEEEC2B7v160006ILb1EvEEPS9_NS_16__dependent_typeINS_27__unique_ptr_deleter_sfinaeISC_EEXT_EE20__good_rval_ref_typeE, symObjAddr: 0x19768, symBinAddr: 0x10001CA48, symSize: 0x48 }
  - { offsetInCU: 0x42166, offset: 0x42166, size: 0x8, addend: 0x0, symName: __ZNSt3__117__compressed_pairIPNS_11__tree_nodeINS_12__value_typeIiNS_6vectorIiNS_9allocatorIiEEEEEEPvEENS_22__tree_node_destructorINS4_IS9_EEEEEC1B7v160006IRSA_SD_EEOT_OT0_, symObjAddr: 0x197B0, symBinAddr: 0x10001CA90, symSize: 0x3C }
  - { offsetInCU: 0x421BE, offset: 0x421BE, size: 0x8, addend: 0x0, symName: __ZNSt3__117__compressed_pairIPNS_11__tree_nodeINS_12__value_typeIiNS_6vectorIiNS_9allocatorIiEEEEEEPvEENS_22__tree_node_destructorINS4_IS9_EEEEEC2B7v160006IRSA_SD_EEOT_OT0_, symObjAddr: 0x197EC, symBinAddr: 0x10001CACC, symSize: 0x48 }
  - { offsetInCU: 0x42216, offset: 0x42216, size: 0x8, addend: 0x0, symName: __ZNSt3__122__compressed_pair_elemIPNS_11__tree_nodeINS_12__value_typeIiNS_6vectorIiNS_9allocatorIiEEEEEEPvEELi0ELb0EEC2B7v160006IRSA_vEEOT_, symObjAddr: 0x19834, symBinAddr: 0x10001CB14, symSize: 0x24 }
  - { offsetInCU: 0x42258, offset: 0x42258, size: 0x8, addend: 0x0, symName: __ZNSt3__122__compressed_pair_elemINS_22__tree_node_destructorINS_9allocatorINS_11__tree_nodeINS_12__value_typeIiNS_6vectorIiNS2_IiEEEEEEPvEEEEEELi1ELb0EEC2B7v160006ISC_vEEOT_, symObjAddr: 0x19858, symBinAddr: 0x10001CB38, symSize: 0x24 }
  - { offsetInCU: 0x4229A, offset: 0x4229A, size: 0x8, addend: 0x0, symName: __ZNSt3__19allocatorINS_11__tree_nodeINS_12__value_typeIiNS_6vectorIiNS0_IiEEEEEEPvEEE9constructB7v160006INS_4pairIKiS5_EEJRNSB_IiS5_EEEEEvPT_DpOT0_, symObjAddr: 0x1987C, symBinAddr: 0x10001CB5C, symSize: 0x30 }
  - { offsetInCU: 0x422F0, offset: 0x422F0, size: 0x8, addend: 0x0, symName: __ZNSt3__14pairIKiNS_6vectorIiNS_9allocatorIiEEEEEC1B7v160006IRNS0_IiS5_EELPv0EEEOT_, symObjAddr: 0x198AC, symBinAddr: 0x10001CB8C, symSize: 0x34 }
  - { offsetInCU: 0x42338, offset: 0x42338, size: 0x8, addend: 0x0, symName: __ZNSt3__14pairIKiNS_6vectorIiNS_9allocatorIiEEEEEC2B7v160006IRNS0_IiS5_EELPv0EEEOT_, symObjAddr: 0x198E0, symBinAddr: 0x10001CBC0, symSize: 0x58 }
  - { offsetInCU: 0x42380, offset: 0x42380, size: 0x8, addend: 0x0, symName: __ZNSt3__110__get_pairILm0EE3getB7v160006IiNS_6vectorIiNS_9allocatorIiEEEEEERT_RNS_4pairIS7_T0_EE, symObjAddr: 0x19980, symBinAddr: 0x10001CC60, symSize: 0x14 }
  - { offsetInCU: 0x423B6, offset: 0x423B6, size: 0x8, addend: 0x0, symName: __ZNSt3__110__get_pairILm1EE3getB7v160006IiNS_6vectorIiNS_9allocatorIiEEEEEERT0_RNS_4pairIT_S7_EE, symObjAddr: 0x19994, symBinAddr: 0x10001CC74, symSize: 0x18 }
  - { offsetInCU: 0x423EC, offset: 0x423EC, size: 0x8, addend: 0x0, symName: __ZNKSt3__117__compressed_pairIPNS_11__tree_nodeINS_12__value_typeIiNS_6vectorIiNS_9allocatorIiEEEEEEPvEENS_22__tree_node_destructorINS4_IS9_EEEEE5firstB7v160006Ev, symObjAddr: 0x199AC, symBinAddr: 0x10001CC8C, symSize: 0x24 }
  - { offsetInCU: 0x42412, offset: 0x42412, size: 0x8, addend: 0x0, symName: __ZNKSt3__122__compressed_pair_elemIPNS_11__tree_nodeINS_12__value_typeIiNS_6vectorIiNS_9allocatorIiEEEEEEPvEELi0ELb0EE5__getB7v160006Ev, symObjAddr: 0x199D0, symBinAddr: 0x10001CCB0, symSize: 0x14 }
  - { offsetInCU: 0x42438, offset: 0x42438, size: 0x8, addend: 0x0, symName: __ZNSt3__117__compressed_pairIPNS_11__tree_nodeINS_12__value_typeIiNS_6vectorIiNS_9allocatorIiEEEEEEPvEENS_22__tree_node_destructorINS4_IS9_EEEEE6secondB7v160006Ev, symObjAddr: 0x199E4, symBinAddr: 0x10001CCC4, symSize: 0x28 }
  - { offsetInCU: 0x4245E, offset: 0x4245E, size: 0x8, addend: 0x0, symName: __ZNSt3__122__compressed_pair_elemINS_22__tree_node_destructorINS_9allocatorINS_11__tree_nodeINS_12__value_typeIiNS_6vectorIiNS2_IiEEEEEEPvEEEEEELi1ELb0EE5__getB7v160006Ev, symObjAddr: 0x19A0C, symBinAddr: 0x10001CCEC, symSize: 0x14 }
  - { offsetInCU: 0x42484, offset: 0x42484, size: 0x8, addend: 0x0, symName: __ZNSt3__16__treeINS_12__value_typeIiNS_6vectorIiNS_9allocatorIiEEEEEENS_19__map_value_compareIiS6_NS_4lessIiEELb1EEENS3_IS6_EEE4sizeB7v160006Ev, symObjAddr: 0x19A20, symBinAddr: 0x10001CD00, symSize: 0x28 }
  - { offsetInCU: 0x424AA, offset: 0x424AA, size: 0x8, addend: 0x0, symName: __ZNSt3__117__compressed_pairImNS_19__map_value_compareIiNS_12__value_typeIiNS_6vectorIiNS_9allocatorIiEEEEEENS_4lessIiEELb1EEEE5firstB7v160006Ev, symObjAddr: 0x19A48, symBinAddr: 0x10001CD28, symSize: 0x24 }
  - { offsetInCU: 0x424D0, offset: 0x424D0, size: 0x8, addend: 0x0, symName: __ZNSt3__117__compressed_pairIPNS_11__tree_nodeINS_12__value_typeIiNS_6vectorIiNS_9allocatorIiEEEEEEPvEENS_22__tree_node_destructorINS4_IS9_EEEEE5firstB7v160006Ev, symObjAddr: 0x19A6C, symBinAddr: 0x10001CD4C, symSize: 0x24 }
  - { offsetInCU: 0x424F6, offset: 0x424F6, size: 0x8, addend: 0x0, symName: __ZNSt3__122__compressed_pair_elemIPNS_11__tree_nodeINS_12__value_typeIiNS_6vectorIiNS_9allocatorIiEEEEEEPvEELi0ELb0EE5__getB7v160006Ev, symObjAddr: 0x19A90, symBinAddr: 0x10001CD70, symSize: 0x14 }
  - { offsetInCU: 0x4251C, offset: 0x4251C, size: 0x8, addend: 0x0, symName: __ZNSt3__110unique_ptrINS_11__tree_nodeINS_12__value_typeIiNS_6vectorIiNS_9allocatorIiEEEEEEPvEENS_22__tree_node_destructorINS4_IS9_EEEEED2B7v160006Ev, symObjAddr: 0x19AA4, symBinAddr: 0x10001CD84, symSize: 0x30 }
  - { offsetInCU: 0x42546, offset: 0x42546, size: 0x8, addend: 0x0, symName: __ZNSt3__110unique_ptrINS_11__tree_nodeINS_12__value_typeIiNS_6vectorIiNS_9allocatorIiEEEEEEPvEENS_22__tree_node_destructorINS4_IS9_EEEEE5resetB7v160006EPS9_, symObjAddr: 0x19AD4, symBinAddr: 0x10001CDB4, symSize: 0x78 }
  - { offsetInCU: 0x4258A, offset: 0x4258A, size: 0x8, addend: 0x0, symName: __ZNSt3__122__tree_node_destructorINS_9allocatorINS_11__tree_nodeINS_12__value_typeIiNS_6vectorIiNS1_IiEEEEEEPvEEEEEclB7v160006EPS9_, symObjAddr: 0x19B4C, symBinAddr: 0x10001CE2C, symSize: 0x94 }
  - { offsetInCU: 0x425BF, offset: 0x425BF, size: 0x8, addend: 0x0, symName: __ZNSt3__115__tree_iteratorINS_12__value_typeIiNS_6vectorIiNS_9allocatorIiEEEEEEPNS_11__tree_nodeIS6_PvEElEC2B7v160006ESA_, symObjAddr: 0x19BE0, symBinAddr: 0x10001CEC0, symSize: 0x20 }
  - { offsetInCU: 0x425F8, offset: 0x425F8, size: 0x8, addend: 0x0, symName: __ZNSt3__14pairINS_15__tree_iteratorINS_12__value_typeIiNS_6vectorIiNS_9allocatorIiEEEEEEPNS_11__tree_nodeIS7_PvEElEEbEC2B7v160006ISC_RbLS9_0EEEOT_OT0_, symObjAddr: 0x19C00, symBinAddr: 0x10001CEE0, symSize: 0x38 }
  - { offsetInCU: 0x42656, offset: 0x42656, size: 0x8, addend: 0x0, symName: __ZNSt3__14pairINS_14__map_iteratorINS_15__tree_iteratorINS_12__value_typeIiNS_6vectorIiNS_9allocatorIiEEEEEEPNS_11__tree_nodeIS8_PvEElEEEEbEC2B7v160006ISD_bLSA_0EEEONS0_IT_T0_EE, symObjAddr: 0x19C38, symBinAddr: 0x10001CF18, symSize: 0x50 }
  - { offsetInCU: 0x426A7, offset: 0x426A7, size: 0x8, addend: 0x0, symName: __ZNSt3__16__treeINS_12__value_typeIiNS_6vectorIiNS_9allocatorIiEEEEEENS_19__map_value_compareIiS6_NS_4lessIiEELb1EEENS3_IS6_EEE25__emplace_unique_key_argsIiJRKNS_21piecewise_construct_tENS_5tupleIJRKiEEENSH_IJEEEEEENS_4pairINS_15__tree_iteratorIS6_PNS_11__tree_nodeIS6_PvEElEEbEERKT_DpOT0_, symObjAddr: 0x19C88, symBinAddr: 0x10001CF68, symSize: 0x100 }
  - { offsetInCU: 0x4277D, offset: 0x4277D, size: 0x8, addend: 0x0, symName: __ZNKSt3__115__tree_iteratorINS_12__value_typeIiNS_6vectorIiNS_9allocatorIiEEEEEEPNS_11__tree_nodeIS6_PvEElEptB7v160006Ev, symObjAddr: 0x19DB4, symBinAddr: 0x10001D094, symSize: 0x2C }
  - { offsetInCU: 0x427A3, offset: 0x427A3, size: 0x8, addend: 0x0, symName: __ZNSt3__16__treeINS_12__value_typeIiNS_6vectorIiNS_9allocatorIiEEEEEENS_19__map_value_compareIiS6_NS_4lessIiEELb1EEENS3_IS6_EEE16__construct_nodeIJRKNS_21piecewise_construct_tENS_5tupleIJRKiEEENSH_IJEEEEEENS_10unique_ptrINS_11__tree_nodeIS6_PvEENS_22__tree_node_destructorINS3_ISP_EEEEEEDpOT_, symObjAddr: 0x19DE0, symBinAddr: 0x10001D0C0, symSize: 0x120 }
  - { offsetInCU: 0x4282C, offset: 0x4282C, size: 0x8, addend: 0x0, symName: __ZNSt3__116allocator_traitsINS_9allocatorINS_11__tree_nodeINS_12__value_typeIiNS_6vectorIiNS1_IiEEEEEEPvEEEEE9constructB7v160006INS_4pairIKiS6_EEJRKNS_21piecewise_construct_tENS_5tupleIJRSE_EEENSJ_IJEEEEvEEvRSA_PT_DpOT0_, symObjAddr: 0x19F00, symBinAddr: 0x10001D1E0, symSize: 0x44 }
  - { offsetInCU: 0x428AB, offset: 0x428AB, size: 0x8, addend: 0x0, symName: __ZNSt3__19allocatorINS_11__tree_nodeINS_12__value_typeIiNS_6vectorIiNS0_IiEEEEEEPvEEE9constructB7v160006INS_4pairIKiS5_EEJRKNS_21piecewise_construct_tENS_5tupleIJRSC_EEENSH_IJEEEEEEvPT_DpOT0_, symObjAddr: 0x19F44, symBinAddr: 0x10001D224, symSize: 0x44 }
  - { offsetInCU: 0x42927, offset: 0x42927, size: 0x8, addend: 0x0, symName: __ZNSt3__14pairIKiNS_6vectorIiNS_9allocatorIiEEEEEC1B7v160006IJRS1_EJEEENS_21piecewise_construct_tENS_5tupleIJDpT_EEENSA_IJDpT0_EEE, symObjAddr: 0x19F88, symBinAddr: 0x10001D268, symSize: 0x44 }
  - { offsetInCU: 0x4298E, offset: 0x4298E, size: 0x8, addend: 0x0, symName: __ZNSt3__14pairIKiNS_6vectorIiNS_9allocatorIiEEEEEC1B7v160006IJRS1_EJEJLm0EEJEEENS_21piecewise_construct_tERNS_5tupleIJDpT_EEERNSA_IJDpT0_EEENS_15__tuple_indicesIJXspT1_EEEENSJ_IJXspT2_EEEE, symObjAddr: 0x19FCC, symBinAddr: 0x10001D2AC, symSize: 0x3C }
  - { offsetInCU: 0x42A1B, offset: 0x42A1B, size: 0x8, addend: 0x0, symName: __ZNSt3__14pairIKiNS_6vectorIiNS_9allocatorIiEEEEEC2B7v160006IJRS1_EJEJLm0EEJEEENS_21piecewise_construct_tERNS_5tupleIJDpT_EEERNSA_IJDpT0_EEENS_15__tuple_indicesIJXspT1_EEEENSJ_IJXspT2_EEEE, symObjAddr: 0x1A008, symBinAddr: 0x10001D2E8, symSize: 0x4C }
  - { offsetInCU: 0x42AA8, offset: 0x42AA8, size: 0x8, addend: 0x0, symName: __ZNSt3__112__tuple_leafILm0ERKiLb0EE3getB7v160006Ev, symObjAddr: 0x1A078, symBinAddr: 0x10001D358, symSize: 0x18 }
  - { offsetInCU: 0x42ACE, offset: 0x42ACE, size: 0x8, addend: 0x0, symName: __ZNSt3__15tupleIJRKiEEC1B7v160006INS_4_AndELi0EEES2_, symObjAddr: 0x1A090, symBinAddr: 0x10001D370, symSize: 0x34 }
  - { offsetInCU: 0x42B16, offset: 0x42B16, size: 0x8, addend: 0x0, symName: __ZNSt3__15tupleIJRKiEEC2B7v160006INS_4_AndELi0EEES2_, symObjAddr: 0x1A0C4, symBinAddr: 0x10001D3A4, symSize: 0x34 }
  - { offsetInCU: 0x42B5E, offset: 0x42B5E, size: 0x8, addend: 0x0, symName: __ZNSt3__112__tuple_implINS_15__tuple_indicesIJLm0EEEEJRKiEEC1B7v160006IJLm0EEJS4_EJEJEJS4_EEENS1_IJXspT_EEEENS_13__tuple_typesIJDpT0_EEENS1_IJXspT1_EEEENS8_IJDpT2_EEEDpOT3_, symObjAddr: 0x1A0F8, symBinAddr: 0x10001D3D8, symSize: 0x34 }
  - { offsetInCU: 0x42BEF, offset: 0x42BEF, size: 0x8, addend: 0x0, symName: __ZNSt3__112__tuple_implINS_15__tuple_indicesIJLm0EEEEJRKiEEC2B7v160006IJLm0EEJS4_EJEJEJS4_EEENS1_IJXspT_EEEENS_13__tuple_typesIJDpT0_EEENS1_IJXspT1_EEEENS8_IJDpT2_EEEDpOT3_, symObjAddr: 0x1A12C, symBinAddr: 0x10001D40C, symSize: 0x34 }
  - { offsetInCU: 0x42C80, offset: 0x42C80, size: 0x8, addend: 0x0, symName: __ZNSt3__112__tuple_leafILm0ERKiLb0EEC2B7v160006IS2_vEEOT_, symObjAddr: 0x1A160, symBinAddr: 0x10001D440, symSize: 0x20 }
  - { offsetInCU: 0x42CC3, offset: 0x42CC3, size: 0x8, addend: 0x0, symName: __ZNSt3__114pointer_traitsIPNS_12__value_typeIiNS_6vectorIiNS_9allocatorIiEEEEEEE10pointer_toB7v160006ERS6_, symObjAddr: 0x1A180, symBinAddr: 0x10001D460, symSize: 0x14 }
  - { offsetInCU: 0x42CE6, offset: 0x42CE6, size: 0x8, addend: 0x0, symName: __ZNSt3__16__treeINS_12__value_typeINS_12basic_stringIcNS_11char_traitsIcEENS_9allocatorIcEEEEiEENS_19__map_value_compareIS7_S8_NS_4lessIS7_EELb1EEENS5_IS8_EEE5beginB7v160006Ev, symObjAddr: 0x1A194, symBinAddr: 0x10001D474, symSize: 0x34 }
  - { offsetInCU: 0x42D0C, offset: 0x42D0C, size: 0x8, addend: 0x0, symName: __ZNSt3__114__map_iteratorINS_15__tree_iteratorINS_12__value_typeINS_12basic_stringIcNS_11char_traitsIcEENS_9allocatorIcEEEEiEEPNS_11__tree_nodeIS9_PvEElEEEC1B7v160006ESE_, symObjAddr: 0x1A1C8, symBinAddr: 0x10001D4A8, symSize: 0x34 }
  - { offsetInCU: 0x42D45, offset: 0x42D45, size: 0x8, addend: 0x0, symName: __ZNSt3__115__tree_iteratorINS_12__value_typeINS_12basic_stringIcNS_11char_traitsIcEENS_9allocatorIcEEEEiEEPNS_11__tree_nodeIS8_PvEElEC1B7v160006EPNS_15__tree_end_nodeIPNS_16__tree_node_baseISA_EEEE, symObjAddr: 0x1A1FC, symBinAddr: 0x10001D4DC, symSize: 0x34 }
  - { offsetInCU: 0x42D7E, offset: 0x42D7E, size: 0x8, addend: 0x0, symName: __ZNSt3__115__tree_iteratorINS_12__value_typeINS_12basic_stringIcNS_11char_traitsIcEENS_9allocatorIcEEEEiEEPNS_11__tree_nodeIS8_PvEElEC2B7v160006EPNS_15__tree_end_nodeIPNS_16__tree_node_baseISA_EEEE, symObjAddr: 0x1A230, symBinAddr: 0x10001D510, symSize: 0x20 }
  - { offsetInCU: 0x42DB7, offset: 0x42DB7, size: 0x8, addend: 0x0, symName: __ZNSt3__114__map_iteratorINS_15__tree_iteratorINS_12__value_typeINS_12basic_stringIcNS_11char_traitsIcEENS_9allocatorIcEEEEiEEPNS_11__tree_nodeIS9_PvEElEEEC2B7v160006ESE_, symObjAddr: 0x1A250, symBinAddr: 0x10001D530, symSize: 0x20 }
  - { offsetInCU: 0x42DF0, offset: 0x42DF0, size: 0x8, addend: 0x0, symName: __ZNSt3__16__treeINS_12__value_typeINS_12basic_stringIcNS_11char_traitsIcEENS_9allocatorIcEEEEiEENS_19__map_value_compareIS7_S8_NS_4lessIS7_EELb1EEENS5_IS8_EEE3endB7v160006Ev, symObjAddr: 0x1A270, symBinAddr: 0x10001D550, symSize: 0x34 }
  - { offsetInCU: 0x42E16, offset: 0x42E16, size: 0x8, addend: 0x0, symName: __ZNSt3__114pointer_traitsIPNS_4pairIKNS_12basic_stringIcNS_11char_traitsIcEENS_9allocatorIcEEEEiEEE10pointer_toB7v160006ERS9_, symObjAddr: 0x1A308, symBinAddr: 0x10001D5E8, symSize: 0x14 }
  - { offsetInCU: 0x42E39, offset: 0x42E39, size: 0x8, addend: 0x0, symName: __ZNSt3__16__treeINS_12__value_typeIiNS_12basic_stringIcNS_11char_traitsIcEENS_9allocatorIcEEEEEENS_19__map_value_compareIiS8_NS_4lessIiEELb1EEENS5_IS8_EEE25__emplace_unique_key_argsIiJRKNS_21piecewise_construct_tENS_5tupleIJRKiEEENSJ_IJEEEEEENS_4pairINS_15__tree_iteratorIS8_PNS_11__tree_nodeIS8_PvEElEEbEERKT_DpOT0_, symObjAddr: 0x1A31C, symBinAddr: 0x10001D5FC, symSize: 0x100 }
  - { offsetInCU: 0x42F0F, offset: 0x42F0F, size: 0x8, addend: 0x0, symName: __ZNKSt3__115__tree_iteratorINS_12__value_typeIiNS_12basic_stringIcNS_11char_traitsIcEENS_9allocatorIcEEEEEEPNS_11__tree_nodeIS8_PvEElEptB7v160006Ev, symObjAddr: 0x1A41C, symBinAddr: 0x10001D6FC, symSize: 0x2C }
  - { offsetInCU: 0x42F35, offset: 0x42F35, size: 0x8, addend: 0x0, symName: __ZNSt3__16__treeINS_12__value_typeIiNS_12basic_stringIcNS_11char_traitsIcEENS_9allocatorIcEEEEEENS_19__map_value_compareIiS8_NS_4lessIiEELb1EEENS5_IS8_EEE12__find_equalIiEERPNS_16__tree_node_baseIPvEERPNS_15__tree_end_nodeISJ_EERKT_, symObjAddr: 0x1A448, symBinAddr: 0x10001D728, symSize: 0x184 }
  - { offsetInCU: 0x42FA2, offset: 0x42FA2, size: 0x8, addend: 0x0, symName: __ZNSt3__16__treeINS_12__value_typeIiNS_12basic_stringIcNS_11char_traitsIcEENS_9allocatorIcEEEEEENS_19__map_value_compareIiS8_NS_4lessIiEELb1EEENS5_IS8_EEE16__construct_nodeIJRKNS_21piecewise_construct_tENS_5tupleIJRKiEEENSJ_IJEEEEEENS_10unique_ptrINS_11__tree_nodeIS8_PvEENS_22__tree_node_destructorINS5_ISR_EEEEEEDpOT_, symObjAddr: 0x1A5CC, symBinAddr: 0x10001D8AC, symSize: 0x120 }
  - { offsetInCU: 0x4302B, offset: 0x4302B, size: 0x8, addend: 0x0, symName: __ZNSt3__16__treeINS_12__value_typeIiNS_12basic_stringIcNS_11char_traitsIcEENS_9allocatorIcEEEEEENS_19__map_value_compareIiS8_NS_4lessIiEELb1EEENS5_IS8_EEE16__insert_node_atEPNS_15__tree_end_nodeIPNS_16__tree_node_baseIPvEEEERSJ_SJ_, symObjAddr: 0x1A6EC, symBinAddr: 0x10001D9CC, symSize: 0xCC }
  - { offsetInCU: 0x43080, offset: 0x43080, size: 0x8, addend: 0x0, symName: __ZNKSt3__110unique_ptrINS_11__tree_nodeINS_12__value_typeIiNS_12basic_stringIcNS_11char_traitsIcEENS_9allocatorIcEEEEEEPvEENS_22__tree_node_destructorINS6_ISB_EEEEE3getB7v160006Ev, symObjAddr: 0x1A7B8, symBinAddr: 0x10001DA98, symSize: 0x28 }
  - { offsetInCU: 0x430A6, offset: 0x430A6, size: 0x8, addend: 0x0, symName: __ZNSt3__110unique_ptrINS_11__tree_nodeINS_12__value_typeIiNS_12basic_stringIcNS_11char_traitsIcEENS_9allocatorIcEEEEEEPvEENS_22__tree_node_destructorINS6_ISB_EEEEE7releaseB7v160006Ev, symObjAddr: 0x1A7E0, symBinAddr: 0x10001DAC0, symSize: 0x44 }
  - { offsetInCU: 0x430DB, offset: 0x430DB, size: 0x8, addend: 0x0, symName: __ZNSt3__110unique_ptrINS_11__tree_nodeINS_12__value_typeIiNS_12basic_stringIcNS_11char_traitsIcEENS_9allocatorIcEEEEEEPvEENS_22__tree_node_destructorINS6_ISB_EEEEED1B7v160006Ev, symObjAddr: 0x1A824, symBinAddr: 0x10001DB04, symSize: 0x2C }
  - { offsetInCU: 0x43105, offset: 0x43105, size: 0x8, addend: 0x0, symName: __ZNSt3__115__tree_iteratorINS_12__value_typeIiNS_12basic_stringIcNS_11char_traitsIcEENS_9allocatorIcEEEEEEPNS_11__tree_nodeIS8_PvEElEC1B7v160006ESC_, symObjAddr: 0x1A850, symBinAddr: 0x10001DB30, symSize: 0x34 }
  - { offsetInCU: 0x43144, offset: 0x43144, size: 0x8, addend: 0x0, symName: __ZNSt3__14pairINS_15__tree_iteratorINS_12__value_typeIiNS_12basic_stringIcNS_11char_traitsIcEENS_9allocatorIcEEEEEEPNS_11__tree_nodeIS9_PvEElEEbEC1B7v160006ISE_RbLSB_0EEEOT_OT0_, symObjAddr: 0x1A884, symBinAddr: 0x10001DB64, symSize: 0x3C }
  - { offsetInCU: 0x431A2, offset: 0x431A2, size: 0x8, addend: 0x0, symName: __ZNKSt3__16__treeINS_12__value_typeIiNS_12basic_stringIcNS_11char_traitsIcEENS_9allocatorIcEEEEEENS_19__map_value_compareIiS8_NS_4lessIiEELb1EEENS5_IS8_EEE10__root_ptrEv, symObjAddr: 0x1A8C0, symBinAddr: 0x10001DBA0, symSize: 0x24 }
  - { offsetInCU: 0x431C8, offset: 0x431C8, size: 0x8, addend: 0x0, symName: __ZNSt3__16__treeINS_12__value_typeIiNS_12basic_stringIcNS_11char_traitsIcEENS_9allocatorIcEEEEEENS_19__map_value_compareIiS8_NS_4lessIiEELb1EEENS5_IS8_EEE10value_compB7v160006Ev, symObjAddr: 0x1A8E4, symBinAddr: 0x10001DBC4, symSize: 0x28 }
  - { offsetInCU: 0x431EE, offset: 0x431EE, size: 0x8, addend: 0x0, symName: __ZNKSt3__119__map_value_compareIiNS_12__value_typeIiNS_12basic_stringIcNS_11char_traitsIcEENS_9allocatorIcEEEEEENS_4lessIiEELb1EEclB7v160006ERKiRKS8_, symObjAddr: 0x1A90C, symBinAddr: 0x10001DBEC, symSize: 0x50 }
  - { offsetInCU: 0x43232, offset: 0x43232, size: 0x8, addend: 0x0, symName: __ZNKSt3__119__map_value_compareIiNS_12__value_typeIiNS_12basic_stringIcNS_11char_traitsIcEENS_9allocatorIcEEEEEENS_4lessIiEELb1EEclB7v160006ERKS8_RKi, symObjAddr: 0x1A95C, symBinAddr: 0x10001DC3C, symSize: 0x48 }
  - { offsetInCU: 0x43276, offset: 0x43276, size: 0x8, addend: 0x0, symName: __ZNSt3__117__compressed_pairImNS_19__map_value_compareIiNS_12__value_typeIiNS_12basic_stringIcNS_11char_traitsIcEENS_9allocatorIcEEEEEENS_4lessIiEELb1EEEE6secondB7v160006Ev, symObjAddr: 0x1A9A4, symBinAddr: 0x10001DC84, symSize: 0x24 }
  - { offsetInCU: 0x4329C, offset: 0x4329C, size: 0x8, addend: 0x0, symName: __ZNSt3__122__compressed_pair_elemINS_19__map_value_compareIiNS_12__value_typeIiNS_12basic_stringIcNS_11char_traitsIcEENS_9allocatorIcEEEEEENS_4lessIiEELb1EEELi1ELb1EE5__getB7v160006Ev, symObjAddr: 0x1A9C8, symBinAddr: 0x10001DCA8, symSize: 0x14 }
  - { offsetInCU: 0x432C2, offset: 0x432C2, size: 0x8, addend: 0x0, symName: __ZNKSt3__112__value_typeIiNS_12basic_stringIcNS_11char_traitsIcEENS_9allocatorIcEEEEE11__get_valueB7v160006Ev, symObjAddr: 0x1A9DC, symBinAddr: 0x10001DCBC, symSize: 0x14 }
  - { offsetInCU: 0x432E8, offset: 0x432E8, size: 0x8, addend: 0x0, symName: __ZNSt3__116allocator_traitsINS_9allocatorINS_11__tree_nodeINS_12__value_typeIiNS_12basic_stringIcNS_11char_traitsIcEENS1_IcEEEEEEPvEEEEE8allocateB7v160006ERSC_m, symObjAddr: 0x1A9F0, symBinAddr: 0x10001DCD0, symSize: 0x2C }
  - { offsetInCU: 0x4331B, offset: 0x4331B, size: 0x8, addend: 0x0, symName: __ZNSt3__122__tree_node_destructorINS_9allocatorINS_11__tree_nodeINS_12__value_typeIiNS_12basic_stringIcNS_11char_traitsIcEENS1_IcEEEEEEPvEEEEEC1B7v160006ERSC_b, symObjAddr: 0x1AA1C, symBinAddr: 0x10001DCFC, symSize: 0x48 }
  - { offsetInCU: 0x43369, offset: 0x43369, size: 0x8, addend: 0x0, symName: __ZNSt3__110unique_ptrINS_11__tree_nodeINS_12__value_typeIiNS_12basic_stringIcNS_11char_traitsIcEENS_9allocatorIcEEEEEEPvEENS_22__tree_node_destructorINS6_ISB_EEEEEC1B7v160006ILb1EvEEPSB_NS_16__dependent_typeINS_27__unique_ptr_deleter_sfinaeISE_EEXT_EE20__good_rval_ref_typeE, symObjAddr: 0x1AA64, symBinAddr: 0x10001DD44, symSize: 0x3C }
  - { offsetInCU: 0x433BA, offset: 0x433BA, size: 0x8, addend: 0x0, symName: __ZNSt3__116allocator_traitsINS_9allocatorINS_11__tree_nodeINS_12__value_typeIiNS_12basic_stringIcNS_11char_traitsIcEENS1_IcEEEEEEPvEEEEE9constructB7v160006INS_4pairIKiS8_EEJRKNS_21piecewise_construct_tENS_5tupleIJRSG_EEENSL_IJEEEEvEEvRSC_PT_DpOT0_, symObjAddr: 0x1AAA0, symBinAddr: 0x10001DD80, symSize: 0x44 }
  - { offsetInCU: 0x43439, offset: 0x43439, size: 0x8, addend: 0x0, symName: __ZNKSt3__110unique_ptrINS_11__tree_nodeINS_12__value_typeIiNS_12basic_stringIcNS_11char_traitsIcEENS_9allocatorIcEEEEEEPvEENS_22__tree_node_destructorINS6_ISB_EEEEEptB7v160006Ev, symObjAddr: 0x1AAE4, symBinAddr: 0x10001DDC4, symSize: 0x28 }
  - { offsetInCU: 0x4345F, offset: 0x4345F, size: 0x8, addend: 0x0, symName: __ZNSt3__110unique_ptrINS_11__tree_nodeINS_12__value_typeIiNS_12basic_stringIcNS_11char_traitsIcEENS_9allocatorIcEEEEEEPvEENS_22__tree_node_destructorINS6_ISB_EEEEE11get_deleterB7v160006Ev, symObjAddr: 0x1AB0C, symBinAddr: 0x10001DDEC, symSize: 0x24 }
  - { offsetInCU: 0x43485, offset: 0x43485, size: 0x8, addend: 0x0, symName: __ZNSt3__19allocatorINS_11__tree_nodeINS_12__value_typeIiNS_12basic_stringIcNS_11char_traitsIcEENS0_IcEEEEEEPvEEE8allocateB7v160006Em, symObjAddr: 0x1AB30, symBinAddr: 0x10001DE10, symSize: 0x58 }
  - { offsetInCU: 0x434C3, offset: 0x434C3, size: 0x8, addend: 0x0, symName: __ZNSt3__116allocator_traitsINS_9allocatorINS_11__tree_nodeINS_12__value_typeIiNS_12basic_stringIcNS_11char_traitsIcEENS1_IcEEEEEEPvEEEEE8max_sizeB7v160006ISC_vEEmRKSC_, symObjAddr: 0x1AB88, symBinAddr: 0x10001DE68, symSize: 0x24 }
  - { offsetInCU: 0x434F1, offset: 0x434F1, size: 0x8, addend: 0x0, symName: __ZNKSt3__19allocatorINS_11__tree_nodeINS_12__value_typeIiNS_12basic_stringIcNS_11char_traitsIcEENS0_IcEEEEEEPvEEE8max_sizeB7v160006Ev, symObjAddr: 0x1ABAC, symBinAddr: 0x10001DE8C, symSize: 0x14 }
  - { offsetInCU: 0x43517, offset: 0x43517, size: 0x8, addend: 0x0, symName: __ZNSt3__122__tree_node_destructorINS_9allocatorINS_11__tree_nodeINS_12__value_typeIiNS_12basic_stringIcNS_11char_traitsIcEENS1_IcEEEEEEPvEEEEEC2B7v160006ERSC_b, symObjAddr: 0x1ABC0, symBinAddr: 0x10001DEA0, symSize: 0x38 }
  - { offsetInCU: 0x4355F, offset: 0x4355F, size: 0x8, addend: 0x0, symName: __ZNSt3__110unique_ptrINS_11__tree_nodeINS_12__value_typeIiNS_12basic_stringIcNS_11char_traitsIcEENS_9allocatorIcEEEEEEPvEENS_22__tree_node_destructorINS6_ISB_EEEEEC2B7v160006ILb1EvEEPSB_NS_16__dependent_typeINS_27__unique_ptr_deleter_sfinaeISE_EEXT_EE20__good_rval_ref_typeE, symObjAddr: 0x1ABF8, symBinAddr: 0x10001DED8, symSize: 0x48 }
  - { offsetInCU: 0x435B0, offset: 0x435B0, size: 0x8, addend: 0x0, symName: __ZNSt3__117__compressed_pairIPNS_11__tree_nodeINS_12__value_typeIiNS_12basic_stringIcNS_11char_traitsIcEENS_9allocatorIcEEEEEEPvEENS_22__tree_node_destructorINS6_ISB_EEEEEC1B7v160006IRSC_SF_EEOT_OT0_, symObjAddr: 0x1AC40, symBinAddr: 0x10001DF20, symSize: 0x3C }
  - { offsetInCU: 0x43608, offset: 0x43608, size: 0x8, addend: 0x0, symName: __ZNSt3__117__compressed_pairIPNS_11__tree_nodeINS_12__value_typeIiNS_12basic_stringIcNS_11char_traitsIcEENS_9allocatorIcEEEEEEPvEENS_22__tree_node_destructorINS6_ISB_EEEEEC2B7v160006IRSC_SF_EEOT_OT0_, symObjAddr: 0x1AC7C, symBinAddr: 0x10001DF5C, symSize: 0x48 }
  - { offsetInCU: 0x43660, offset: 0x43660, size: 0x8, addend: 0x0, symName: __ZNSt3__122__compressed_pair_elemIPNS_11__tree_nodeINS_12__value_typeIiNS_12basic_stringIcNS_11char_traitsIcEENS_9allocatorIcEEEEEEPvEELi0ELb0EEC2B7v160006IRSC_vEEOT_, symObjAddr: 0x1ACC4, symBinAddr: 0x10001DFA4, symSize: 0x24 }
  - { offsetInCU: 0x436A2, offset: 0x436A2, size: 0x8, addend: 0x0, symName: __ZNSt3__122__compressed_pair_elemINS_22__tree_node_destructorINS_9allocatorINS_11__tree_nodeINS_12__value_typeIiNS_12basic_stringIcNS_11char_traitsIcEENS2_IcEEEEEEPvEEEEEELi1ELb0EEC2B7v160006ISE_vEEOT_, symObjAddr: 0x1ACE8, symBinAddr: 0x10001DFC8, symSize: 0x24 }
  - { offsetInCU: 0x436E4, offset: 0x436E4, size: 0x8, addend: 0x0, symName: __ZNSt3__19allocatorINS_11__tree_nodeINS_12__value_typeIiNS_12basic_stringIcNS_11char_traitsIcEENS0_IcEEEEEEPvEEE9constructB7v160006INS_4pairIKiS7_EEJRKNS_21piecewise_construct_tENS_5tupleIJRSE_EEENSJ_IJEEEEEEvPT_DpOT0_, symObjAddr: 0x1AD0C, symBinAddr: 0x10001DFEC, symSize: 0x44 }
  - { offsetInCU: 0x43760, offset: 0x43760, size: 0x8, addend: 0x0, symName: __ZNSt3__14pairIKiNS_12basic_stringIcNS_11char_traitsIcEENS_9allocatorIcEEEEEC1B7v160006IJRS1_EJEEENS_21piecewise_construct_tENS_5tupleIJDpT_EEENSC_IJDpT0_EEE, symObjAddr: 0x1AD50, symBinAddr: 0x10001E030, symSize: 0x44 }
  - { offsetInCU: 0x437C7, offset: 0x437C7, size: 0x8, addend: 0x0, symName: __ZNSt3__14pairIKiNS_12basic_stringIcNS_11char_traitsIcEENS_9allocatorIcEEEEEC1B7v160006IJRS1_EJEJLm0EEJEEENS_21piecewise_construct_tERNS_5tupleIJDpT_EEERNSC_IJDpT0_EEENS_15__tuple_indicesIJXspT1_EEEENSL_IJXspT2_EEEE, symObjAddr: 0x1AD94, symBinAddr: 0x10001E074, symSize: 0x3C }
  - { offsetInCU: 0x43854, offset: 0x43854, size: 0x8, addend: 0x0, symName: __ZNSt3__14pairIKiNS_12basic_stringIcNS_11char_traitsIcEENS_9allocatorIcEEEEEC2B7v160006IJRS1_EJEJLm0EEJEEENS_21piecewise_construct_tERNS_5tupleIJDpT_EEERNSC_IJDpT0_EEENS_15__tuple_indicesIJXspT1_EEEENSL_IJXspT2_EEEE, symObjAddr: 0x1ADD0, symBinAddr: 0x10001E0B0, symSize: 0x4C }
  - { offsetInCU: 0x438E1, offset: 0x438E1, size: 0x8, addend: 0x0, symName: __ZNKSt3__117__compressed_pairIPNS_11__tree_nodeINS_12__value_typeIiNS_12basic_stringIcNS_11char_traitsIcEENS_9allocatorIcEEEEEEPvEENS_22__tree_node_destructorINS6_ISB_EEEEE5firstB7v160006Ev, symObjAddr: 0x1AE1C, symBinAddr: 0x10001E0FC, symSize: 0x24 }
  - { offsetInCU: 0x43907, offset: 0x43907, size: 0x8, addend: 0x0, symName: __ZNKSt3__122__compressed_pair_elemIPNS_11__tree_nodeINS_12__value_typeIiNS_12basic_stringIcNS_11char_traitsIcEENS_9allocatorIcEEEEEEPvEELi0ELb0EE5__getB7v160006Ev, symObjAddr: 0x1AE40, symBinAddr: 0x10001E120, symSize: 0x14 }
  - { offsetInCU: 0x4392D, offset: 0x4392D, size: 0x8, addend: 0x0, symName: __ZNSt3__117__compressed_pairIPNS_11__tree_nodeINS_12__value_typeIiNS_12basic_stringIcNS_11char_traitsIcEENS_9allocatorIcEEEEEEPvEENS_22__tree_node_destructorINS6_ISB_EEEEE6secondB7v160006Ev, symObjAddr: 0x1AE54, symBinAddr: 0x10001E134, symSize: 0x28 }
  - { offsetInCU: 0x43953, offset: 0x43953, size: 0x8, addend: 0x0, symName: __ZNSt3__122__compressed_pair_elemINS_22__tree_node_destructorINS_9allocatorINS_11__tree_nodeINS_12__value_typeIiNS_12basic_stringIcNS_11char_traitsIcEENS2_IcEEEEEEPvEEEEEELi1ELb0EE5__getB7v160006Ev, symObjAddr: 0x1AE7C, symBinAddr: 0x10001E15C, symSize: 0x14 }
  - { offsetInCU: 0x43979, offset: 0x43979, size: 0x8, addend: 0x0, symName: __ZNSt3__16__treeINS_12__value_typeIiNS_12basic_stringIcNS_11char_traitsIcEENS_9allocatorIcEEEEEENS_19__map_value_compareIiS8_NS_4lessIiEELb1EEENS5_IS8_EEE4sizeB7v160006Ev, symObjAddr: 0x1AE90, symBinAddr: 0x10001E170, symSize: 0x28 }
  - { offsetInCU: 0x4399F, offset: 0x4399F, size: 0x8, addend: 0x0, symName: __ZNSt3__117__compressed_pairImNS_19__map_value_compareIiNS_12__value_typeIiNS_12basic_stringIcNS_11char_traitsIcEENS_9allocatorIcEEEEEENS_4lessIiEELb1EEEE5firstB7v160006Ev, symObjAddr: 0x1AEB8, symBinAddr: 0x10001E198, symSize: 0x24 }
  - { offsetInCU: 0x439C5, offset: 0x439C5, size: 0x8, addend: 0x0, symName: __ZNSt3__117__compressed_pairIPNS_11__tree_nodeINS_12__value_typeIiNS_12basic_stringIcNS_11char_traitsIcEENS_9allocatorIcEEEEEEPvEENS_22__tree_node_destructorINS6_ISB_EEEEE5firstB7v160006Ev, symObjAddr: 0x1AEDC, symBinAddr: 0x10001E1BC, symSize: 0x24 }
  - { offsetInCU: 0x439EB, offset: 0x439EB, size: 0x8, addend: 0x0, symName: __ZNSt3__122__compressed_pair_elemIPNS_11__tree_nodeINS_12__value_typeIiNS_12basic_stringIcNS_11char_traitsIcEENS_9allocatorIcEEEEEEPvEELi0ELb0EE5__getB7v160006Ev, symObjAddr: 0x1AF00, symBinAddr: 0x10001E1E0, symSize: 0x14 }
  - { offsetInCU: 0x43A11, offset: 0x43A11, size: 0x8, addend: 0x0, symName: __ZNSt3__110unique_ptrINS_11__tree_nodeINS_12__value_typeIiNS_12basic_stringIcNS_11char_traitsIcEENS_9allocatorIcEEEEEEPvEENS_22__tree_node_destructorINS6_ISB_EEEEED2B7v160006Ev, symObjAddr: 0x1AF14, symBinAddr: 0x10001E1F4, symSize: 0x30 }
  - { offsetInCU: 0x43A3B, offset: 0x43A3B, size: 0x8, addend: 0x0, symName: __ZNSt3__110unique_ptrINS_11__tree_nodeINS_12__value_typeIiNS_12basic_stringIcNS_11char_traitsIcEENS_9allocatorIcEEEEEEPvEENS_22__tree_node_destructorINS6_ISB_EEEEE5resetB7v160006EPSB_, symObjAddr: 0x1AF44, symBinAddr: 0x10001E224, symSize: 0x78 }
  - { offsetInCU: 0x43A7F, offset: 0x43A7F, size: 0x8, addend: 0x0, symName: __ZNSt3__122__tree_node_destructorINS_9allocatorINS_11__tree_nodeINS_12__value_typeIiNS_12basic_stringIcNS_11char_traitsIcEENS1_IcEEEEEEPvEEEEEclB7v160006EPSB_, symObjAddr: 0x1AFBC, symBinAddr: 0x10001E29C, symSize: 0x94 }
  - { offsetInCU: 0x43AB4, offset: 0x43AB4, size: 0x8, addend: 0x0, symName: __ZNSt3__115__tree_iteratorINS_12__value_typeIiNS_12basic_stringIcNS_11char_traitsIcEENS_9allocatorIcEEEEEEPNS_11__tree_nodeIS8_PvEElEC2B7v160006ESC_, symObjAddr: 0x1B050, symBinAddr: 0x10001E330, symSize: 0x20 }
  - { offsetInCU: 0x43AED, offset: 0x43AED, size: 0x8, addend: 0x0, symName: __ZNSt3__14pairINS_15__tree_iteratorINS_12__value_typeIiNS_12basic_stringIcNS_11char_traitsIcEENS_9allocatorIcEEEEEEPNS_11__tree_nodeIS9_PvEElEEbEC2B7v160006ISE_RbLSB_0EEEOT_OT0_, symObjAddr: 0x1B070, symBinAddr: 0x10001E350, symSize: 0x38 }
  - { offsetInCU: 0x43B4B, offset: 0x43B4B, size: 0x8, addend: 0x0, symName: __ZNSt3__114pointer_traitsIPNS_12__value_typeIiNS_12basic_stringIcNS_11char_traitsIcEENS_9allocatorIcEEEEEEE10pointer_toB7v160006ERS8_, symObjAddr: 0x1B0A8, symBinAddr: 0x10001E388, symSize: 0x14 }
  - { offsetInCU: 0x43B6E, offset: 0x43B6E, size: 0x8, addend: 0x0, symName: __ZNKSt3__115__tree_iteratorINS_12__value_typeIiNS_12basic_stringIcNS_11char_traitsIcEENS_9allocatorIcEEEEEEPNS_11__tree_nodeIS8_PvEElE8__get_npB7v160006Ev, symObjAddr: 0x1B0BC, symBinAddr: 0x10001E39C, symSize: 0x18 }
  - { offsetInCU: 0x43B94, offset: 0x43B94, size: 0x8, addend: 0x0, symName: __ZNSt3__16__treeINS_12__value_typeINS_12basic_stringIcNS_11char_traitsIcEENS_9allocatorIcEEEEiEENS_19__map_value_compareIS7_S8_NS_4lessIS7_EELb1EEENS5_IS8_EEE4findIS7_EENS_15__tree_iteratorIS8_PNS_11__tree_nodeIS8_PvEElEERKT_, symObjAddr: 0x1B0D4, symBinAddr: 0x10001E3B4, symSize: 0xF8 }
  - { offsetInCU: 0x43BE3, offset: 0x43BE3, size: 0x8, addend: 0x0, symName: __ZNSt3__16__treeINS_12__value_typeINS_12basic_stringIcNS_11char_traitsIcEENS_9allocatorIcEEEEiEENS_19__map_value_compareIS7_S8_NS_4lessIS7_EELb1EEENS5_IS8_EEE13__lower_boundIS7_EENS_15__tree_iteratorIS8_PNS_11__tree_nodeIS8_PvEElEERKT_SK_PNS_15__tree_end_nodeIPNS_16__tree_node_baseISI_EEEE, symObjAddr: 0x1B1CC, symBinAddr: 0x10001E4AC, symSize: 0xA4 }
  - { offsetInCU: 0x43C41, offset: 0x43C41, size: 0x8, addend: 0x0, symName: __ZNKSt3__115__tree_iteratorINS_12__value_typeINS_12basic_stringIcNS_11char_traitsIcEENS_9allocatorIcEEEEiEEPNS_11__tree_nodeIS8_PvEElEdeB7v160006Ev, symObjAddr: 0x1B270, symBinAddr: 0x10001E550, symSize: 0x28 }
  - { offsetInCU: 0x43C67, offset: 0x43C67, size: 0x8, addend: 0x0, symName: __ZNSt3__16__treeINS_12__value_typeIiiEENS_19__map_value_compareIiS2_NS_4lessIiEELb1EEENS_9allocatorIS2_EEE25__emplace_unique_key_argsIiJRKNS_21piecewise_construct_tENS_5tupleIJRKiEEENSE_IJEEEEEENS_4pairINS_15__tree_iteratorIS2_PNS_11__tree_nodeIS2_PvEElEEbEERKT_DpOT0_, symObjAddr: 0x1B298, symBinAddr: 0x10001E578, symSize: 0x100 }
  - { offsetInCU: 0x43D3D, offset: 0x43D3D, size: 0x8, addend: 0x0, symName: __ZNKSt3__115__tree_iteratorINS_12__value_typeIiiEEPNS_11__tree_nodeIS2_PvEElEptB7v160006Ev, symObjAddr: 0x1B398, symBinAddr: 0x10001E678, symSize: 0x2C }
  - { offsetInCU: 0x43D63, offset: 0x43D63, size: 0x8, addend: 0x0, symName: __ZNSt3__16__treeINS_12__value_typeIiiEENS_19__map_value_compareIiS2_NS_4lessIiEELb1EEENS_9allocatorIS2_EEE12__find_equalIiEERPNS_16__tree_node_baseIPvEERPNS_15__tree_end_nodeISE_EERKT_, symObjAddr: 0x1B3C4, symBinAddr: 0x10001E6A4, symSize: 0x184 }
  - { offsetInCU: 0x43DD0, offset: 0x43DD0, size: 0x8, addend: 0x0, symName: __ZNSt3__16__treeINS_12__value_typeIiiEENS_19__map_value_compareIiS2_NS_4lessIiEELb1EEENS_9allocatorIS2_EEE16__construct_nodeIJRKNS_21piecewise_construct_tENS_5tupleIJRKiEEENSE_IJEEEEEENS_10unique_ptrINS_11__tree_nodeIS2_PvEENS_22__tree_node_destructorINS7_ISM_EEEEEEDpOT_, symObjAddr: 0x1B548, symBinAddr: 0x10001E828, symSize: 0x120 }
  - { offsetInCU: 0x43E59, offset: 0x43E59, size: 0x8, addend: 0x0, symName: __ZNSt3__16__treeINS_12__value_typeIiiEENS_19__map_value_compareIiS2_NS_4lessIiEELb1EEENS_9allocatorIS2_EEE16__insert_node_atEPNS_15__tree_end_nodeIPNS_16__tree_node_baseIPvEEEERSE_SE_, symObjAddr: 0x1B668, symBinAddr: 0x10001E948, symSize: 0xCC }
  - { offsetInCU: 0x43EAE, offset: 0x43EAE, size: 0x8, addend: 0x0, symName: __ZNKSt3__110unique_ptrINS_11__tree_nodeINS_12__value_typeIiiEEPvEENS_22__tree_node_destructorINS_9allocatorIS5_EEEEE3getB7v160006Ev, symObjAddr: 0x1B734, symBinAddr: 0x10001EA14, symSize: 0x28 }
  - { offsetInCU: 0x43ED4, offset: 0x43ED4, size: 0x8, addend: 0x0, symName: __ZNSt3__110unique_ptrINS_11__tree_nodeINS_12__value_typeIiiEEPvEENS_22__tree_node_destructorINS_9allocatorIS5_EEEEE7releaseB7v160006Ev, symObjAddr: 0x1B75C, symBinAddr: 0x10001EA3C, symSize: 0x44 }
  - { offsetInCU: 0x43F09, offset: 0x43F09, size: 0x8, addend: 0x0, symName: __ZNSt3__110unique_ptrINS_11__tree_nodeINS_12__value_typeIiiEEPvEENS_22__tree_node_destructorINS_9allocatorIS5_EEEEED1B7v160006Ev, symObjAddr: 0x1B7A0, symBinAddr: 0x10001EA80, symSize: 0x2C }
  - { offsetInCU: 0x43F33, offset: 0x43F33, size: 0x8, addend: 0x0, symName: __ZNSt3__115__tree_iteratorINS_12__value_typeIiiEEPNS_11__tree_nodeIS2_PvEElEC1B7v160006ES6_, symObjAddr: 0x1B7CC, symBinAddr: 0x10001EAAC, symSize: 0x34 }
  - { offsetInCU: 0x43F72, offset: 0x43F72, size: 0x8, addend: 0x0, symName: __ZNSt3__14pairINS_15__tree_iteratorINS_12__value_typeIiiEEPNS_11__tree_nodeIS3_PvEElEEbEC1B7v160006IS8_RbLS5_0EEEOT_OT0_, symObjAddr: 0x1B800, symBinAddr: 0x10001EAE0, symSize: 0x3C }
  - { offsetInCU: 0x43FD0, offset: 0x43FD0, size: 0x8, addend: 0x0, symName: __ZNKSt3__16__treeINS_12__value_typeIiiEENS_19__map_value_compareIiS2_NS_4lessIiEELb1EEENS_9allocatorIS2_EEE10__root_ptrEv, symObjAddr: 0x1B83C, symBinAddr: 0x10001EB1C, symSize: 0x24 }
  - { offsetInCU: 0x43FF6, offset: 0x43FF6, size: 0x8, addend: 0x0, symName: __ZNSt3__16__treeINS_12__value_typeIiiEENS_19__map_value_compareIiS2_NS_4lessIiEELb1EEENS_9allocatorIS2_EEE10value_compB7v160006Ev, symObjAddr: 0x1B860, symBinAddr: 0x10001EB40, symSize: 0x28 }
  - { offsetInCU: 0x4401C, offset: 0x4401C, size: 0x8, addend: 0x0, symName: __ZNKSt3__119__map_value_compareIiNS_12__value_typeIiiEENS_4lessIiEELb1EEclB7v160006ERKiRKS2_, symObjAddr: 0x1B888, symBinAddr: 0x10001EB68, symSize: 0x50 }
  - { offsetInCU: 0x44060, offset: 0x44060, size: 0x8, addend: 0x0, symName: __ZNKSt3__119__map_value_compareIiNS_12__value_typeIiiEENS_4lessIiEELb1EEclB7v160006ERKS2_RKi, symObjAddr: 0x1B8D8, symBinAddr: 0x10001EBB8, symSize: 0x48 }
  - { offsetInCU: 0x440A4, offset: 0x440A4, size: 0x8, addend: 0x0, symName: __ZNSt3__117__compressed_pairImNS_19__map_value_compareIiNS_12__value_typeIiiEENS_4lessIiEELb1EEEE6secondB7v160006Ev, symObjAddr: 0x1B920, symBinAddr: 0x10001EC00, symSize: 0x24 }
  - { offsetInCU: 0x440CA, offset: 0x440CA, size: 0x8, addend: 0x0, symName: __ZNSt3__122__compressed_pair_elemINS_19__map_value_compareIiNS_12__value_typeIiiEENS_4lessIiEELb1EEELi1ELb1EE5__getB7v160006Ev, symObjAddr: 0x1B944, symBinAddr: 0x10001EC24, symSize: 0x14 }
  - { offsetInCU: 0x440F0, offset: 0x440F0, size: 0x8, addend: 0x0, symName: __ZNKSt3__112__value_typeIiiE11__get_valueB7v160006Ev, symObjAddr: 0x1B958, symBinAddr: 0x10001EC38, symSize: 0x14 }
  - { offsetInCU: 0x44116, offset: 0x44116, size: 0x8, addend: 0x0, symName: __ZNSt3__116allocator_traitsINS_9allocatorINS_11__tree_nodeINS_12__value_typeIiiEEPvEEEEE8allocateB7v160006ERS7_m, symObjAddr: 0x1B96C, symBinAddr: 0x10001EC4C, symSize: 0x2C }
  - { offsetInCU: 0x44149, offset: 0x44149, size: 0x8, addend: 0x0, symName: __ZNSt3__122__tree_node_destructorINS_9allocatorINS_11__tree_nodeINS_12__value_typeIiiEEPvEEEEEC1B7v160006ERS7_b, symObjAddr: 0x1B998, symBinAddr: 0x10001EC78, symSize: 0x48 }
  - { offsetInCU: 0x44197, offset: 0x44197, size: 0x8, addend: 0x0, symName: __ZNSt3__110unique_ptrINS_11__tree_nodeINS_12__value_typeIiiEEPvEENS_22__tree_node_destructorINS_9allocatorIS5_EEEEEC1B7v160006ILb1EvEEPS5_NS_16__dependent_typeINS_27__unique_ptr_deleter_sfinaeIS9_EEXT_EE20__good_rval_ref_typeE, symObjAddr: 0x1B9E0, symBinAddr: 0x10001ECC0, symSize: 0x3C }
  - { offsetInCU: 0x441E8, offset: 0x441E8, size: 0x8, addend: 0x0, symName: __ZNSt3__116allocator_traitsINS_9allocatorINS_11__tree_nodeINS_12__value_typeIiiEEPvEEEEE9constructB7v160006INS_4pairIKiiEEJRKNS_21piecewise_construct_tENS_5tupleIJRSB_EEENSG_IJEEEEvEEvRS7_PT_DpOT0_, symObjAddr: 0x1BA1C, symBinAddr: 0x10001ECFC, symSize: 0x44 }
  - { offsetInCU: 0x44267, offset: 0x44267, size: 0x8, addend: 0x0, symName: __ZNKSt3__110unique_ptrINS_11__tree_nodeINS_12__value_typeIiiEEPvEENS_22__tree_node_destructorINS_9allocatorIS5_EEEEEptB7v160006Ev, symObjAddr: 0x1BA60, symBinAddr: 0x10001ED40, symSize: 0x28 }
  - { offsetInCU: 0x4428D, offset: 0x4428D, size: 0x8, addend: 0x0, symName: __ZNSt3__110unique_ptrINS_11__tree_nodeINS_12__value_typeIiiEEPvEENS_22__tree_node_destructorINS_9allocatorIS5_EEEEE11get_deleterB7v160006Ev, symObjAddr: 0x1BA88, symBinAddr: 0x10001ED68, symSize: 0x24 }
  - { offsetInCU: 0x442B3, offset: 0x442B3, size: 0x8, addend: 0x0, symName: __ZNSt3__19allocatorINS_11__tree_nodeINS_12__value_typeIiiEEPvEEE8allocateB7v160006Em, symObjAddr: 0x1BAAC, symBinAddr: 0x10001ED8C, symSize: 0x5C }
  - { offsetInCU: 0x442F1, offset: 0x442F1, size: 0x8, addend: 0x0, symName: __ZNSt3__116allocator_traitsINS_9allocatorINS_11__tree_nodeINS_12__value_typeIiiEEPvEEEEE8max_sizeB7v160006IS7_vEEmRKS7_, symObjAddr: 0x1BB08, symBinAddr: 0x10001EDE8, symSize: 0x24 }
  - { offsetInCU: 0x4431F, offset: 0x4431F, size: 0x8, addend: 0x0, symName: __ZNKSt3__19allocatorINS_11__tree_nodeINS_12__value_typeIiiEEPvEEE8max_sizeB7v160006Ev, symObjAddr: 0x1BB2C, symBinAddr: 0x10001EE0C, symSize: 0x18 }
  - { offsetInCU: 0x44345, offset: 0x44345, size: 0x8, addend: 0x0, symName: __ZNSt3__122__tree_node_destructorINS_9allocatorINS_11__tree_nodeINS_12__value_typeIiiEEPvEEEEEC2B7v160006ERS7_b, symObjAddr: 0x1BB44, symBinAddr: 0x10001EE24, symSize: 0x38 }
  - { offsetInCU: 0x4438D, offset: 0x4438D, size: 0x8, addend: 0x0, symName: __ZNSt3__110unique_ptrINS_11__tree_nodeINS_12__value_typeIiiEEPvEENS_22__tree_node_destructorINS_9allocatorIS5_EEEEEC2B7v160006ILb1EvEEPS5_NS_16__dependent_typeINS_27__unique_ptr_deleter_sfinaeIS9_EEXT_EE20__good_rval_ref_typeE, symObjAddr: 0x1BB7C, symBinAddr: 0x10001EE5C, symSize: 0x48 }
  - { offsetInCU: 0x443DE, offset: 0x443DE, size: 0x8, addend: 0x0, symName: __ZNSt3__117__compressed_pairIPNS_11__tree_nodeINS_12__value_typeIiiEEPvEENS_22__tree_node_destructorINS_9allocatorIS5_EEEEEC1B7v160006IRS6_SA_EEOT_OT0_, symObjAddr: 0x1BBC4, symBinAddr: 0x10001EEA4, symSize: 0x3C }
  - { offsetInCU: 0x44436, offset: 0x44436, size: 0x8, addend: 0x0, symName: __ZNSt3__117__compressed_pairIPNS_11__tree_nodeINS_12__value_typeIiiEEPvEENS_22__tree_node_destructorINS_9allocatorIS5_EEEEEC2B7v160006IRS6_SA_EEOT_OT0_, symObjAddr: 0x1BC00, symBinAddr: 0x10001EEE0, symSize: 0x48 }
  - { offsetInCU: 0x4448E, offset: 0x4448E, size: 0x8, addend: 0x0, symName: __ZNSt3__122__compressed_pair_elemIPNS_11__tree_nodeINS_12__value_typeIiiEEPvEELi0ELb0EEC2B7v160006IRS6_vEEOT_, symObjAddr: 0x1BC48, symBinAddr: 0x10001EF28, symSize: 0x24 }
  - { offsetInCU: 0x444D0, offset: 0x444D0, size: 0x8, addend: 0x0, symName: __ZNSt3__122__compressed_pair_elemINS_22__tree_node_destructorINS_9allocatorINS_11__tree_nodeINS_12__value_typeIiiEEPvEEEEEELi1ELb0EEC2B7v160006IS9_vEEOT_, symObjAddr: 0x1BC6C, symBinAddr: 0x10001EF4C, symSize: 0x24 }
  - { offsetInCU: 0x44512, offset: 0x44512, size: 0x8, addend: 0x0, symName: __ZNSt3__19allocatorINS_11__tree_nodeINS_12__value_typeIiiEEPvEEE9constructB7v160006INS_4pairIKiiEEJRKNS_21piecewise_construct_tENS_5tupleIJRS9_EEENSE_IJEEEEEEvPT_DpOT0_, symObjAddr: 0x1BC90, symBinAddr: 0x10001EF70, symSize: 0x44 }
  - { offsetInCU: 0x4458E, offset: 0x4458E, size: 0x8, addend: 0x0, symName: __ZNSt3__14pairIKiiEC1B7v160006IJRS1_EJEEENS_21piecewise_construct_tENS_5tupleIJDpT_EEENS6_IJDpT0_EEE, symObjAddr: 0x1BCD4, symBinAddr: 0x10001EFB4, symSize: 0x44 }
  - { offsetInCU: 0x445F5, offset: 0x445F5, size: 0x8, addend: 0x0, symName: __ZNSt3__14pairIKiiEC1B7v160006IJRS1_EJEJLm0EEJEEENS_21piecewise_construct_tERNS_5tupleIJDpT_EEERNS6_IJDpT0_EEENS_15__tuple_indicesIJXspT1_EEEENSF_IJXspT2_EEEE, symObjAddr: 0x1BD18, symBinAddr: 0x10001EFF8, symSize: 0x3C }
  - { offsetInCU: 0x44682, offset: 0x44682, size: 0x8, addend: 0x0, symName: __ZNSt3__14pairIKiiEC2B7v160006IJRS1_EJEJLm0EEJEEENS_21piecewise_construct_tERNS_5tupleIJDpT_EEERNS6_IJDpT0_EEENS_15__tuple_indicesIJXspT1_EEEENSF_IJXspT2_EEEE, symObjAddr: 0x1BD54, symBinAddr: 0x10001F034, symSize: 0x48 }
  - { offsetInCU: 0x4470F, offset: 0x4470F, size: 0x8, addend: 0x0, symName: __ZNKSt3__117__compressed_pairIPNS_11__tree_nodeINS_12__value_typeIiiEEPvEENS_22__tree_node_destructorINS_9allocatorIS5_EEEEE5firstB7v160006Ev, symObjAddr: 0x1BD9C, symBinAddr: 0x10001F07C, symSize: 0x24 }
  - { offsetInCU: 0x44735, offset: 0x44735, size: 0x8, addend: 0x0, symName: __ZNKSt3__122__compressed_pair_elemIPNS_11__tree_nodeINS_12__value_typeIiiEEPvEELi0ELb0EE5__getB7v160006Ev, symObjAddr: 0x1BDC0, symBinAddr: 0x10001F0A0, symSize: 0x14 }
  - { offsetInCU: 0x4475B, offset: 0x4475B, size: 0x8, addend: 0x0, symName: __ZNSt3__117__compressed_pairIPNS_11__tree_nodeINS_12__value_typeIiiEEPvEENS_22__tree_node_destructorINS_9allocatorIS5_EEEEE6secondB7v160006Ev, symObjAddr: 0x1BDD4, symBinAddr: 0x10001F0B4, symSize: 0x28 }
  - { offsetInCU: 0x44781, offset: 0x44781, size: 0x8, addend: 0x0, symName: __ZNSt3__122__compressed_pair_elemINS_22__tree_node_destructorINS_9allocatorINS_11__tree_nodeINS_12__value_typeIiiEEPvEEEEEELi1ELb0EE5__getB7v160006Ev, symObjAddr: 0x1BDFC, symBinAddr: 0x10001F0DC, symSize: 0x14 }
  - { offsetInCU: 0x447A7, offset: 0x447A7, size: 0x8, addend: 0x0, symName: __ZNSt3__16__treeINS_12__value_typeIiiEENS_19__map_value_compareIiS2_NS_4lessIiEELb1EEENS_9allocatorIS2_EEE4sizeB7v160006Ev, symObjAddr: 0x1BE10, symBinAddr: 0x10001F0F0, symSize: 0x28 }
  - { offsetInCU: 0x447CD, offset: 0x447CD, size: 0x8, addend: 0x0, symName: __ZNSt3__117__compressed_pairImNS_19__map_value_compareIiNS_12__value_typeIiiEENS_4lessIiEELb1EEEE5firstB7v160006Ev, symObjAddr: 0x1BE38, symBinAddr: 0x10001F118, symSize: 0x24 }
  - { offsetInCU: 0x447F3, offset: 0x447F3, size: 0x8, addend: 0x0, symName: __ZNSt3__117__compressed_pairIPNS_11__tree_nodeINS_12__value_typeIiiEEPvEENS_22__tree_node_destructorINS_9allocatorIS5_EEEEE5firstB7v160006Ev, symObjAddr: 0x1BE5C, symBinAddr: 0x10001F13C, symSize: 0x24 }
  - { offsetInCU: 0x44819, offset: 0x44819, size: 0x8, addend: 0x0, symName: __ZNSt3__122__compressed_pair_elemIPNS_11__tree_nodeINS_12__value_typeIiiEEPvEELi0ELb0EE5__getB7v160006Ev, symObjAddr: 0x1BE80, symBinAddr: 0x10001F160, symSize: 0x14 }
  - { offsetInCU: 0x4483F, offset: 0x4483F, size: 0x8, addend: 0x0, symName: __ZNSt3__110unique_ptrINS_11__tree_nodeINS_12__value_typeIiiEEPvEENS_22__tree_node_destructorINS_9allocatorIS5_EEEEED2B7v160006Ev, symObjAddr: 0x1BE94, symBinAddr: 0x10001F174, symSize: 0x30 }
  - { offsetInCU: 0x44869, offset: 0x44869, size: 0x8, addend: 0x0, symName: __ZNSt3__110unique_ptrINS_11__tree_nodeINS_12__value_typeIiiEEPvEENS_22__tree_node_destructorINS_9allocatorIS5_EEEEE5resetB7v160006EPS5_, symObjAddr: 0x1BEC4, symBinAddr: 0x10001F1A4, symSize: 0x78 }
  - { offsetInCU: 0x448AD, offset: 0x448AD, size: 0x8, addend: 0x0, symName: __ZNSt3__122__tree_node_destructorINS_9allocatorINS_11__tree_nodeINS_12__value_typeIiiEEPvEEEEEclB7v160006EPS6_, symObjAddr: 0x1BF3C, symBinAddr: 0x10001F21C, symSize: 0x94 }
  - { offsetInCU: 0x448E2, offset: 0x448E2, size: 0x8, addend: 0x0, symName: __ZNSt3__115__tree_iteratorINS_12__value_typeIiiEEPNS_11__tree_nodeIS2_PvEElEC2B7v160006ES6_, symObjAddr: 0x1BFD0, symBinAddr: 0x10001F2B0, symSize: 0x20 }
  - { offsetInCU: 0x4491B, offset: 0x4491B, size: 0x8, addend: 0x0, symName: __ZNSt3__14pairINS_15__tree_iteratorINS_12__value_typeIiiEEPNS_11__tree_nodeIS3_PvEElEEbEC2B7v160006IS8_RbLS5_0EEEOT_OT0_, symObjAddr: 0x1BFF0, symBinAddr: 0x10001F2D0, symSize: 0x38 }
  - { offsetInCU: 0x44979, offset: 0x44979, size: 0x8, addend: 0x0, symName: __ZNSt3__114pointer_traitsIPNS_12__value_typeIiiEEE10pointer_toB7v160006ERS2_, symObjAddr: 0x1C028, symBinAddr: 0x10001F308, symSize: 0x14 }
  - { offsetInCU: 0x4499C, offset: 0x4499C, size: 0x8, addend: 0x0, symName: __ZNKSt3__115__tree_iteratorINS_12__value_typeIiiEEPNS_11__tree_nodeIS2_PvEElE8__get_npB7v160006Ev, symObjAddr: 0x1C03C, symBinAddr: 0x10001F31C, symSize: 0x18 }
  - { offsetInCU: 0x449C2, offset: 0x449C2, size: 0x8, addend: 0x0, symName: __ZNSt3__16vectorINS_12basic_stringIcNS_11char_traitsIcEENS_9allocatorIcEEEENS4_IS6_EEE22__construct_one_at_endB7v160006IJRKS6_EEEvDpOT_, symObjAddr: 0x1C054, symBinAddr: 0x10001F334, symSize: 0x90 }
  - { offsetInCU: 0x44A11, offset: 0x44A11, size: 0x8, addend: 0x0, symName: __ZNSt3__16vectorINS_12basic_stringIcNS_11char_traitsIcEENS_9allocatorIcEEEENS4_IS6_EEE21__push_back_slow_pathIRKS6_EEvOT_, symObjAddr: 0x1C0E4, symBinAddr: 0x10001F3C4, symSize: 0xD8 }
  - { offsetInCU: 0x44A6F, offset: 0x44A6F, size: 0x8, addend: 0x0, symName: __ZNSt3__116allocator_traitsINS_9allocatorINS_12basic_stringIcNS_11char_traitsIcEENS1_IcEEEEEEE9constructB7v160006IS6_JRKS6_EvEEvRS7_PT_DpOT0_, symObjAddr: 0x1C1BC, symBinAddr: 0x10001F49C, symSize: 0x34 }
  - { offsetInCU: 0x44AC6, offset: 0x44AC6, size: 0x8, addend: 0x0, symName: __ZNSt3__19allocatorINS_12basic_stringIcNS_11char_traitsIcEENS0_IcEEEEE9constructB7v160006IS5_JRKS5_EEEvPT_DpOT0_, symObjAddr: 0x1C1F0, symBinAddr: 0x10001F4D0, symSize: 0x30 }
  - { offsetInCU: 0x44B1C, offset: 0x44B1C, size: 0x8, addend: 0x0, symName: __ZNSt3__16__treeINS_12__value_typeINS_12basic_stringIcNS_11char_traitsIcEENS_9allocatorIcEEEEiEENS_19__map_value_compareIS7_S8_NS_4lessIS7_EELb1EEENS5_IS8_EEE15__insert_uniqueB7v160006IRNS_4pairIS7_iEEvEENSG_INS_15__tree_iteratorIS8_PNS_11__tree_nodeIS8_PvEElEEbEEOT_, symObjAddr: 0x1C220, symBinAddr: 0x10001F500, symSize: 0x3C }
  - { offsetInCU: 0x44B5B, offset: 0x44B5B, size: 0x8, addend: 0x0, symName: __ZNSt3__14pairINS_14__map_iteratorINS_15__tree_iteratorINS_12__value_typeINS_12basic_stringIcNS_11char_traitsIcEENS_9allocatorIcEEEEiEEPNS_11__tree_nodeISA_PvEElEEEEbEC1B7v160006ISF_bLSC_0EEEONS0_IT_T0_EE, symObjAddr: 0x1C25C, symBinAddr: 0x10001F53C, symSize: 0x34 }
  - { offsetInCU: 0x44BAC, offset: 0x44BAC, size: 0x8, addend: 0x0, symName: __ZNSt3__16__treeINS_12__value_typeINS_12basic_stringIcNS_11char_traitsIcEENS_9allocatorIcEEEEiEENS_19__map_value_compareIS7_S8_NS_4lessIS7_EELb1EEENS5_IS8_EEE16__emplace_uniqueB7v160006IRNS_4pairIS7_iEEEENSG_INS_15__tree_iteratorIS8_PNS_11__tree_nodeIS8_PvEElEEbEEOT_, symObjAddr: 0x1C290, symBinAddr: 0x10001F570, symSize: 0x3C }
  - { offsetInCU: 0x44BEA, offset: 0x44BEA, size: 0x8, addend: 0x0, symName: __ZNSt3__16__treeINS_12__value_typeINS_12basic_stringIcNS_11char_traitsIcEENS_9allocatorIcEEEEiEENS_19__map_value_compareIS7_S8_NS_4lessIS7_EELb1EEENS5_IS8_EEE28__emplace_unique_extract_keyB7v160006IRNS_4pairIS7_iEEEENSG_INS_15__tree_iteratorIS8_PNS_11__tree_nodeIS8_PvEElEEbEEOT_NS_23__extract_key_first_tagE, symObjAddr: 0x1C2CC, symBinAddr: 0x10001F5AC, symSize: 0x40 }
  - { offsetInCU: 0x44C33, offset: 0x44C33, size: 0x8, addend: 0x0, symName: __ZNSt3__16__treeINS_12__value_typeINS_12basic_stringIcNS_11char_traitsIcEENS_9allocatorIcEEEEiEENS_19__map_value_compareIS7_S8_NS_4lessIS7_EELb1EEENS5_IS8_EEE25__emplace_unique_key_argsIS7_JRNS_4pairIS7_iEEEEENSG_INS_15__tree_iteratorIS8_PNS_11__tree_nodeIS8_PvEElEEbEERKT_DpOT0_, symObjAddr: 0x1C30C, symBinAddr: 0x10001F5EC, symSize: 0xF0 }
  - { offsetInCU: 0x44CDF, offset: 0x44CDF, size: 0x8, addend: 0x0, symName: __ZNSt3__16__treeINS_12__value_typeINS_12basic_stringIcNS_11char_traitsIcEENS_9allocatorIcEEEEiEENS_19__map_value_compareIS7_S8_NS_4lessIS7_EELb1EEENS5_IS8_EEE16__construct_nodeIJRNS_4pairIS7_iEEEEENS_10unique_ptrINS_11__tree_nodeIS8_PvEENS_22__tree_node_destructorINS5_ISM_EEEEEEDpOT_, symObjAddr: 0x1C3FC, symBinAddr: 0x10001F6DC, symSize: 0x110 }
  - { offsetInCU: 0x44D40, offset: 0x44D40, size: 0x8, addend: 0x0, symName: __ZNSt3__116allocator_traitsINS_9allocatorINS_11__tree_nodeINS_12__value_typeINS_12basic_stringIcNS_11char_traitsIcEENS1_IcEEEEiEEPvEEEEE9constructB7v160006INS_4pairIKS8_iEEJRNSF_IS8_iEEEvEEvRSC_PT_DpOT0_, symObjAddr: 0x1C50C, symBinAddr: 0x10001F7EC, symSize: 0x34 }
  - { offsetInCU: 0x44D97, offset: 0x44D97, size: 0x8, addend: 0x0, symName: __ZNSt3__19allocatorINS_11__tree_nodeINS_12__value_typeINS_12basic_stringIcNS_11char_traitsIcEENS0_IcEEEEiEEPvEEE9constructB7v160006INS_4pairIKS7_iEEJRNSD_IS7_iEEEEEvPT_DpOT0_, symObjAddr: 0x1C540, symBinAddr: 0x10001F820, symSize: 0x30 }
  - { offsetInCU: 0x44DED, offset: 0x44DED, size: 0x8, addend: 0x0, symName: __ZNSt3__14pairIKNS_12basic_stringIcNS_11char_traitsIcEENS_9allocatorIcEEEEiEC1B7v160006IRNS0_IS6_iEELPv0EEEOT_, symObjAddr: 0x1C570, symBinAddr: 0x10001F850, symSize: 0x34 }
  - { offsetInCU: 0x44E35, offset: 0x44E35, size: 0x8, addend: 0x0, symName: __ZNSt3__14pairIKNS_12basic_stringIcNS_11char_traitsIcEENS_9allocatorIcEEEEiEC2B7v160006IRNS0_IS6_iEELPv0EEEOT_, symObjAddr: 0x1C5A4, symBinAddr: 0x10001F884, symSize: 0x54 }
  - { offsetInCU: 0x44E7D, offset: 0x44E7D, size: 0x8, addend: 0x0, symName: __ZNSt3__110__get_pairILm0EE3getB7v160006INS_12basic_stringIcNS_11char_traitsIcEENS_9allocatorIcEEEEiEERT_RNS_4pairIS9_T0_EE, symObjAddr: 0x1C640, symBinAddr: 0x10001F920, symSize: 0x14 }
  - { offsetInCU: 0x44EB3, offset: 0x44EB3, size: 0x8, addend: 0x0, symName: __ZNSt3__110__get_pairILm1EE3getB7v160006INS_12basic_stringIcNS_11char_traitsIcEENS_9allocatorIcEEEEiEERT0_RNS_4pairIT_S9_EE, symObjAddr: 0x1C654, symBinAddr: 0x10001F934, symSize: 0x18 }
  - { offsetInCU: 0x44EE9, offset: 0x44EE9, size: 0x8, addend: 0x0, symName: __ZNSt3__14pairINS_14__map_iteratorINS_15__tree_iteratorINS_12__value_typeINS_12basic_stringIcNS_11char_traitsIcEENS_9allocatorIcEEEEiEEPNS_11__tree_nodeISA_PvEElEEEEbEC2B7v160006ISF_bLSC_0EEEONS0_IT_T0_EE, symObjAddr: 0x1C66C, symBinAddr: 0x10001F94C, symSize: 0x50 }
  - { offsetInCU: 0x44F3A, offset: 0x44F3A, size: 0x8, addend: 0x0, symName: __ZNKSt3__16__treeINS_12__value_typeIiiEENS_19__map_value_compareIiS2_NS_4lessIiEELb1EEENS_9allocatorIS2_EEE4sizeB7v160006Ev, symObjAddr: 0x1C6BC, symBinAddr: 0x10001F99C, symSize: 0x28 }
  - { offsetInCU: 0x44F60, offset: 0x44F60, size: 0x8, addend: 0x0, symName: __ZNKSt3__117__compressed_pairImNS_19__map_value_compareIiNS_12__value_typeIiiEENS_4lessIiEELb1EEEE5firstB7v160006Ev, symObjAddr: 0x1C6E4, symBinAddr: 0x10001F9C4, symSize: 0x24 }
  - { offsetInCU: 0x44F86, offset: 0x44F86, size: 0x8, addend: 0x0, symName: __ZNSt3__16__treeINS_12__value_typeIiiEENS_19__map_value_compareIiS2_NS_4lessIiEELb1EEENS_9allocatorIS2_EEE15__insert_uniqueB7v160006IRNS_4pairIiiEEvEENSB_INS_15__tree_iteratorIS2_PNS_11__tree_nodeIS2_PvEElEEbEEOT_, symObjAddr: 0x1C708, symBinAddr: 0x10001F9E8, symSize: 0x3C }
  - { offsetInCU: 0x44FC5, offset: 0x44FC5, size: 0x8, addend: 0x0, symName: __ZNSt3__14pairINS_14__map_iteratorINS_15__tree_iteratorINS_12__value_typeIiiEEPNS_11__tree_nodeIS4_PvEElEEEEbEC1B7v160006IS9_bLS6_0EEEONS0_IT_T0_EE, symObjAddr: 0x1C744, symBinAddr: 0x10001FA24, symSize: 0x34 }
  - { offsetInCU: 0x45016, offset: 0x45016, size: 0x8, addend: 0x0, symName: __ZNSt3__16__treeINS_12__value_typeIiiEENS_19__map_value_compareIiS2_NS_4lessIiEELb1EEENS_9allocatorIS2_EEE16__emplace_uniqueB7v160006IRNS_4pairIiiEEEENSB_INS_15__tree_iteratorIS2_PNS_11__tree_nodeIS2_PvEElEEbEEOT_, symObjAddr: 0x1C778, symBinAddr: 0x10001FA58, symSize: 0x3C }
  - { offsetInCU: 0x45054, offset: 0x45054, size: 0x8, addend: 0x0, symName: __ZNSt3__16__treeINS_12__value_typeIiiEENS_19__map_value_compareIiS2_NS_4lessIiEELb1EEENS_9allocatorIS2_EEE28__emplace_unique_extract_keyB7v160006IRNS_4pairIiiEEEENSB_INS_15__tree_iteratorIS2_PNS_11__tree_nodeIS2_PvEElEEbEEOT_NS_23__extract_key_first_tagE, symObjAddr: 0x1C7B4, symBinAddr: 0x10001FA94, symSize: 0x40 }
  - { offsetInCU: 0x4509D, offset: 0x4509D, size: 0x8, addend: 0x0, symName: __ZNSt3__16__treeINS_12__value_typeIiiEENS_19__map_value_compareIiS2_NS_4lessIiEELb1EEENS_9allocatorIS2_EEE25__emplace_unique_key_argsIiJRNS_4pairIiiEEEEENSB_INS_15__tree_iteratorIS2_PNS_11__tree_nodeIS2_PvEElEEbEERKT_DpOT0_, symObjAddr: 0x1C7F4, symBinAddr: 0x10001FAD4, symSize: 0xF0 }
  - { offsetInCU: 0x45149, offset: 0x45149, size: 0x8, addend: 0x0, symName: __ZNSt3__16__treeINS_12__value_typeIiiEENS_19__map_value_compareIiS2_NS_4lessIiEELb1EEENS_9allocatorIS2_EEE16__construct_nodeIJRNS_4pairIiiEEEEENS_10unique_ptrINS_11__tree_nodeIS2_PvEENS_22__tree_node_destructorINS7_ISH_EEEEEEDpOT_, symObjAddr: 0x1C8E4, symBinAddr: 0x10001FBC4, symSize: 0x110 }
  - { offsetInCU: 0x451AA, offset: 0x451AA, size: 0x8, addend: 0x0, symName: __ZNSt3__116allocator_traitsINS_9allocatorINS_11__tree_nodeINS_12__value_typeIiiEEPvEEEEE9constructB7v160006INS_4pairIKiiEEJRNSA_IiiEEEvEEvRS7_PT_DpOT0_, symObjAddr: 0x1C9F4, symBinAddr: 0x10001FCD4, symSize: 0x34 }
  - { offsetInCU: 0x45201, offset: 0x45201, size: 0x8, addend: 0x0, symName: __ZNSt3__19allocatorINS_11__tree_nodeINS_12__value_typeIiiEEPvEEE9constructB7v160006INS_4pairIKiiEEJRNS8_IiiEEEEEvPT_DpOT0_, symObjAddr: 0x1CA28, symBinAddr: 0x10001FD08, symSize: 0x30 }
  - { offsetInCU: 0x45257, offset: 0x45257, size: 0x8, addend: 0x0, symName: __ZNSt3__14pairIKiiEC1B7v160006IRNS0_IiiEELPv0EEEOT_, symObjAddr: 0x1CA58, symBinAddr: 0x10001FD38, symSize: 0x34 }
  - { offsetInCU: 0x4529F, offset: 0x4529F, size: 0x8, addend: 0x0, symName: __ZNSt3__14pairIKiiEC2B7v160006IRNS0_IiiEELPv0EEEOT_, symObjAddr: 0x1CA8C, symBinAddr: 0x10001FD6C, symSize: 0x54 }
  - { offsetInCU: 0x452E7, offset: 0x452E7, size: 0x8, addend: 0x0, symName: __ZNSt3__110__get_pairILm0EE3getB7v160006IiiEERT_RNS_4pairIS3_T0_EE, symObjAddr: 0x1CB28, symBinAddr: 0x10001FE08, symSize: 0x14 }
  - { offsetInCU: 0x4531D, offset: 0x4531D, size: 0x8, addend: 0x0, symName: __ZNSt3__110__get_pairILm1EE3getB7v160006IiiEERT0_RNS_4pairIT_S3_EE, symObjAddr: 0x1CB3C, symBinAddr: 0x10001FE1C, symSize: 0x18 }
  - { offsetInCU: 0x45353, offset: 0x45353, size: 0x8, addend: 0x0, symName: __ZNSt3__14pairINS_14__map_iteratorINS_15__tree_iteratorINS_12__value_typeIiiEEPNS_11__tree_nodeIS4_PvEElEEEEbEC2B7v160006IS9_bLS6_0EEEONS0_IT_T0_EE, symObjAddr: 0x1CB54, symBinAddr: 0x10001FE34, symSize: 0x50 }
  - { offsetInCU: 0x453A4, offset: 0x453A4, size: 0x8, addend: 0x0, symName: __ZNSt3__114__map_iteratorINS_15__tree_iteratorINS_12__value_typeIiiEEPNS_11__tree_nodeIS3_PvEElEEEC1B7v160006ES8_, symObjAddr: 0x1CBA4, symBinAddr: 0x10001FE84, symSize: 0x34 }
  - { offsetInCU: 0x453DD, offset: 0x453DD, size: 0x8, addend: 0x0, symName: __ZNSt3__114__map_iteratorINS_15__tree_iteratorINS_12__value_typeIiiEEPNS_11__tree_nodeIS3_PvEElEEEC2B7v160006ES8_, symObjAddr: 0x1CBD8, symBinAddr: 0x10001FEB8, symSize: 0x20 }
  - { offsetInCU: 0x45416, offset: 0x45416, size: 0x8, addend: 0x0, symName: __ZNSt3__16__treeINS_12__value_typeIiNS_12basic_stringIcNS_11char_traitsIcEENS_9allocatorIcEEEEEENS_19__map_value_compareIiS8_NS_4lessIiEELb1EEENS5_IS8_EEE15__insert_uniqueB7v160006IRNS_4pairIiS7_EEvEENSG_INS_15__tree_iteratorIS8_PNS_11__tree_nodeIS8_PvEElEEbEEOT_, symObjAddr: 0x1CBF8, symBinAddr: 0x10001FED8, symSize: 0x3C }
  - { offsetInCU: 0x45455, offset: 0x45455, size: 0x8, addend: 0x0, symName: __ZNSt3__14pairINS_14__map_iteratorINS_15__tree_iteratorINS_12__value_typeIiNS_12basic_stringIcNS_11char_traitsIcEENS_9allocatorIcEEEEEEPNS_11__tree_nodeISA_PvEElEEEEbEC1B7v160006ISF_bLSC_0EEEONS0_IT_T0_EE, symObjAddr: 0x1CC34, symBinAddr: 0x10001FF14, symSize: 0x34 }
  - { offsetInCU: 0x454A6, offset: 0x454A6, size: 0x8, addend: 0x0, symName: __ZNSt3__16__treeINS_12__value_typeIiNS_12basic_stringIcNS_11char_traitsIcEENS_9allocatorIcEEEEEENS_19__map_value_compareIiS8_NS_4lessIiEELb1EEENS5_IS8_EEE16__emplace_uniqueB7v160006IRNS_4pairIiS7_EEEENSG_INS_15__tree_iteratorIS8_PNS_11__tree_nodeIS8_PvEElEEbEEOT_, symObjAddr: 0x1CC68, symBinAddr: 0x10001FF48, symSize: 0x3C }
  - { offsetInCU: 0x454E4, offset: 0x454E4, size: 0x8, addend: 0x0, symName: __ZNSt3__16__treeINS_12__value_typeIiNS_12basic_stringIcNS_11char_traitsIcEENS_9allocatorIcEEEEEENS_19__map_value_compareIiS8_NS_4lessIiEELb1EEENS5_IS8_EEE28__emplace_unique_extract_keyB7v160006IRNS_4pairIiS7_EEEENSG_INS_15__tree_iteratorIS8_PNS_11__tree_nodeIS8_PvEElEEbEEOT_NS_23__extract_key_first_tagE, symObjAddr: 0x1CCA4, symBinAddr: 0x10001FF84, symSize: 0x40 }
  - { offsetInCU: 0x4552D, offset: 0x4552D, size: 0x8, addend: 0x0, symName: __ZNSt3__16__treeINS_12__value_typeIiNS_12basic_stringIcNS_11char_traitsIcEENS_9allocatorIcEEEEEENS_19__map_value_compareIiS8_NS_4lessIiEELb1EEENS5_IS8_EEE25__emplace_unique_key_argsIiJRNS_4pairIiS7_EEEEENSG_INS_15__tree_iteratorIS8_PNS_11__tree_nodeIS8_PvEElEEbEERKT_DpOT0_, symObjAddr: 0x1CCE4, symBinAddr: 0x10001FFC4, symSize: 0xF0 }
  - { offsetInCU: 0x455D9, offset: 0x455D9, size: 0x8, addend: 0x0, symName: __ZNSt3__16__treeINS_12__value_typeIiNS_12basic_stringIcNS_11char_traitsIcEENS_9allocatorIcEEEEEENS_19__map_value_compareIiS8_NS_4lessIiEELb1EEENS5_IS8_EEE16__construct_nodeIJRNS_4pairIiS7_EEEEENS_10unique_ptrINS_11__tree_nodeIS8_PvEENS_22__tree_node_destructorINS5_ISM_EEEEEEDpOT_, symObjAddr: 0x1CDD4, symBinAddr: 0x1000200B4, symSize: 0x110 }
  - { offsetInCU: 0x4563A, offset: 0x4563A, size: 0x8, addend: 0x0, symName: __ZNSt3__116allocator_traitsINS_9allocatorINS_11__tree_nodeINS_12__value_typeIiNS_12basic_stringIcNS_11char_traitsIcEENS1_IcEEEEEEPvEEEEE9constructB7v160006INS_4pairIKiS8_EEJRNSF_IiS8_EEEvEEvRSC_PT_DpOT0_, symObjAddr: 0x1CEE4, symBinAddr: 0x1000201C4, symSize: 0x34 }
  - { offsetInCU: 0x45691, offset: 0x45691, size: 0x8, addend: 0x0, symName: __ZNSt3__19allocatorINS_11__tree_nodeINS_12__value_typeIiNS_12basic_stringIcNS_11char_traitsIcEENS0_IcEEEEEEPvEEE9constructB7v160006INS_4pairIKiS7_EEJRNSD_IiS7_EEEEEvPT_DpOT0_, symObjAddr: 0x1CF18, symBinAddr: 0x1000201F8, symSize: 0x30 }
  - { offsetInCU: 0x456E7, offset: 0x456E7, size: 0x8, addend: 0x0, symName: __ZNSt3__14pairIKiNS_12basic_stringIcNS_11char_traitsIcEENS_9allocatorIcEEEEEC1B7v160006IRNS0_IiS7_EELPv0EEEOT_, symObjAddr: 0x1CF48, symBinAddr: 0x100020228, symSize: 0x34 }
  - { offsetInCU: 0x4572F, offset: 0x4572F, size: 0x8, addend: 0x0, symName: __ZNSt3__14pairIKiNS_12basic_stringIcNS_11char_traitsIcEENS_9allocatorIcEEEEEC2B7v160006IRNS0_IiS7_EELPv0EEEOT_, symObjAddr: 0x1CF7C, symBinAddr: 0x10002025C, symSize: 0x58 }
  - { offsetInCU: 0x45777, offset: 0x45777, size: 0x8, addend: 0x0, symName: __ZNSt3__110__get_pairILm0EE3getB7v160006IiNS_12basic_stringIcNS_11char_traitsIcEENS_9allocatorIcEEEEEERT_RNS_4pairIS9_T0_EE, symObjAddr: 0x1D01C, symBinAddr: 0x1000202FC, symSize: 0x14 }
  - { offsetInCU: 0x457AD, offset: 0x457AD, size: 0x8, addend: 0x0, symName: __ZNSt3__110__get_pairILm1EE3getB7v160006IiNS_12basic_stringIcNS_11char_traitsIcEENS_9allocatorIcEEEEEERT0_RNS_4pairIT_S9_EE, symObjAddr: 0x1D030, symBinAddr: 0x100020310, symSize: 0x18 }
  - { offsetInCU: 0x457E3, offset: 0x457E3, size: 0x8, addend: 0x0, symName: __ZNSt3__14pairINS_14__map_iteratorINS_15__tree_iteratorINS_12__value_typeIiNS_12basic_stringIcNS_11char_traitsIcEENS_9allocatorIcEEEEEEPNS_11__tree_nodeISA_PvEElEEEEbEC2B7v160006ISF_bLSC_0EEEONS0_IT_T0_EE, symObjAddr: 0x1D048, symBinAddr: 0x100020328, symSize: 0x50 }
  - { offsetInCU: 0x45834, offset: 0x45834, size: 0x8, addend: 0x0, symName: __ZNSt3__114__map_iteratorINS_15__tree_iteratorINS_12__value_typeIiNS_12basic_stringIcNS_11char_traitsIcEENS_9allocatorIcEEEEEEPNS_11__tree_nodeIS9_PvEElEEEC1B7v160006ESE_, symObjAddr: 0x1D098, symBinAddr: 0x100020378, symSize: 0x34 }
  - { offsetInCU: 0x4586D, offset: 0x4586D, size: 0x8, addend: 0x0, symName: __ZNSt3__114__map_iteratorINS_15__tree_iteratorINS_12__value_typeIiNS_12basic_stringIcNS_11char_traitsIcEENS_9allocatorIcEEEEEEPNS_11__tree_nodeIS9_PvEElEEEC2B7v160006ESE_, symObjAddr: 0x1D0CC, symBinAddr: 0x1000203AC, symSize: 0x20 }
  - { offsetInCU: 0x458A6, offset: 0x458A6, size: 0x8, addend: 0x0, symName: __ZNSt3__18multisetI7LR1ItemNS_4lessIS1_EENS_9allocatorIS1_EEEC2B7v160006ERKS6_, symObjAddr: 0x1D0EC, symBinAddr: 0x1000203CC, symSize: 0xAC }
  - { offsetInCU: 0x458DF, offset: 0x458DF, size: 0x8, addend: 0x0, symName: __ZNKSt3__16__treeI7LR1ItemNS_4lessIS1_EENS_9allocatorIS1_EEE10value_compB7v160006Ev, symObjAddr: 0x1D198, symBinAddr: 0x100020478, symSize: 0x28 }
  - { offsetInCU: 0x4590F, offset: 0x4590F, size: 0x8, addend: 0x0, symName: __ZNSt3__116allocator_traitsINS_9allocatorI7LR1ItemEEE37select_on_container_copy_constructionB7v160006IS3_vvEES3_RKS3_, symObjAddr: 0x1D1C0, symBinAddr: 0x1000204A0, symSize: 0x10 }
  - { offsetInCU: 0x4593E, offset: 0x4593E, size: 0x8, addend: 0x0, symName: __ZNKSt3__16__treeI7LR1ItemNS_4lessIS1_EENS_9allocatorIS1_EEE7__allocB7v160006Ev, symObjAddr: 0x1D1D0, symBinAddr: 0x1000204B0, symSize: 0x30 }
  - { offsetInCU: 0x45964, offset: 0x45964, size: 0x8, addend: 0x0, symName: __ZNSt3__16__treeI7LR1ItemNS_4lessIS1_EENS_9allocatorIS1_EEEC1ERKS3_RKS5_, symObjAddr: 0x1D200, symBinAddr: 0x1000204E0, symSize: 0x3C }
  - { offsetInCU: 0x459AE, offset: 0x459AE, size: 0x8, addend: 0x0, symName: __ZNSt3__18multisetI7LR1ItemNS_4lessIS1_EENS_9allocatorIS1_EEE6insertB7v160006INS_21__tree_const_iteratorIS1_PNS_11__tree_nodeIS1_PvEElEEEEvT_SE_, symObjAddr: 0x1D23C, symBinAddr: 0x10002051C, symSize: 0x80 }
  - { offsetInCU: 0x45A18, offset: 0x45A18, size: 0x8, addend: 0x0, symName: __ZNKSt3__18multisetI7LR1ItemNS_4lessIS1_EENS_9allocatorIS1_EEE5beginB7v160006Ev, symObjAddr: 0x1D2BC, symBinAddr: 0x10002059C, symSize: 0x2C }
  - { offsetInCU: 0x45A3E, offset: 0x45A3E, size: 0x8, addend: 0x0, symName: __ZNKSt3__18multisetI7LR1ItemNS_4lessIS1_EENS_9allocatorIS1_EEE3endB7v160006Ev, symObjAddr: 0x1D2E8, symBinAddr: 0x1000205C8, symSize: 0x2C }
  - { offsetInCU: 0x45A64, offset: 0x45A64, size: 0x8, addend: 0x0, symName: __ZNSt3__16__treeI7LR1ItemNS_4lessIS1_EENS_9allocatorIS1_EEED1Ev, symObjAddr: 0x1D314, symBinAddr: 0x1000205F4, symSize: 0x2C }
  - { offsetInCU: 0x45A90, offset: 0x45A90, size: 0x8, addend: 0x0, symName: __ZNKSt3__117__compressed_pairImNS_4lessI7LR1ItemEEE6secondB7v160006Ev, symObjAddr: 0x1D340, symBinAddr: 0x100020620, symSize: 0x24 }
  - { offsetInCU: 0x45AB6, offset: 0x45AB6, size: 0x8, addend: 0x0, symName: __ZNKSt3__122__compressed_pair_elemINS_4lessI7LR1ItemEELi1ELb1EE5__getB7v160006Ev, symObjAddr: 0x1D364, symBinAddr: 0x100020644, symSize: 0x14 }
  - { offsetInCU: 0x45ADC, offset: 0x45ADC, size: 0x8, addend: 0x0, symName: __ZNKSt3__16__treeI7LR1ItemNS_4lessIS1_EENS_9allocatorIS1_EEE12__node_allocB7v160006Ev, symObjAddr: 0x1D378, symBinAddr: 0x100020658, symSize: 0x28 }
  - { offsetInCU: 0x45B02, offset: 0x45B02, size: 0x8, addend: 0x0, symName: __ZNSt3__19allocatorI7LR1ItemEC1B7v160006INS_11__tree_nodeIS1_PvEEEERKNS0_IT_EE, symObjAddr: 0x1D3A0, symBinAddr: 0x100020680, symSize: 0x34 }
  - { offsetInCU: 0x45B3F, offset: 0x45B3F, size: 0x8, addend: 0x0, symName: __ZNKSt3__117__compressed_pairINS_15__tree_end_nodeIPNS_16__tree_node_baseIPvEEEENS_9allocatorINS_11__tree_nodeI7LR1ItemS3_EEEEE6secondB7v160006Ev, symObjAddr: 0x1D3D4, symBinAddr: 0x1000206B4, symSize: 0x24 }
  - { offsetInCU: 0x45B65, offset: 0x45B65, size: 0x8, addend: 0x0, symName: __ZNKSt3__122__compressed_pair_elemINS_9allocatorINS_11__tree_nodeI7LR1ItemPvEEEELi1ELb1EE5__getB7v160006Ev, symObjAddr: 0x1D3F8, symBinAddr: 0x1000206D8, symSize: 0x14 }
  - { offsetInCU: 0x45B8B, offset: 0x45B8B, size: 0x8, addend: 0x0, symName: __ZNSt3__19allocatorI7LR1ItemEC2B7v160006INS_11__tree_nodeIS1_PvEEEERKNS0_IT_EE, symObjAddr: 0x1D40C, symBinAddr: 0x1000206EC, symSize: 0x30 }
  - { offsetInCU: 0x45BC8, offset: 0x45BC8, size: 0x8, addend: 0x0, symName: __ZNSt3__116__non_trivial_ifILb1ENS_9allocatorI7LR1ItemEEEC2B7v160006Ev, symObjAddr: 0x1D43C, symBinAddr: 0x10002071C, symSize: 0x14 }
  - { offsetInCU: 0x45BF2, offset: 0x45BF2, size: 0x8, addend: 0x0, symName: __ZNSt3__16__treeI7LR1ItemNS_4lessIS1_EENS_9allocatorIS1_EEEC2ERKS3_RKS5_, symObjAddr: 0x1D450, symBinAddr: 0x100020730, symSize: 0x94 }
  - { offsetInCU: 0x45C3C, offset: 0x45C3C, size: 0x8, addend: 0x0, symName: __ZNSt3__19allocatorINS_11__tree_nodeI7LR1ItemPvEEEC1B7v160006IS2_EERKNS0_IT_EE, symObjAddr: 0x1D4E4, symBinAddr: 0x1000207C4, symSize: 0x34 }
  - { offsetInCU: 0x45C7F, offset: 0x45C7F, size: 0x8, addend: 0x0, symName: __ZNSt3__117__compressed_pairINS_15__tree_end_nodeIPNS_16__tree_node_baseIPvEEEENS_9allocatorINS_11__tree_nodeI7LR1ItemS3_EEEEEC1B7v160006INS_18__default_init_tagESB_EEOT_OT0_, symObjAddr: 0x1D518, symBinAddr: 0x1000207F8, symSize: 0x3C }
  - { offsetInCU: 0x45CD7, offset: 0x45CD7, size: 0x8, addend: 0x0, symName: __ZNSt3__117__compressed_pairImNS_4lessI7LR1ItemEEEC1B7v160006IiRKS3_EEOT_OT0_, symObjAddr: 0x1D554, symBinAddr: 0x100020834, symSize: 0x3C }
  - { offsetInCU: 0x45D2F, offset: 0x45D2F, size: 0x8, addend: 0x0, symName: __ZNSt3__16__treeI7LR1ItemNS_4lessIS1_EENS_9allocatorIS1_EEE10__end_nodeB7v160006Ev, symObjAddr: 0x1D590, symBinAddr: 0x100020870, symSize: 0x2C }
  - { offsetInCU: 0x45D55, offset: 0x45D55, size: 0x8, addend: 0x0, symName: __ZNSt3__16__treeI7LR1ItemNS_4lessIS1_EENS_9allocatorIS1_EEE12__begin_nodeB7v160006Ev, symObjAddr: 0x1D5BC, symBinAddr: 0x10002089C, symSize: 0x14 }
  - { offsetInCU: 0x45D7B, offset: 0x45D7B, size: 0x8, addend: 0x0, symName: __ZNSt3__19allocatorINS_11__tree_nodeI7LR1ItemPvEEEC2B7v160006IS2_EERKNS0_IT_EE, symObjAddr: 0x1D5D0, symBinAddr: 0x1000208B0, symSize: 0x30 }
  - { offsetInCU: 0x45DB8, offset: 0x45DB8, size: 0x8, addend: 0x0, symName: __ZNSt3__116__non_trivial_ifILb1ENS_9allocatorINS_11__tree_nodeI7LR1ItemPvEEEEEC2B7v160006Ev, symObjAddr: 0x1D600, symBinAddr: 0x1000208E0, symSize: 0x14 }
  - { offsetInCU: 0x45DE2, offset: 0x45DE2, size: 0x8, addend: 0x0, symName: __ZNSt3__117__compressed_pairINS_15__tree_end_nodeIPNS_16__tree_node_baseIPvEEEENS_9allocatorINS_11__tree_nodeI7LR1ItemS3_EEEEEC2B7v160006INS_18__default_init_tagESB_EEOT_OT0_, symObjAddr: 0x1D614, symBinAddr: 0x1000208F4, symSize: 0x40 }
  - { offsetInCU: 0x45E3A, offset: 0x45E3A, size: 0x8, addend: 0x0, symName: __ZNSt3__122__compressed_pair_elemINS_9allocatorINS_11__tree_nodeI7LR1ItemPvEEEELi1ELb1EEC2B7v160006IS6_vEEOT_, symObjAddr: 0x1D654, symBinAddr: 0x100020934, symSize: 0x18 }
  - { offsetInCU: 0x45E7C, offset: 0x45E7C, size: 0x8, addend: 0x0, symName: __ZNSt3__117__compressed_pairImNS_4lessI7LR1ItemEEEC2B7v160006IiRKS3_EEOT_OT0_, symObjAddr: 0x1D66C, symBinAddr: 0x10002094C, symSize: 0x44 }
  - { offsetInCU: 0x45ED4, offset: 0x45ED4, size: 0x8, addend: 0x0, symName: __ZNSt3__122__compressed_pair_elemINS_4lessI7LR1ItemEELi1ELb1EEC2B7v160006IRKS3_vEEOT_, symObjAddr: 0x1D6B0, symBinAddr: 0x100020990, symSize: 0x18 }
  - { offsetInCU: 0x45F16, offset: 0x45F16, size: 0x8, addend: 0x0, symName: __ZNSt3__117__compressed_pairINS_15__tree_end_nodeIPNS_16__tree_node_baseIPvEEEENS_9allocatorINS_11__tree_nodeI7LR1ItemS3_EEEEE5firstB7v160006Ev, symObjAddr: 0x1D6C8, symBinAddr: 0x1000209A8, symSize: 0x24 }
  - { offsetInCU: 0x45F3C, offset: 0x45F3C, size: 0x8, addend: 0x0, symName: __ZNKSt3__18multisetI7LR1ItemNS_4lessIS1_EENS_9allocatorIS1_EEE4cendB7v160006Ev, symObjAddr: 0x1D6EC, symBinAddr: 0x1000209CC, symSize: 0x2C }
  - { offsetInCU: 0x45F62, offset: 0x45F62, size: 0x8, addend: 0x0, symName: __ZNSt3__16__treeI7LR1ItemNS_4lessIS1_EENS_9allocatorIS1_EEE14__insert_multiB7v160006IRKS1_EENS_15__tree_iteratorIS1_PNS_11__tree_nodeIS1_PvEElEENS_21__tree_const_iteratorIS1_SE_lEEOT_, symObjAddr: 0x1D718, symBinAddr: 0x1000209F8, symSize: 0x44 }
  - { offsetInCU: 0x45FAF, offset: 0x45FAF, size: 0x8, addend: 0x0, symName: __ZNSt3__16__treeI7LR1ItemNS_4lessIS1_EENS_9allocatorIS1_EEE20__emplace_hint_multiIJRKS1_EEENS_15__tree_iteratorIS1_PNS_11__tree_nodeIS1_PvEElEENS_21__tree_const_iteratorIS1_SE_lEEDpOT_, symObjAddr: 0x1D75C, symBinAddr: 0x100020A3C, symSize: 0xF0 }
  - { offsetInCU: 0x4602E, offset: 0x4602E, size: 0x8, addend: 0x0, symName: __ZNSt3__16__treeI7LR1ItemNS_4lessIS1_EENS_9allocatorIS1_EEE16__construct_nodeIJRKS1_EEENS_10unique_ptrINS_11__tree_nodeIS1_PvEENS_22__tree_node_destructorINS4_ISD_EEEEEEDpOT_, symObjAddr: 0x1D84C, symBinAddr: 0x100020B2C, symSize: 0x110 }
  - { offsetInCU: 0x4608F, offset: 0x4608F, size: 0x8, addend: 0x0, symName: __ZNSt3__16__treeI7LR1ItemNS_4lessIS1_EENS_9allocatorIS1_EEE11__find_leafENS_21__tree_const_iteratorIS1_PNS_11__tree_nodeIS1_PvEElEERPNS_15__tree_end_nodeIPNS_16__tree_node_baseIS9_EEEERKS1_, symObjAddr: 0x1D95C, symBinAddr: 0x100020C3C, symSize: 0x1BC }
  - { offsetInCU: 0x46101, offset: 0x46101, size: 0x8, addend: 0x0, symName: __ZNSt3__122__tree_key_value_typesI7LR1ItemE9__get_keyB7v160006ERKS1_, symObjAddr: 0x1DB18, symBinAddr: 0x100020DF8, symSize: 0x14 }
  - { offsetInCU: 0x46125, offset: 0x46125, size: 0x8, addend: 0x0, symName: __ZNKSt3__110unique_ptrINS_11__tree_nodeI7LR1ItemPvEENS_22__tree_node_destructorINS_9allocatorIS4_EEEEEptB7v160006Ev, symObjAddr: 0x1DB2C, symBinAddr: 0x100020E0C, symSize: 0x28 }
  - { offsetInCU: 0x4614B, offset: 0x4614B, size: 0x8, addend: 0x0, symName: __ZNSt3__16__treeI7LR1ItemNS_4lessIS1_EENS_9allocatorIS1_EEE16__insert_node_atEPNS_15__tree_end_nodeIPNS_16__tree_node_baseIPvEEEERSB_SB_, symObjAddr: 0x1DB54, symBinAddr: 0x100020E34, symSize: 0xCC }
  - { offsetInCU: 0x461A0, offset: 0x461A0, size: 0x8, addend: 0x0, symName: __ZNKSt3__110unique_ptrINS_11__tree_nodeI7LR1ItemPvEENS_22__tree_node_destructorINS_9allocatorIS4_EEEEE3getB7v160006Ev, symObjAddr: 0x1DC20, symBinAddr: 0x100020F00, symSize: 0x28 }
  - { offsetInCU: 0x461C6, offset: 0x461C6, size: 0x8, addend: 0x0, symName: __ZNSt3__110unique_ptrINS_11__tree_nodeI7LR1ItemPvEENS_22__tree_node_destructorINS_9allocatorIS4_EEEEE7releaseB7v160006Ev, symObjAddr: 0x1DC48, symBinAddr: 0x100020F28, symSize: 0x44 }
  - { offsetInCU: 0x461FB, offset: 0x461FB, size: 0x8, addend: 0x0, symName: __ZNSt3__115__tree_iteratorI7LR1ItemPNS_11__tree_nodeIS1_PvEElEC1B7v160006ES5_, symObjAddr: 0x1DC8C, symBinAddr: 0x100020F6C, symSize: 0x34 }
  - { offsetInCU: 0x46234, offset: 0x46234, size: 0x8, addend: 0x0, symName: __ZNSt3__110unique_ptrINS_11__tree_nodeI7LR1ItemPvEENS_22__tree_node_destructorINS_9allocatorIS4_EEEEED1B7v160006Ev, symObjAddr: 0x1DCC0, symBinAddr: 0x100020FA0, symSize: 0x2C }
  - { offsetInCU: 0x4625E, offset: 0x4625E, size: 0x8, addend: 0x0, symName: __ZNSt3__16__treeI7LR1ItemNS_4lessIS1_EENS_9allocatorIS1_EEE12__node_allocB7v160006Ev, symObjAddr: 0x1DCEC, symBinAddr: 0x100020FCC, symSize: 0x28 }
  - { offsetInCU: 0x46284, offset: 0x46284, size: 0x8, addend: 0x0, symName: __ZNSt3__116allocator_traitsINS_9allocatorINS_11__tree_nodeI7LR1ItemPvEEEEE8allocateB7v160006ERS6_m, symObjAddr: 0x1DD14, symBinAddr: 0x100020FF4, symSize: 0x2C }
  - { offsetInCU: 0x462B7, offset: 0x462B7, size: 0x8, addend: 0x0, symName: __ZNSt3__122__tree_node_destructorINS_9allocatorINS_11__tree_nodeI7LR1ItemPvEEEEEC1B7v160006ERS6_b, symObjAddr: 0x1DD40, symBinAddr: 0x100021020, symSize: 0x48 }
  - { offsetInCU: 0x46305, offset: 0x46305, size: 0x8, addend: 0x0, symName: __ZNSt3__110unique_ptrINS_11__tree_nodeI7LR1ItemPvEENS_22__tree_node_destructorINS_9allocatorIS4_EEEEEC1B7v160006ILb1EvEEPS4_NS_16__dependent_typeINS_27__unique_ptr_deleter_sfinaeIS8_EEXT_EE20__good_rval_ref_typeE, symObjAddr: 0x1DD88, symBinAddr: 0x100021068, symSize: 0x3C }
  - { offsetInCU: 0x46356, offset: 0x46356, size: 0x8, addend: 0x0, symName: __ZNSt3__116allocator_traitsINS_9allocatorINS_11__tree_nodeI7LR1ItemPvEEEEE9constructB7v160006IS3_JRKS3_EvEEvRS6_PT_DpOT0_, symObjAddr: 0x1DDC4, symBinAddr: 0x1000210A4, symSize: 0x34 }
  - { offsetInCU: 0x463AD, offset: 0x463AD, size: 0x8, addend: 0x0, symName: __ZNSt3__122__tree_key_value_typesI7LR1ItemE9__get_ptrB7v160006ERS1_, symObjAddr: 0x1DDF8, symBinAddr: 0x1000210D8, symSize: 0x14 }
  - { offsetInCU: 0x463D1, offset: 0x463D1, size: 0x8, addend: 0x0, symName: __ZNSt3__110unique_ptrINS_11__tree_nodeI7LR1ItemPvEENS_22__tree_node_destructorINS_9allocatorIS4_EEEEE11get_deleterB7v160006Ev, symObjAddr: 0x1DE0C, symBinAddr: 0x1000210EC, symSize: 0x24 }
  - { offsetInCU: 0x463F7, offset: 0x463F7, size: 0x8, addend: 0x0, symName: __ZNSt3__117__compressed_pairINS_15__tree_end_nodeIPNS_16__tree_node_baseIPvEEEENS_9allocatorINS_11__tree_nodeI7LR1ItemS3_EEEEE6secondB7v160006Ev, symObjAddr: 0x1DE30, symBinAddr: 0x100021110, symSize: 0x24 }
  - { offsetInCU: 0x4641D, offset: 0x4641D, size: 0x8, addend: 0x0, symName: __ZNSt3__122__compressed_pair_elemINS_9allocatorINS_11__tree_nodeI7LR1ItemPvEEEELi1ELb1EE5__getB7v160006Ev, symObjAddr: 0x1DE54, symBinAddr: 0x100021134, symSize: 0x14 }
  - { offsetInCU: 0x46443, offset: 0x46443, size: 0x8, addend: 0x0, symName: __ZNSt3__19allocatorINS_11__tree_nodeI7LR1ItemPvEEE8allocateB7v160006Em, symObjAddr: 0x1DE68, symBinAddr: 0x100021148, symSize: 0x58 }
  - { offsetInCU: 0x46481, offset: 0x46481, size: 0x8, addend: 0x0, symName: __ZNSt3__116allocator_traitsINS_9allocatorINS_11__tree_nodeI7LR1ItemPvEEEEE8max_sizeB7v160006IS6_vEEmRKS6_, symObjAddr: 0x1DEC0, symBinAddr: 0x1000211A0, symSize: 0x24 }
  - { offsetInCU: 0x464AF, offset: 0x464AF, size: 0x8, addend: 0x0, symName: __ZNKSt3__19allocatorINS_11__tree_nodeI7LR1ItemPvEEE8max_sizeB7v160006Ev, symObjAddr: 0x1DEE4, symBinAddr: 0x1000211C4, symSize: 0x14 }
  - { offsetInCU: 0x464D5, offset: 0x464D5, size: 0x8, addend: 0x0, symName: __ZNSt3__122__tree_node_destructorINS_9allocatorINS_11__tree_nodeI7LR1ItemPvEEEEEC2B7v160006ERS6_b, symObjAddr: 0x1DEF8, symBinAddr: 0x1000211D8, symSize: 0x38 }
  - { offsetInCU: 0x4651D, offset: 0x4651D, size: 0x8, addend: 0x0, symName: __ZNSt3__110unique_ptrINS_11__tree_nodeI7LR1ItemPvEENS_22__tree_node_destructorINS_9allocatorIS4_EEEEEC2B7v160006ILb1EvEEPS4_NS_16__dependent_typeINS_27__unique_ptr_deleter_sfinaeIS8_EEXT_EE20__good_rval_ref_typeE, symObjAddr: 0x1DF30, symBinAddr: 0x100021210, symSize: 0x48 }
  - { offsetInCU: 0x4656E, offset: 0x4656E, size: 0x8, addend: 0x0, symName: __ZNSt3__117__compressed_pairIPNS_11__tree_nodeI7LR1ItemPvEENS_22__tree_node_destructorINS_9allocatorIS4_EEEEEC1B7v160006IRS5_S9_EEOT_OT0_, symObjAddr: 0x1DF78, symBinAddr: 0x100021258, symSize: 0x3C }
  - { offsetInCU: 0x465C6, offset: 0x465C6, size: 0x8, addend: 0x0, symName: __ZNSt3__117__compressed_pairIPNS_11__tree_nodeI7LR1ItemPvEENS_22__tree_node_destructorINS_9allocatorIS4_EEEEEC2B7v160006IRS5_S9_EEOT_OT0_, symObjAddr: 0x1DFB4, symBinAddr: 0x100021294, symSize: 0x48 }
  - { offsetInCU: 0x4661E, offset: 0x4661E, size: 0x8, addend: 0x0, symName: __ZNSt3__122__compressed_pair_elemIPNS_11__tree_nodeI7LR1ItemPvEELi0ELb0EEC2B7v160006IRS5_vEEOT_, symObjAddr: 0x1DFFC, symBinAddr: 0x1000212DC, symSize: 0x24 }
  - { offsetInCU: 0x46660, offset: 0x46660, size: 0x8, addend: 0x0, symName: __ZNSt3__122__compressed_pair_elemINS_22__tree_node_destructorINS_9allocatorINS_11__tree_nodeI7LR1ItemPvEEEEEELi1ELb0EEC2B7v160006IS8_vEEOT_, symObjAddr: 0x1E020, symBinAddr: 0x100021300, symSize: 0x24 }
  - { offsetInCU: 0x466A2, offset: 0x466A2, size: 0x8, addend: 0x0, symName: __ZNSt3__19allocatorINS_11__tree_nodeI7LR1ItemPvEEE9constructB7v160006IS2_JRKS2_EEEvPT_DpOT0_, symObjAddr: 0x1E044, symBinAddr: 0x100021324, symSize: 0x30 }
  - { offsetInCU: 0x466F8, offset: 0x466F8, size: 0x8, addend: 0x0, symName: __ZNSt3__117__compressed_pairIPNS_11__tree_nodeI7LR1ItemPvEENS_22__tree_node_destructorINS_9allocatorIS4_EEEEE6secondB7v160006Ev, symObjAddr: 0x1E074, symBinAddr: 0x100021354, symSize: 0x28 }
  - { offsetInCU: 0x4671E, offset: 0x4671E, size: 0x8, addend: 0x0, symName: __ZNSt3__122__compressed_pair_elemINS_22__tree_node_destructorINS_9allocatorINS_11__tree_nodeI7LR1ItemPvEEEEEELi1ELb0EE5__getB7v160006Ev, symObjAddr: 0x1E09C, symBinAddr: 0x10002137C, symSize: 0x14 }
  - { offsetInCU: 0x46744, offset: 0x46744, size: 0x8, addend: 0x0, symName: __ZNSt3__16__treeI7LR1ItemNS_4lessIS1_EENS_9allocatorIS1_EEE3endB7v160006Ev, symObjAddr: 0x1E0E0, symBinAddr: 0x1000213C0, symSize: 0x34 }
  - { offsetInCU: 0x4676A, offset: 0x4676A, size: 0x8, addend: 0x0, symName: __ZNSt3__121__tree_const_iteratorI7LR1ItemPNS_11__tree_nodeIS1_PvEElEC1B7v160006ENS_15__tree_iteratorIS1_S5_lEE, symObjAddr: 0x1E114, symBinAddr: 0x1000213F4, symSize: 0x34 }
  - { offsetInCU: 0x467A3, offset: 0x467A3, size: 0x8, addend: 0x0, symName: __ZNSt3__16__treeI7LR1ItemNS_4lessIS1_EENS_9allocatorIS1_EEE10value_compB7v160006Ev, symObjAddr: 0x1E148, symBinAddr: 0x100021428, symSize: 0x28 }
  - { offsetInCU: 0x467C9, offset: 0x467C9, size: 0x8, addend: 0x0, symName: __ZNKSt3__14lessI7LR1ItemEclB7v160006ERKS1_S4_, symObjAddr: 0x1E170, symBinAddr: 0x100021450, symSize: 0x34 }
  - { offsetInCU: 0x4680D, offset: 0x4680D, size: 0x8, addend: 0x0, symName: __ZNSt3__16__treeI7LR1ItemNS_4lessIS1_EENS_9allocatorIS1_EEE5beginB7v160006Ev, symObjAddr: 0x1E1A4, symBinAddr: 0x100021484, symSize: 0x34 }
  - { offsetInCU: 0x46833, offset: 0x46833, size: 0x8, addend: 0x0, symName: __ZNSt3__121__tree_const_iteratorI7LR1ItemPNS_11__tree_nodeIS1_PvEElEmmB7v160006Ev, symObjAddr: 0x1E1D8, symBinAddr: 0x1000214B8, symSize: 0x38 }
  - { offsetInCU: 0x46859, offset: 0x46859, size: 0x8, addend: 0x0, symName: __ZNSt3__16__treeI7LR1ItemNS_4lessIS1_EENS_9allocatorIS1_EEE16__find_leaf_highERPNS_15__tree_end_nodeIPNS_16__tree_node_baseIPvEEEERKS1_, symObjAddr: 0x1E210, symBinAddr: 0x1000214F0, symSize: 0x124 }
  - { offsetInCU: 0x468AE, offset: 0x468AE, size: 0x8, addend: 0x0, symName: __ZNSt3__16__treeI7LR1ItemNS_4lessIS1_EENS_9allocatorIS1_EEE15__find_leaf_lowERPNS_15__tree_end_nodeIPNS_16__tree_node_baseIPvEEEERKS1_, symObjAddr: 0x1E334, symBinAddr: 0x100021614, symSize: 0x124 }
  - { offsetInCU: 0x46903, offset: 0x46903, size: 0x8, addend: 0x0, symName: __ZNSt3__115__tree_iteratorI7LR1ItemPNS_11__tree_nodeIS1_PvEElEC1B7v160006EPNS_15__tree_end_nodeIPNS_16__tree_node_baseIS3_EEEE, symObjAddr: 0x1E458, symBinAddr: 0x100021738, symSize: 0x34 }
  - { offsetInCU: 0x4693C, offset: 0x4693C, size: 0x8, addend: 0x0, symName: __ZNSt3__115__tree_iteratorI7LR1ItemPNS_11__tree_nodeIS1_PvEElEC2B7v160006EPNS_15__tree_end_nodeIPNS_16__tree_node_baseIS3_EEEE, symObjAddr: 0x1E48C, symBinAddr: 0x10002176C, symSize: 0x20 }
  - { offsetInCU: 0x46975, offset: 0x46975, size: 0x8, addend: 0x0, symName: __ZNSt3__121__tree_const_iteratorI7LR1ItemPNS_11__tree_nodeIS1_PvEElEC2B7v160006ENS_15__tree_iteratorIS1_S5_lEE, symObjAddr: 0x1E4AC, symBinAddr: 0x10002178C, symSize: 0x20 }
  - { offsetInCU: 0x469AE, offset: 0x469AE, size: 0x8, addend: 0x0, symName: __ZNSt3__117__compressed_pairImNS_4lessI7LR1ItemEEE6secondB7v160006Ev, symObjAddr: 0x1E4CC, symBinAddr: 0x1000217AC, symSize: 0x24 }
  - { offsetInCU: 0x469D4, offset: 0x469D4, size: 0x8, addend: 0x0, symName: __ZNSt3__122__compressed_pair_elemINS_4lessI7LR1ItemEELi1ELb1EE5__getB7v160006Ev, symObjAddr: 0x1E4F0, symBinAddr: 0x1000217D0, symSize: 0x14 }
  - { offsetInCU: 0x469FA, offset: 0x469FA, size: 0x8, addend: 0x0, symName: __ZNKSt3__16__treeI7LR1ItemNS_4lessIS1_EENS_9allocatorIS1_EEE6__rootB7v160006Ev, symObjAddr: 0x1E504, symBinAddr: 0x1000217E4, symSize: 0x28 }
  - { offsetInCU: 0x46A20, offset: 0x46A20, size: 0x8, addend: 0x0, symName: __ZNKSt3__16__treeI7LR1ItemNS_4lessIS1_EENS_9allocatorIS1_EEE10__end_nodeB7v160006Ev, symObjAddr: 0x1E52C, symBinAddr: 0x10002180C, symSize: 0x2C }
  - { offsetInCU: 0x46A46, offset: 0x46A46, size: 0x8, addend: 0x0, symName: __ZNKSt3__117__compressed_pairINS_15__tree_end_nodeIPNS_16__tree_node_baseIPvEEEENS_9allocatorINS_11__tree_nodeI7LR1ItemS3_EEEEE5firstB7v160006Ev, symObjAddr: 0x1E558, symBinAddr: 0x100021838, symSize: 0x24 }
  - { offsetInCU: 0x46A6C, offset: 0x46A6C, size: 0x8, addend: 0x0, symName: __ZNKSt3__117__compressed_pairIPNS_11__tree_nodeI7LR1ItemPvEENS_22__tree_node_destructorINS_9allocatorIS4_EEEEE5firstB7v160006Ev, symObjAddr: 0x1E57C, symBinAddr: 0x10002185C, symSize: 0x24 }
  - { offsetInCU: 0x46A92, offset: 0x46A92, size: 0x8, addend: 0x0, symName: __ZNKSt3__122__compressed_pair_elemIPNS_11__tree_nodeI7LR1ItemPvEELi0ELb0EE5__getB7v160006Ev, symObjAddr: 0x1E5A0, symBinAddr: 0x100021880, symSize: 0x14 }
  - { offsetInCU: 0x46AB8, offset: 0x46AB8, size: 0x8, addend: 0x0, symName: __ZNSt3__16__treeI7LR1ItemNS_4lessIS1_EENS_9allocatorIS1_EEE4sizeB7v160006Ev, symObjAddr: 0x1E5B4, symBinAddr: 0x100021894, symSize: 0x28 }
  - { offsetInCU: 0x46ADE, offset: 0x46ADE, size: 0x8, addend: 0x0, symName: __ZNSt3__117__compressed_pairImNS_4lessI7LR1ItemEEE5firstB7v160006Ev, symObjAddr: 0x1E5DC, symBinAddr: 0x1000218BC, symSize: 0x24 }
  - { offsetInCU: 0x46B04, offset: 0x46B04, size: 0x8, addend: 0x0, symName: __ZNSt3__117__compressed_pairIPNS_11__tree_nodeI7LR1ItemPvEENS_22__tree_node_destructorINS_9allocatorIS4_EEEEE5firstB7v160006Ev, symObjAddr: 0x1E600, symBinAddr: 0x1000218E0, symSize: 0x24 }
  - { offsetInCU: 0x46B2A, offset: 0x46B2A, size: 0x8, addend: 0x0, symName: __ZNSt3__122__compressed_pair_elemIPNS_11__tree_nodeI7LR1ItemPvEELi0ELb0EE5__getB7v160006Ev, symObjAddr: 0x1E624, symBinAddr: 0x100021904, symSize: 0x14 }
  - { offsetInCU: 0x46B50, offset: 0x46B50, size: 0x8, addend: 0x0, symName: __ZNSt3__115__tree_iteratorI7LR1ItemPNS_11__tree_nodeIS1_PvEElEC2B7v160006ES5_, symObjAddr: 0x1E638, symBinAddr: 0x100021918, symSize: 0x20 }
  - { offsetInCU: 0x46B89, offset: 0x46B89, size: 0x8, addend: 0x0, symName: __ZNSt3__110unique_ptrINS_11__tree_nodeI7LR1ItemPvEENS_22__tree_node_destructorINS_9allocatorIS4_EEEEED2B7v160006Ev, symObjAddr: 0x1E658, symBinAddr: 0x100021938, symSize: 0x30 }
  - { offsetInCU: 0x46BB3, offset: 0x46BB3, size: 0x8, addend: 0x0, symName: __ZNSt3__110unique_ptrINS_11__tree_nodeI7LR1ItemPvEENS_22__tree_node_destructorINS_9allocatorIS4_EEEEE5resetB7v160006EPS4_, symObjAddr: 0x1E688, symBinAddr: 0x100021968, symSize: 0x78 }
  - { offsetInCU: 0x46BF7, offset: 0x46BF7, size: 0x8, addend: 0x0, symName: __ZNSt3__122__tree_node_destructorINS_9allocatorINS_11__tree_nodeI7LR1ItemPvEEEEEclB7v160006EPS5_, symObjAddr: 0x1E700, symBinAddr: 0x1000219E0, symSize: 0x90 }
  - { offsetInCU: 0x46C2C, offset: 0x46C2C, size: 0x8, addend: 0x0, symName: __ZNSt3__116allocator_traitsINS_9allocatorINS_11__tree_nodeI7LR1ItemPvEEEEE7destroyB7v160006IS3_vvEEvRS6_PT_, symObjAddr: 0x1E790, symBinAddr: 0x100021A70, symSize: 0x28 }
  - { offsetInCU: 0x46C66, offset: 0x46C66, size: 0x8, addend: 0x0, symName: __ZNSt3__116allocator_traitsINS_9allocatorINS_11__tree_nodeI7LR1ItemPvEEEEE10deallocateB7v160006ERS6_PS5_m, symObjAddr: 0x1E7B8, symBinAddr: 0x100021A98, symSize: 0x34 }
  - { offsetInCU: 0x46CA8, offset: 0x46CA8, size: 0x8, addend: 0x0, symName: __ZNSt3__19allocatorINS_11__tree_nodeI7LR1ItemPvEEE10deallocateB7v160006EPS4_m, symObjAddr: 0x1E7EC, symBinAddr: 0x100021ACC, symSize: 0x40 }
  - { offsetInCU: 0x46CEA, offset: 0x46CEA, size: 0x8, addend: 0x0, symName: __ZNKSt3__16__treeI7LR1ItemNS_4lessIS1_EENS_9allocatorIS1_EEE5beginB7v160006Ev, symObjAddr: 0x1E82C, symBinAddr: 0x100021B0C, symSize: 0x34 }
  - { offsetInCU: 0x46D10, offset: 0x46D10, size: 0x8, addend: 0x0, symName: __ZNKSt3__16__treeI7LR1ItemNS_4lessIS1_EENS_9allocatorIS1_EEE12__begin_nodeB7v160006Ev, symObjAddr: 0x1E860, symBinAddr: 0x100021B40, symSize: 0x14 }
  - { offsetInCU: 0x46D36, offset: 0x46D36, size: 0x8, addend: 0x0, symName: __ZNSt3__121__tree_const_iteratorI7LR1ItemPNS_11__tree_nodeIS1_PvEElEC1B7v160006EPNS_15__tree_end_nodeIPNS_16__tree_node_baseIS3_EEEE, symObjAddr: 0x1E874, symBinAddr: 0x100021B54, symSize: 0x34 }
  - { offsetInCU: 0x46D6F, offset: 0x46D6F, size: 0x8, addend: 0x0, symName: __ZNSt3__121__tree_const_iteratorI7LR1ItemPNS_11__tree_nodeIS1_PvEElEC2B7v160006EPNS_15__tree_end_nodeIPNS_16__tree_node_baseIS3_EEEE, symObjAddr: 0x1E8A8, symBinAddr: 0x100021B88, symSize: 0x20 }
  - { offsetInCU: 0x46DA8, offset: 0x46DA8, size: 0x8, addend: 0x0, symName: __ZNKSt3__16__treeI7LR1ItemNS_4lessIS1_EENS_9allocatorIS1_EEE3endB7v160006Ev, symObjAddr: 0x1E8C8, symBinAddr: 0x100021BA8, symSize: 0x34 }
  - { offsetInCU: 0x46DCE, offset: 0x46DCE, size: 0x8, addend: 0x0, symName: __ZNSt3__16__treeI7LR1ItemNS_4lessIS1_EENS_9allocatorIS1_EEED2Ev, symObjAddr: 0x1E8FC, symBinAddr: 0x100021BDC, symSize: 0x38 }
  - { offsetInCU: 0x46DFA, offset: 0x46DFA, size: 0x8, addend: 0x0, symName: __ZNSt3__16__treeI7LR1ItemNS_4lessIS1_EENS_9allocatorIS1_EEE7destroyEPNS_11__tree_nodeIS1_PvEE, symObjAddr: 0x1E934, symBinAddr: 0x100021C14, symSize: 0x9C }
  - { offsetInCU: 0x46E4E, offset: 0x46E4E, size: 0x8, addend: 0x0, symName: __ZNSt3__18multisetI7LR1ItemNS_4lessIS1_EENS_9allocatorIS1_EEED2B7v160006Ev, symObjAddr: 0x1E9D0, symBinAddr: 0x100021CB0, symSize: 0x2C }
  - { offsetInCU: 0x46E78, offset: 0x46E78, size: 0x8, addend: 0x0, symName: __ZNKSt3__16__treeI7LR1ItemNS_4lessIS1_EENS_9allocatorIS1_EEE4sizeB7v160006Ev, symObjAddr: 0x1E9FC, symBinAddr: 0x100021CDC, symSize: 0x28 }
  - { offsetInCU: 0x46E9E, offset: 0x46E9E, size: 0x8, addend: 0x0, symName: __ZNKSt3__117__compressed_pairImNS_4lessI7LR1ItemEEE5firstB7v160006Ev, symObjAddr: 0x1EA24, symBinAddr: 0x100021D04, symSize: 0x24 }
  - { offsetInCU: 0x46EC4, offset: 0x46EC4, size: 0x8, addend: 0x0, symName: __ZNKSt3__121__tree_const_iteratorI7LR1ItemPNS_11__tree_nodeIS1_PvEElE8__get_npB7v160006Ev, symObjAddr: 0x1EA48, symBinAddr: 0x100021D28, symSize: 0x18 }
  - { offsetInCU: 0x46EEA, offset: 0x46EEA, size: 0x8, addend: 0x0, symName: __ZNSt3__16vectorIiNS_9allocatorIiEEEC2ERKS3_, symObjAddr: 0x1EA60, symBinAddr: 0x100021D40, symSize: 0x110 }
  - { offsetInCU: 0x46F49, offset: 0x46F49, size: 0x8, addend: 0x0, symName: __ZNSt3__116allocator_traitsINS_9allocatorIiEEE37select_on_container_copy_constructionB7v160006IS2_vvEES2_RKS2_, symObjAddr: 0x1EB70, symBinAddr: 0x100021E50, symSize: 0x10 }
  - { offsetInCU: 0x46F78, offset: 0x46F78, size: 0x8, addend: 0x0, symName: __ZNSt3__128__exception_guard_exceptionsINS_6vectorIiNS_9allocatorIiEEE16__destroy_vectorEE10__completeB7v160006Ev, symObjAddr: 0x1EBC0, symBinAddr: 0x100021EA0, symSize: 0x1C }
  - { offsetInCU: 0x46F9E, offset: 0x46F9E, size: 0x8, addend: 0x0, symName: __ZNSt3__128__exception_guard_exceptionsINS_6vectorIiNS_9allocatorIiEEE16__destroy_vectorEED1B7v160006Ev, symObjAddr: 0x1EBDC, symBinAddr: 0x100021EBC, symSize: 0x2C }
  - { offsetInCU: 0x46FC8, offset: 0x46FC8, size: 0x8, addend: 0x0, symName: __ZNSt3__128__exception_guard_exceptionsINS_6vectorIiNS_9allocatorIiEEE16__destroy_vectorEEC1B7v160006ES5_, symObjAddr: 0x1EC08, symBinAddr: 0x100021EE8, symSize: 0x34 }
  - { offsetInCU: 0x47000, offset: 0x47000, size: 0x8, addend: 0x0, symName: __ZNSt3__128__exception_guard_exceptionsINS_6vectorIiNS_9allocatorIiEEE16__destroy_vectorEEC2B7v160006ES5_, symObjAddr: 0x1EC3C, symBinAddr: 0x100021F1C, symSize: 0x24 }
  - { offsetInCU: 0x47038, offset: 0x47038, size: 0x8, addend: 0x0, symName: __ZNSt3__128__exception_guard_exceptionsINS_6vectorIiNS_9allocatorIiEEE16__destroy_vectorEED2B7v160006Ev, symObjAddr: 0x1EC60, symBinAddr: 0x100021F40, symSize: 0x50 }
  - { offsetInCU: 0x47062, offset: 0x47062, size: 0x8, addend: 0x0, symName: __ZNSt3__16__treeINS_12__value_typeIiiEENS_19__map_value_compareIiS2_NS_4lessIiEELb1EEENS_9allocatorIS2_EEE4findIiEENS_15__tree_iteratorIS2_PNS_11__tree_nodeIS2_PvEElEERKT_, symObjAddr: 0x1ECB0, symBinAddr: 0x100021F90, symSize: 0xF8 }
  - { offsetInCU: 0x470B1, offset: 0x470B1, size: 0x8, addend: 0x0, symName: __ZNSt3__16__treeINS_12__value_typeIiiEENS_19__map_value_compareIiS2_NS_4lessIiEELb1EEENS_9allocatorIS2_EEE13__lower_boundIiEENS_15__tree_iteratorIS2_PNS_11__tree_nodeIS2_PvEElEERKT_SF_PNS_15__tree_end_nodeIPNS_16__tree_node_baseISD_EEEE, symObjAddr: 0x1EDA8, symBinAddr: 0x100022088, symSize: 0xA4 }
  - { offsetInCU: 0x4710F, offset: 0x4710F, size: 0x8, addend: 0x0, symName: __ZNSt3__16__treeINS_12__value_typeIiiEENS_19__map_value_compareIiS2_NS_4lessIiEELb1EEENS_9allocatorIS2_EEE3endB7v160006Ev, symObjAddr: 0x1EE80, symBinAddr: 0x100022160, symSize: 0x34 }
  - { offsetInCU: 0x47135, offset: 0x47135, size: 0x8, addend: 0x0, symName: __ZNKSt3__115__tree_iteratorINS_12__value_typeIiiEEPNS_11__tree_nodeIS2_PvEElEdeB7v160006Ev, symObjAddr: 0x1EEB4, symBinAddr: 0x100022194, symSize: 0x28 }
  - { offsetInCU: 0x4715B, offset: 0x4715B, size: 0x8, addend: 0x0, symName: __ZNSt3__115__tree_iteratorINS_12__value_typeIiiEEPNS_11__tree_nodeIS2_PvEElEC1B7v160006EPNS_15__tree_end_nodeIPNS_16__tree_node_baseIS4_EEEE, symObjAddr: 0x1EEDC, symBinAddr: 0x1000221BC, symSize: 0x34 }
  - { offsetInCU: 0x47194, offset: 0x47194, size: 0x8, addend: 0x0, symName: __ZNSt3__115__tree_iteratorINS_12__value_typeIiiEEPNS_11__tree_nodeIS2_PvEElEC2B7v160006EPNS_15__tree_end_nodeIPNS_16__tree_node_baseIS4_EEEE, symObjAddr: 0x1EF10, symBinAddr: 0x1000221F0, symSize: 0x20 }
  - { offsetInCU: 0x471CD, offset: 0x471CD, size: 0x8, addend: 0x0, symName: __ZNSt3__16__treeIiNS_4lessIiEENS_9allocatorIiEEE4findIiEENS_15__tree_iteratorIiPNS_11__tree_nodeIiPvEElEERKT_, symObjAddr: 0x1EF60, symBinAddr: 0x100022240, symSize: 0xF8 }
  - { offsetInCU: 0x4721C, offset: 0x4721C, size: 0x8, addend: 0x0, symName: __ZNSt3__16__treeIiNS_4lessIiEENS_9allocatorIiEEE13__lower_boundIiEENS_15__tree_iteratorIiPNS_11__tree_nodeIiPvEElEERKT_SB_PNS_15__tree_end_nodeIPNS_16__tree_node_baseIS9_EEEE, symObjAddr: 0x1F058, symBinAddr: 0x100022338, symSize: 0xA4 }
  - { offsetInCU: 0x4727A, offset: 0x4727A, size: 0x8, addend: 0x0, symName: __ZNKSt3__115__tree_iteratorIiPNS_11__tree_nodeIiPvEElEdeB7v160006Ev, symObjAddr: 0x1F130, symBinAddr: 0x100022410, symSize: 0x28 }
  - { offsetInCU: 0x472A0, offset: 0x472A0, size: 0x8, addend: 0x0, symName: __ZNKSt3__115__tree_iteratorIiPNS_11__tree_nodeIiPvEElE8__get_npB7v160006Ev, symObjAddr: 0x1F188, symBinAddr: 0x100022468, symSize: 0x18 }
  - { offsetInCU: 0x472C6, offset: 0x472C6, size: 0x8, addend: 0x0, symName: __ZNSt3__16vectorIiNS_9allocatorIiEEE11__make_iterB7v160006EPi, symObjAddr: 0x1F1A0, symBinAddr: 0x100022480, symSize: 0x34 }
  - { offsetInCU: 0x472FB, offset: 0x472FB, size: 0x8, addend: 0x0, symName: __ZNSt3__111__wrap_iterIPiEC1B7v160006EPKvS1_, symObjAddr: 0x1F1D4, symBinAddr: 0x1000224B4, symSize: 0x3C }
  - { offsetInCU: 0x47341, offset: 0x47341, size: 0x8, addend: 0x0, symName: __ZNSt3__111__wrap_iterIPiEC2B7v160006EPKvS1_, symObjAddr: 0x1F210, symBinAddr: 0x1000224F0, symSize: 0x24 }
  - { offsetInCU: 0x47387, offset: 0x47387, size: 0x8, addend: 0x0, symName: __ZNSt3__16__treeIiNS_4lessIiEENS_9allocatorIiEEEaSERKS5_, symObjAddr: 0x1F234, symBinAddr: 0x100022514, symSize: 0x8C }
  - { offsetInCU: 0x473BE, offset: 0x473BE, size: 0x8, addend: 0x0, symName: __ZNSt3__16__treeIiNS_4lessIiEENS_9allocatorIiEEE19__copy_assign_allocB7v160006ERKS5_, symObjAddr: 0x1F2C0, symBinAddr: 0x1000225A0, symSize: 0x2C }
  - { offsetInCU: 0x473F3, offset: 0x473F3, size: 0x8, addend: 0x0, symName: __ZNSt3__16__treeIiNS_4lessIiEENS_9allocatorIiEEE14__assign_multiINS_21__tree_const_iteratorIiPNS_11__tree_nodeIiPvEElEEEEvT_SD_, symObjAddr: 0x1F2EC, symBinAddr: 0x1000225CC, symSize: 0x174 }
  - { offsetInCU: 0x47457, offset: 0x47457, size: 0x8, addend: 0x0, symName: __ZNSt3__16__treeIiNS_4lessIiEENS_9allocatorIiEEE19__copy_assign_allocB7v160006ERKS5_NS_17integral_constantIbLb0EEE, symObjAddr: 0x1F460, symBinAddr: 0x100022740, symSize: 0x14 }
  - { offsetInCU: 0x474B1, offset: 0x474B1, size: 0x8, addend: 0x0, symName: __ZNSt3__16__treeIiNS_4lessIiEENS_9allocatorIiEEE18_DetachedTreeCacheC1B7v160006EPS5_, symObjAddr: 0x1F474, symBinAddr: 0x100022754, symSize: 0x34 }
  - { offsetInCU: 0x474EA, offset: 0x474EA, size: 0x8, addend: 0x0, symName: __ZNKSt3__16__treeIiNS_4lessIiEENS_9allocatorIiEEE18_DetachedTreeCache5__getB7v160006Ev, symObjAddr: 0x1F4A8, symBinAddr: 0x100022788, symSize: 0x18 }
  - { offsetInCU: 0x47510, offset: 0x47510, size: 0x8, addend: 0x0, symName: __ZNSt3__16__treeIiNS_4lessIiEENS_9allocatorIiEEE19__node_insert_multiEPNS_11__tree_nodeIiPvEE, symObjAddr: 0x1F4C0, symBinAddr: 0x1000227A0, symSize: 0x70 }
  - { offsetInCU: 0x47565, offset: 0x47565, size: 0x8, addend: 0x0, symName: __ZNSt3__16__treeIiNS_4lessIiEENS_9allocatorIiEEE18_DetachedTreeCache9__advanceB7v160006Ev, symObjAddr: 0x1F530, symBinAddr: 0x100022810, symSize: 0x58 }
  - { offsetInCU: 0x4758B, offset: 0x4758B, size: 0x8, addend: 0x0, symName: __ZNSt3__16__treeIiNS_4lessIiEENS_9allocatorIiEEE18_DetachedTreeCacheD1B7v160006Ev, symObjAddr: 0x1F588, symBinAddr: 0x100022868, symSize: 0x2C }
  - { offsetInCU: 0x475B5, offset: 0x475B5, size: 0x8, addend: 0x0, symName: __ZNSt3__16__treeIiNS_4lessIiEENS_9allocatorIiEEE14__insert_multiB7v160006IRKiEENS_15__tree_iteratorIiPNS_11__tree_nodeIiPvEElEEOT_, symObjAddr: 0x1F5B4, symBinAddr: 0x100022894, symSize: 0x34 }
  - { offsetInCU: 0x475F3, offset: 0x475F3, size: 0x8, addend: 0x0, symName: __ZNSt3__122__tree_key_value_typesIiE11__get_valueB7v160006ERKi, symObjAddr: 0x1F5E8, symBinAddr: 0x1000228C8, symSize: 0x14 }
  - { offsetInCU: 0x47617, offset: 0x47617, size: 0x8, addend: 0x0, symName: __ZNSt3__16__treeIiNS_4lessIiEENS_9allocatorIiEEE18_DetachedTreeCacheC2B7v160006EPS5_, symObjAddr: 0x1F5FC, symBinAddr: 0x1000228DC, symSize: 0x4C }
  - { offsetInCU: 0x47650, offset: 0x47650, size: 0x8, addend: 0x0, symName: __ZNSt3__16__treeIiNS_4lessIiEENS_9allocatorIiEEE18_DetachedTreeCache18__detach_from_treeEPS5_, symObjAddr: 0x1F648, symBinAddr: 0x100022928, symSize: 0xA0 }
  - { offsetInCU: 0x47685, offset: 0x47685, size: 0x8, addend: 0x0, symName: __ZNSt3__16__treeIiNS_4lessIiEENS_9allocatorIiEEE16__find_leaf_highERPNS_15__tree_end_nodeIPNS_16__tree_node_baseIPvEEEERKi, symObjAddr: 0x1F6E8, symBinAddr: 0x1000229C8, symSize: 0x124 }
  - { offsetInCU: 0x476DA, offset: 0x476DA, size: 0x8, addend: 0x0, symName: __ZNSt3__16__treeIiNS_4lessIiEENS_9allocatorIiEEE18_DetachedTreeCache13__detach_nextEPNS_11__tree_nodeIiPvEE, symObjAddr: 0x1F80C, symBinAddr: 0x100022AEC, symSize: 0xF0 }
  - { offsetInCU: 0x47700, offset: 0x47700, size: 0x8, addend: 0x0, symName: __ZNSt3__16__treeIiNS_4lessIiEENS_9allocatorIiEEE18_DetachedTreeCacheD2B7v160006Ev, symObjAddr: 0x1F96C, symBinAddr: 0x100022C4C, symSize: 0x9C }
  - { offsetInCU: 0x4772A, offset: 0x4772A, size: 0x8, addend: 0x0, symName: __ZNSt3__16__treeIiNS_4lessIiEENS_9allocatorIiEEE15__emplace_multiIJRKiEEENS_15__tree_iteratorIiPNS_11__tree_nodeIiPvEElEEDpOT_, symObjAddr: 0x1FA08, symBinAddr: 0x100022CE8, symSize: 0xAC }
  - { offsetInCU: 0x47799, offset: 0x47799, size: 0x8, addend: 0x0, symName: __ZNSt3__15queueI7LR1ItemNS_5dequeIS1_NS_9allocatorIS1_EEEEEC2B7v160006Ev, symObjAddr: 0x1FAB4, symBinAddr: 0x100022D94, symSize: 0x2C }
  - { offsetInCU: 0x477C3, offset: 0x477C3, size: 0x8, addend: 0x0, symName: __ZNSt3__15dequeI7LR1ItemNS_9allocatorIS1_EEEC1B7v160006Ev, symObjAddr: 0x1FAE0, symBinAddr: 0x100022DC0, symSize: 0x2C }
  - { offsetInCU: 0x477ED, offset: 0x477ED, size: 0x8, addend: 0x0, symName: __ZNSt3__15dequeI7LR1ItemNS_9allocatorIS1_EEEC2B7v160006Ev, symObjAddr: 0x1FB0C, symBinAddr: 0x100022DEC, symSize: 0x50 }
  - { offsetInCU: 0x47817, offset: 0x47817, size: 0x8, addend: 0x0, symName: __ZNSt3__114__split_bufferIP7LR1ItemNS_9allocatorIS2_EEEC1Ev, symObjAddr: 0x1FB5C, symBinAddr: 0x100022E3C, symSize: 0x2C }
  - { offsetInCU: 0x47843, offset: 0x47843, size: 0x8, addend: 0x0, symName: __ZNSt3__117__compressed_pairImNS_9allocatorI7LR1ItemEEEC1B7v160006IiNS_18__default_init_tagEEEOT_OT0_, symObjAddr: 0x1FB88, symBinAddr: 0x100022E68, symSize: 0x3C }
  - { offsetInCU: 0x4789B, offset: 0x4789B, size: 0x8, addend: 0x0, symName: __ZNSt3__114__split_bufferIP7LR1ItemNS_9allocatorIS2_EEEC2Ev, symObjAddr: 0x1FBC4, symBinAddr: 0x100022EA4, symSize: 0x50 }
  - { offsetInCU: 0x478C7, offset: 0x478C7, size: 0x8, addend: 0x0, symName: __ZNSt3__117__compressed_pairIPP7LR1ItemNS_9allocatorIS2_EEEC1B7v160006IDnNS_18__default_init_tagEEEOT_OT0_, symObjAddr: 0x1FC14, symBinAddr: 0x100022EF4, symSize: 0x3C }
  - { offsetInCU: 0x4791F, offset: 0x4791F, size: 0x8, addend: 0x0, symName: __ZNSt3__117__compressed_pairIPP7LR1ItemNS_9allocatorIS2_EEEC2B7v160006IDnNS_18__default_init_tagEEEOT_OT0_, symObjAddr: 0x1FC50, symBinAddr: 0x100022F30, symSize: 0x40 }
  - { offsetInCU: 0x47977, offset: 0x47977, size: 0x8, addend: 0x0, symName: __ZNSt3__122__compressed_pair_elemIPP7LR1ItemLi0ELb0EEC2B7v160006IDnvEEOT_, symObjAddr: 0x1FC90, symBinAddr: 0x100022F70, symSize: 0x1C }
  - { offsetInCU: 0x479B9, offset: 0x479B9, size: 0x8, addend: 0x0, symName: __ZNSt3__122__compressed_pair_elemINS_9allocatorIP7LR1ItemEELi1ELb1EEC2B7v160006ENS_18__default_init_tagE, symObjAddr: 0x1FCAC, symBinAddr: 0x100022F8C, symSize: 0x2C }
  - { offsetInCU: 0x479ED, offset: 0x479ED, size: 0x8, addend: 0x0, symName: __ZNSt3__19allocatorIP7LR1ItemEC2B7v160006Ev, symObjAddr: 0x1FCD8, symBinAddr: 0x100022FB8, symSize: 0x2C }
  - { offsetInCU: 0x47A17, offset: 0x47A17, size: 0x8, addend: 0x0, symName: __ZNSt3__116__non_trivial_ifILb1ENS_9allocatorIP7LR1ItemEEEC2B7v160006Ev, symObjAddr: 0x1FD04, symBinAddr: 0x100022FE4, symSize: 0x14 }
  - { offsetInCU: 0x47A41, offset: 0x47A41, size: 0x8, addend: 0x0, symName: __ZNSt3__117__compressed_pairImNS_9allocatorI7LR1ItemEEEC2B7v160006IiNS_18__default_init_tagEEEOT_OT0_, symObjAddr: 0x1FD18, symBinAddr: 0x100022FF8, symSize: 0x40 }
  - { offsetInCU: 0x47A99, offset: 0x47A99, size: 0x8, addend: 0x0, symName: __ZNSt3__122__compressed_pair_elemINS_9allocatorI7LR1ItemEELi1ELb1EEC2B7v160006ENS_18__default_init_tagE, symObjAddr: 0x1FD58, symBinAddr: 0x100023038, symSize: 0x2C }
  - { offsetInCU: 0x47ACD, offset: 0x47ACD, size: 0x8, addend: 0x0, symName: __ZNSt3__19allocatorI7LR1ItemEC2B7v160006Ev, symObjAddr: 0x1FD84, symBinAddr: 0x100023064, symSize: 0x2C }
  - { offsetInCU: 0x47AF7, offset: 0x47AF7, size: 0x8, addend: 0x0, symName: __ZNSt3__15dequeI7LR1ItemNS_9allocatorIS1_EEE9push_backERKS1_, symObjAddr: 0x1FDB0, symBinAddr: 0x100023090, symSize: 0xA0 }
  - { offsetInCU: 0x47B3D, offset: 0x47B3D, size: 0x8, addend: 0x0, symName: __ZNKSt3__15dequeI7LR1ItemNS_9allocatorIS1_EEE12__back_spareB7v160006Ev, symObjAddr: 0x1FE50, symBinAddr: 0x100023130, symSize: 0x54 }
  - { offsetInCU: 0x47B63, offset: 0x47B63, size: 0x8, addend: 0x0, symName: __ZNSt3__15dequeI7LR1ItemNS_9allocatorIS1_EEE19__add_back_capacityEv, symObjAddr: 0x1FEA4, symBinAddr: 0x100023184, symSize: 0x314 }
  - { offsetInCU: 0x47C18, offset: 0x47C18, size: 0x8, addend: 0x0, symName: __ZNSt3__116allocator_traitsINS_9allocatorI7LR1ItemEEE9constructB7v160006IS2_JRKS2_EvEEvRS3_PT_DpOT0_, symObjAddr: 0x201B8, symBinAddr: 0x100023498, symSize: 0x34 }
  - { offsetInCU: 0x47C6F, offset: 0x47C6F, size: 0x8, addend: 0x0, symName: __ZNKSt3__15dequeI7LR1ItemNS_9allocatorIS1_EEE10__capacityB7v160006Ev, symObjAddr: 0x201EC, symBinAddr: 0x1000234CC, symSize: 0x60 }
  - { offsetInCU: 0x47C95, offset: 0x47C95, size: 0x8, addend: 0x0, symName: __ZNKSt3__15dequeI7LR1ItemNS_9allocatorIS1_EEE13__front_spareB7v160006Ev, symObjAddr: 0x2024C, symBinAddr: 0x10002352C, symSize: 0x18 }
  - { offsetInCU: 0x47CBB, offset: 0x47CBB, size: 0x8, addend: 0x0, symName: __ZNSt3__114__split_bufferIP7LR1ItemNS_9allocatorIS2_EEE9push_backB7v160006ERKS2_, symObjAddr: 0x20264, symBinAddr: 0x100023544, symSize: 0x260 }
  - { offsetInCU: 0x47D33, offset: 0x47D33, size: 0x8, addend: 0x0, symName: __ZNKSt3__114__split_bufferIP7LR1ItemNS_9allocatorIS2_EEE12__back_spareB7v160006Ev, symObjAddr: 0x204C4, symBinAddr: 0x1000237A4, symSize: 0x40 }
  - { offsetInCU: 0x47D59, offset: 0x47D59, size: 0x8, addend: 0x0, symName: __ZNSt3__114__split_bufferIP7LR1ItemNS_9allocatorIS2_EEE9push_backEOS2_, symObjAddr: 0x20504, symBinAddr: 0x1000237E4, symSize: 0x260 }
  - { offsetInCU: 0x47DD1, offset: 0x47DD1, size: 0x8, addend: 0x0, symName: __ZNSt3__116allocator_traitsINS_9allocatorI7LR1ItemEEE8allocateB7v160006ERS3_m, symObjAddr: 0x20764, symBinAddr: 0x100023A44, symSize: 0x2C }
  - { offsetInCU: 0x47E04, offset: 0x47E04, size: 0x8, addend: 0x0, symName: __ZNSt3__114__split_bufferIP7LR1ItemNS_9allocatorIS2_EEE10push_frontEOS2_, symObjAddr: 0x20790, symBinAddr: 0x100023A70, symSize: 0x25C }
  - { offsetInCU: 0x47E7C, offset: 0x47E7C, size: 0x8, addend: 0x0, symName: __ZNSt3__114__split_bufferIP7LR1ItemRNS_9allocatorIS2_EEEC1EmmS5_, symObjAddr: 0x209EC, symBinAddr: 0x100023CCC, symSize: 0x44 }
  - { offsetInCU: 0x47ED7, offset: 0x47ED7, size: 0x8, addend: 0x0, symName: __ZNSt3__122__allocator_destructorINS_9allocatorI7LR1ItemEEEC1B7v160006ERS3_m, symObjAddr: 0x20A30, symBinAddr: 0x100023D10, symSize: 0x3C }
  - { offsetInCU: 0x47F9C, offset: 0x47F9C, size: 0x8, addend: 0x0, symName: __ZNSt3__110unique_ptrIP7LR1ItemNS_22__allocator_destructorINS_9allocatorIS1_EEEEEC1B7v160006ILb1EvEES2_NS_16__dependent_typeINS_27__unique_ptr_deleter_sfinaeIS6_EEXT_EE20__good_rval_ref_typeE, symObjAddr: 0x20A6C, symBinAddr: 0x100023D4C, symSize: 0x3C }
  - { offsetInCU: 0x47FED, offset: 0x47FED, size: 0x8, addend: 0x0, symName: __ZNSt3__114__split_bufferIP7LR1ItemRNS_9allocatorIS2_EEE9push_backEOS2_, symObjAddr: 0x20AA8, symBinAddr: 0x100023D88, symSize: 0x260 }
  - { offsetInCU: 0x48065, offset: 0x48065, size: 0x8, addend: 0x0, symName: __ZNKSt3__110unique_ptrIP7LR1ItemNS_22__allocator_destructorINS_9allocatorIS1_EEEEE3getB7v160006Ev, symObjAddr: 0x20D08, symBinAddr: 0x100023FE8, symSize: 0x28 }
  - { offsetInCU: 0x4808B, offset: 0x4808B, size: 0x8, addend: 0x0, symName: __ZNSt3__110unique_ptrIP7LR1ItemNS_22__allocator_destructorINS_9allocatorIS1_EEEEE7releaseB7v160006Ev, symObjAddr: 0x20D30, symBinAddr: 0x100024010, symSize: 0x44 }
  - { offsetInCU: 0x480C0, offset: 0x480C0, size: 0x8, addend: 0x0, symName: __ZNSt3__114__split_bufferIP7LR1ItemRNS_9allocatorIS2_EEE10push_frontERKS2_, symObjAddr: 0x20D74, symBinAddr: 0x100024054, symSize: 0x25C }
  - { offsetInCU: 0x48138, offset: 0x48138, size: 0x8, addend: 0x0, symName: __ZNSt3__114__split_bufferIP7LR1ItemNS_9allocatorIS2_EEE9__end_capB7v160006Ev, symObjAddr: 0x2100C, symBinAddr: 0x1000242EC, symSize: 0x28 }
  - { offsetInCU: 0x4815E, offset: 0x4815E, size: 0x8, addend: 0x0, symName: __ZNSt3__114__split_bufferIP7LR1ItemRNS_9allocatorIS2_EEE9__end_capB7v160006Ev, symObjAddr: 0x21034, symBinAddr: 0x100024314, symSize: 0x28 }
  - { offsetInCU: 0x48184, offset: 0x48184, size: 0x8, addend: 0x0, symName: __ZNSt3__110unique_ptrIP7LR1ItemNS_22__allocator_destructorINS_9allocatorIS1_EEEEED1B7v160006Ev, symObjAddr: 0x2105C, symBinAddr: 0x10002433C, symSize: 0x2C }
  - { offsetInCU: 0x481AE, offset: 0x481AE, size: 0x8, addend: 0x0, symName: __ZNSt3__114__split_bufferIP7LR1ItemRNS_9allocatorIS2_EEED1Ev, symObjAddr: 0x21088, symBinAddr: 0x100024368, symSize: 0x2C }
  - { offsetInCU: 0x481DA, offset: 0x481DA, size: 0x8, addend: 0x0, symName: __ZNSt3__114__split_bufferIP7LR1ItemRNS_9allocatorIS2_EEE18__construct_at_endINS_13move_iteratorIPS2_EEEENS_9enable_ifIXsr27__is_cpp17_forward_iteratorIT_EE5valueEvE4typeESC_SC_, symObjAddr: 0x210F4, symBinAddr: 0x1000243D4, symSize: 0xFC }
  - { offsetInCU: 0x48236, offset: 0x48236, size: 0x8, addend: 0x0, symName: __ZNSt3__113move_iteratorIPP7LR1ItemEC1B7v160006ES3_, symObjAddr: 0x211F0, symBinAddr: 0x1000244D0, symSize: 0x34 }
  - { offsetInCU: 0x4826E, offset: 0x4826E, size: 0x8, addend: 0x0, symName: __ZNSt3__116allocator_traitsINS_9allocatorIP7LR1ItemEEE9constructB7v160006IS3_JRKS3_EvEEvRS4_PT_DpOT0_, symObjAddr: 0x21224, symBinAddr: 0x100024504, symSize: 0x34 }
  - { offsetInCU: 0x482E9, offset: 0x482E9, size: 0x8, addend: 0x0, symName: __ZNKSt3__114__move_trivialclB7v160006IP7LR1ItemS3_Li0EEENS_4pairIPT_PT0_EES6_S6_S8_, symObjAddr: 0x213F4, symBinAddr: 0x1000246D4, symSize: 0x48 }
  - { offsetInCU: 0x48357, offset: 0x48357, size: 0x8, addend: 0x0, symName: __ZNSt3__14pairIPP7LR1ItemS3_EC1B7v160006IRS3_S3_LPv0EEEOT_OT0_, symObjAddr: 0x215BC, symBinAddr: 0x10002489C, symSize: 0x3C }
  - { offsetInCU: 0x483B5, offset: 0x483B5, size: 0x8, addend: 0x0, symName: __ZNSt3__14pairIPP7LR1ItemS3_EC2B7v160006IRS3_S3_LPv0EEEOT_OT0_, symObjAddr: 0x215F8, symBinAddr: 0x1000248D8, symSize: 0x34 }
  - { offsetInCU: 0x48413, offset: 0x48413, size: 0x8, addend: 0x0, symName: __ZNSt3__118__unwrap_iter_implIPP7LR1ItemLb1EE8__unwrapB7v160006ES3_, symObjAddr: 0x2162C, symBinAddr: 0x10002490C, symSize: 0x24 }
  - { offsetInCU: 0x48436, offset: 0x48436, size: 0x8, addend: 0x0, symName: __ZNSt3__14pairIPP7LR1ItemS3_EC1B7v160006IS3_S3_LPv0EEEOT_OT0_, symObjAddr: 0x21650, symBinAddr: 0x100024930, symSize: 0x3C }
  - { offsetInCU: 0x48494, offset: 0x48494, size: 0x8, addend: 0x0, symName: __ZNSt3__14pairIPP7LR1ItemS3_EC2B7v160006IS3_S3_LPv0EEEOT_OT0_, symObjAddr: 0x2168C, symBinAddr: 0x10002496C, symSize: 0x34 }
  - { offsetInCU: 0x484F2, offset: 0x484F2, size: 0x8, addend: 0x0, symName: __ZNSt3__118__unwrap_iter_implIPP7LR1ItemLb1EE8__rewrapB7v160006ES3_S3_, symObjAddr: 0x216C0, symBinAddr: 0x1000249A0, symSize: 0x50 }
  - { offsetInCU: 0x4852D, offset: 0x4852D, size: 0x8, addend: 0x0, symName: __ZNSt3__114__split_bufferIP7LR1ItemRNS_9allocatorIS2_EEE21_ConstructTransactionC1B7v160006EPPS2_m, symObjAddr: 0x2174C, symBinAddr: 0x100024A2C, symSize: 0x3C }
  - { offsetInCU: 0x48573, offset: 0x48573, size: 0x8, addend: 0x0, symName: __ZNSt3__116allocator_traitsINS_9allocatorIP7LR1ItemEEE9constructB7v160006IS3_JS3_EvEEvRS4_PT_DpOT0_, symObjAddr: 0x21788, symBinAddr: 0x100024A68, symSize: 0x34 }
  - { offsetInCU: 0x485CA, offset: 0x485CA, size: 0x8, addend: 0x0, symName: __ZNSt3__114__split_bufferIP7LR1ItemRNS_9allocatorIS2_EEE7__allocB7v160006Ev, symObjAddr: 0x217BC, symBinAddr: 0x100024A9C, symSize: 0x28 }
  - { offsetInCU: 0x485F0, offset: 0x485F0, size: 0x8, addend: 0x0, symName: __ZNKSt3__113move_iteratorIPP7LR1ItemEdeB7v160006Ev, symObjAddr: 0x217E4, symBinAddr: 0x100024AC4, symSize: 0x18 }
  - { offsetInCU: 0x48616, offset: 0x48616, size: 0x8, addend: 0x0, symName: __ZNSt3__113move_iteratorIPP7LR1ItemEppB7v160006Ev, symObjAddr: 0x217FC, symBinAddr: 0x100024ADC, symSize: 0x20 }
  - { offsetInCU: 0x4863C, offset: 0x4863C, size: 0x8, addend: 0x0, symName: __ZNSt3__114__split_bufferIP7LR1ItemRNS_9allocatorIS2_EEE21_ConstructTransactionD1B7v160006Ev, symObjAddr: 0x2181C, symBinAddr: 0x100024AFC, symSize: 0x2C }
  - { offsetInCU: 0x48666, offset: 0x48666, size: 0x8, addend: 0x0, symName: __ZNKSt3__113move_iteratorIPP7LR1ItemE4baseB7v160006Ev, symObjAddr: 0x218C0, symBinAddr: 0x100024BA0, symSize: 0x18 }
  - { offsetInCU: 0x4868C, offset: 0x4868C, size: 0x8, addend: 0x0, symName: __ZNSt3__114__split_bufferIP7LR1ItemRNS_9allocatorIS2_EEE21_ConstructTransactionC2B7v160006EPPS2_m, symObjAddr: 0x218D8, symBinAddr: 0x100024BB8, symSize: 0x44 }
  - { offsetInCU: 0x486D2, offset: 0x486D2, size: 0x8, addend: 0x0, symName: __ZNSt3__19allocatorIP7LR1ItemE9constructB7v160006IS2_JS2_EEEvPT_DpOT0_, symObjAddr: 0x2191C, symBinAddr: 0x100024BFC, symSize: 0x28 }
  - { offsetInCU: 0x48728, offset: 0x48728, size: 0x8, addend: 0x0, symName: __ZNSt3__117__compressed_pairIPP7LR1ItemRNS_9allocatorIS2_EEE6secondB7v160006Ev, symObjAddr: 0x21944, symBinAddr: 0x100024C24, symSize: 0x28 }
  - { offsetInCU: 0x4874E, offset: 0x4874E, size: 0x8, addend: 0x0, symName: __ZNSt3__122__compressed_pair_elemIRNS_9allocatorIP7LR1ItemEELi1ELb0EE5__getB7v160006Ev, symObjAddr: 0x2196C, symBinAddr: 0x100024C4C, symSize: 0x18 }
  - { offsetInCU: 0x48774, offset: 0x48774, size: 0x8, addend: 0x0, symName: __ZNSt3__114__split_bufferIP7LR1ItemRNS_9allocatorIS2_EEE21_ConstructTransactionD2B7v160006Ev, symObjAddr: 0x21984, symBinAddr: 0x100024C64, symSize: 0x20 }
  - { offsetInCU: 0x4879E, offset: 0x4879E, size: 0x8, addend: 0x0, symName: __ZNSt3__113move_iteratorIPP7LR1ItemEC2B7v160006ES3_, symObjAddr: 0x219A4, symBinAddr: 0x100024C84, symSize: 0x20 }
  - { offsetInCU: 0x487D6, offset: 0x487D6, size: 0x8, addend: 0x0, symName: __ZNSt3__19allocatorIP7LR1ItemE9constructB7v160006IS2_JRKS2_EEEvPT_DpOT0_, symObjAddr: 0x219C4, symBinAddr: 0x100024CA4, symSize: 0x28 }
  - { offsetInCU: 0x4882C, offset: 0x4882C, size: 0x8, addend: 0x0, symName: __ZNSt3__19allocatorI7LR1ItemE8allocateB7v160006Em, symObjAddr: 0x219EC, symBinAddr: 0x100024CCC, symSize: 0x58 }
  - { offsetInCU: 0x48860, offset: 0x48860, size: 0x8, addend: 0x0, symName: __ZNSt3__116allocator_traitsINS_9allocatorI7LR1ItemEEE8max_sizeB7v160006IS3_vEEmRKS3_, symObjAddr: 0x21A44, symBinAddr: 0x100024D24, symSize: 0x24 }
  - { offsetInCU: 0x4888E, offset: 0x4888E, size: 0x8, addend: 0x0, symName: __ZNKSt3__19allocatorI7LR1ItemE8max_sizeB7v160006Ev, symObjAddr: 0x21A68, symBinAddr: 0x100024D48, symSize: 0x14 }
  - { offsetInCU: 0x488BE, offset: 0x488BE, size: 0x8, addend: 0x0, symName: __ZNKSt3__123__move_backward_trivialclB7v160006IP7LR1ItemS3_Li0EEENS_4pairIPT_PT0_EES6_S6_S8_, symObjAddr: 0x21BF8, symBinAddr: 0x100024ED8, symSize: 0x48 }
  - { offsetInCU: 0x48926, offset: 0x48926, size: 0x8, addend: 0x0, symName: __ZNSt3__14pairIPP7LR1ItemS3_EC1B7v160006IRS3_S6_LPv0EEEOT_OT0_, symObjAddr: 0x21D0C, symBinAddr: 0x100024FEC, symSize: 0x3C }
  - { offsetInCU: 0x48984, offset: 0x48984, size: 0x8, addend: 0x0, symName: __ZNSt3__14pairIPP7LR1ItemS3_EC2B7v160006IRS3_S6_LPv0EEEOT_OT0_, symObjAddr: 0x21D48, symBinAddr: 0x100025028, symSize: 0x34 }
  - { offsetInCU: 0x489E2, offset: 0x489E2, size: 0x8, addend: 0x0, symName: __ZNSt3__114__split_bufferIP7LR1ItemRNS_9allocatorIS2_EEEC2EmmS5_, symObjAddr: 0x21D7C, symBinAddr: 0x10002505C, symSize: 0xD4 }
  - { offsetInCU: 0x48A55, offset: 0x48A55, size: 0x8, addend: 0x0, symName: __ZNSt3__117__compressed_pairIPP7LR1ItemRNS_9allocatorIS2_EEEC1B7v160006IDnS6_EEOT_OT0_, symObjAddr: 0x21E50, symBinAddr: 0x100025130, symSize: 0x3C }
  - { offsetInCU: 0x48AAD, offset: 0x48AAD, size: 0x8, addend: 0x0, symName: __ZNSt3__117__compressed_pairIPP7LR1ItemRNS_9allocatorIS2_EEEC2B7v160006IDnS6_EEOT_OT0_, symObjAddr: 0x21ECC, symBinAddr: 0x1000251AC, symSize: 0x48 }
  - { offsetInCU: 0x48B05, offset: 0x48B05, size: 0x8, addend: 0x0, symName: __ZNSt3__122__compressed_pair_elemIRNS_9allocatorIP7LR1ItemEELi1ELb0EEC2B7v160006IS5_vEEOT_, symObjAddr: 0x21F14, symBinAddr: 0x1000251F4, symSize: 0x20 }
  - { offsetInCU: 0x48B47, offset: 0x48B47, size: 0x8, addend: 0x0, symName: __ZNSt3__19allocatorIP7LR1ItemE8allocateB7v160006Em, symObjAddr: 0x21F34, symBinAddr: 0x100025214, symSize: 0x58 }
  - { offsetInCU: 0x48B85, offset: 0x48B85, size: 0x8, addend: 0x0, symName: __ZNSt3__116allocator_traitsINS_9allocatorIP7LR1ItemEEE8max_sizeB7v160006IS4_vEEmRKS4_, symObjAddr: 0x21F8C, symBinAddr: 0x10002526C, symSize: 0x24 }
  - { offsetInCU: 0x48BB3, offset: 0x48BB3, size: 0x8, addend: 0x0, symName: __ZNKSt3__19allocatorIP7LR1ItemE8max_sizeB7v160006Ev, symObjAddr: 0x21FB0, symBinAddr: 0x100025290, symSize: 0x14 }
  - { offsetInCU: 0x48BD9, offset: 0x48BD9, size: 0x8, addend: 0x0, symName: __ZNSt3__122__allocator_destructorINS_9allocatorI7LR1ItemEEEC2B7v160006ERS3_m, symObjAddr: 0x21FC4, symBinAddr: 0x1000252A4, symSize: 0x2C }
  - { offsetInCU: 0x48C1F, offset: 0x48C1F, size: 0x8, addend: 0x0, symName: __ZNSt3__110unique_ptrIP7LR1ItemNS_22__allocator_destructorINS_9allocatorIS1_EEEEEC2B7v160006ILb1EvEES2_NS_16__dependent_typeINS_27__unique_ptr_deleter_sfinaeIS6_EEXT_EE20__good_rval_ref_typeE, symObjAddr: 0x21FF0, symBinAddr: 0x1000252D0, symSize: 0x48 }
  - { offsetInCU: 0x48C70, offset: 0x48C70, size: 0x8, addend: 0x0, symName: __ZNSt3__117__compressed_pairIP7LR1ItemNS_22__allocator_destructorINS_9allocatorIS1_EEEEEC1B7v160006IRS2_S6_EEOT_OT0_, symObjAddr: 0x22038, symBinAddr: 0x100025318, symSize: 0x3C }
  - { offsetInCU: 0x48CC8, offset: 0x48CC8, size: 0x8, addend: 0x0, symName: __ZNSt3__117__compressed_pairIP7LR1ItemNS_22__allocator_destructorINS_9allocatorIS1_EEEEEC2B7v160006IRS2_S6_EEOT_OT0_, symObjAddr: 0x22074, symBinAddr: 0x100025354, symSize: 0x48 }
  - { offsetInCU: 0x48D20, offset: 0x48D20, size: 0x8, addend: 0x0, symName: __ZNSt3__122__compressed_pair_elemIP7LR1ItemLi0ELb0EEC2B7v160006IRS2_vEEOT_, symObjAddr: 0x220BC, symBinAddr: 0x10002539C, symSize: 0x24 }
  - { offsetInCU: 0x48D62, offset: 0x48D62, size: 0x8, addend: 0x0, symName: __ZNSt3__122__compressed_pair_elemINS_22__allocator_destructorINS_9allocatorI7LR1ItemEEEELi1ELb0EEC2B7v160006IS5_vEEOT_, symObjAddr: 0x220E0, symBinAddr: 0x1000253C0, symSize: 0x24 }
  - { offsetInCU: 0x48DA4, offset: 0x48DA4, size: 0x8, addend: 0x0, symName: __ZNKSt3__117__compressed_pairIP7LR1ItemNS_22__allocator_destructorINS_9allocatorIS1_EEEEE5firstB7v160006Ev, symObjAddr: 0x22104, symBinAddr: 0x1000253E4, symSize: 0x24 }
  - { offsetInCU: 0x48DCA, offset: 0x48DCA, size: 0x8, addend: 0x0, symName: __ZNKSt3__122__compressed_pair_elemIP7LR1ItemLi0ELb0EE5__getB7v160006Ev, symObjAddr: 0x22128, symBinAddr: 0x100025408, symSize: 0x14 }
  - { offsetInCU: 0x48DF0, offset: 0x48DF0, size: 0x8, addend: 0x0, symName: __ZNSt3__117__compressed_pairIP7LR1ItemNS_22__allocator_destructorINS_9allocatorIS1_EEEEE5firstB7v160006Ev, symObjAddr: 0x2213C, symBinAddr: 0x10002541C, symSize: 0x24 }
  - { offsetInCU: 0x48E16, offset: 0x48E16, size: 0x8, addend: 0x0, symName: __ZNSt3__122__compressed_pair_elemIP7LR1ItemLi0ELb0EE5__getB7v160006Ev, symObjAddr: 0x22160, symBinAddr: 0x100025440, symSize: 0x14 }
  - { offsetInCU: 0x48E3C, offset: 0x48E3C, size: 0x8, addend: 0x0, symName: __ZNSt3__117__compressed_pairIPP7LR1ItemNS_9allocatorIS2_EEE5firstB7v160006Ev, symObjAddr: 0x22174, symBinAddr: 0x100025454, symSize: 0x24 }
  - { offsetInCU: 0x48E62, offset: 0x48E62, size: 0x8, addend: 0x0, symName: __ZNSt3__122__compressed_pair_elemIPP7LR1ItemLi0ELb0EE5__getB7v160006Ev, symObjAddr: 0x22198, symBinAddr: 0x100025478, symSize: 0x14 }
  - { offsetInCU: 0x48E88, offset: 0x48E88, size: 0x8, addend: 0x0, symName: __ZNSt3__117__compressed_pairIPP7LR1ItemRNS_9allocatorIS2_EEE5firstB7v160006Ev, symObjAddr: 0x221AC, symBinAddr: 0x10002548C, symSize: 0x24 }
  - { offsetInCU: 0x48EAE, offset: 0x48EAE, size: 0x8, addend: 0x0, symName: __ZNSt3__110unique_ptrIP7LR1ItemNS_22__allocator_destructorINS_9allocatorIS1_EEEEED2B7v160006Ev, symObjAddr: 0x221D0, symBinAddr: 0x1000254B0, symSize: 0x30 }
  - { offsetInCU: 0x48ED8, offset: 0x48ED8, size: 0x8, addend: 0x0, symName: __ZNSt3__110unique_ptrIP7LR1ItemNS_22__allocator_destructorINS_9allocatorIS1_EEEEE5resetB7v160006ES2_, symObjAddr: 0x22200, symBinAddr: 0x1000254E0, symSize: 0x78 }
  - { offsetInCU: 0x48F1C, offset: 0x48F1C, size: 0x8, addend: 0x0, symName: __ZNSt3__117__compressed_pairIP7LR1ItemNS_22__allocator_destructorINS_9allocatorIS1_EEEEE6secondB7v160006Ev, symObjAddr: 0x22278, symBinAddr: 0x100025558, symSize: 0x28 }
  - { offsetInCU: 0x48F42, offset: 0x48F42, size: 0x8, addend: 0x0, symName: __ZNSt3__122__allocator_destructorINS_9allocatorI7LR1ItemEEEclB7v160006EPS2_, symObjAddr: 0x222A0, symBinAddr: 0x100025580, symSize: 0x34 }
  - { offsetInCU: 0x48F76, offset: 0x48F76, size: 0x8, addend: 0x0, symName: __ZNSt3__122__compressed_pair_elemINS_22__allocator_destructorINS_9allocatorI7LR1ItemEEEELi1ELb0EE5__getB7v160006Ev, symObjAddr: 0x222D4, symBinAddr: 0x1000255B4, symSize: 0x14 }
  - { offsetInCU: 0x48F9C, offset: 0x48F9C, size: 0x8, addend: 0x0, symName: __ZNSt3__114__split_bufferIP7LR1ItemRNS_9allocatorIS2_EEED2Ev, symObjAddr: 0x222E8, symBinAddr: 0x1000255C8, symSize: 0x8C }
  - { offsetInCU: 0x48FC8, offset: 0x48FC8, size: 0x8, addend: 0x0, symName: __ZNSt3__114__split_bufferIP7LR1ItemRNS_9allocatorIS2_EEE5clearB7v160006Ev, symObjAddr: 0x22374, symBinAddr: 0x100025654, symSize: 0x28 }
  - { offsetInCU: 0x48FEE, offset: 0x48FEE, size: 0x8, addend: 0x0, symName: __ZNKSt3__114__split_bufferIP7LR1ItemRNS_9allocatorIS2_EEE8capacityB7v160006Ev, symObjAddr: 0x2239C, symBinAddr: 0x10002567C, symSize: 0x40 }
  - { offsetInCU: 0x49014, offset: 0x49014, size: 0x8, addend: 0x0, symName: __ZNSt3__114__split_bufferIP7LR1ItemRNS_9allocatorIS2_EEE17__destruct_at_endB7v160006EPS2_, symObjAddr: 0x223DC, symBinAddr: 0x1000256BC, symSize: 0x2C }
  - { offsetInCU: 0x49048, offset: 0x49048, size: 0x8, addend: 0x0, symName: __ZNSt3__114__split_bufferIP7LR1ItemRNS_9allocatorIS2_EEE17__destruct_at_endB7v160006EPS2_NS_17integral_constantIbLb0EEE, symObjAddr: 0x22408, symBinAddr: 0x1000256E8, symSize: 0x80 }
  - { offsetInCU: 0x49088, offset: 0x49088, size: 0x8, addend: 0x0, symName: __ZNKSt3__114__split_bufferIP7LR1ItemRNS_9allocatorIS2_EEE9__end_capB7v160006Ev, symObjAddr: 0x22488, symBinAddr: 0x100025768, symSize: 0x28 }
  - { offsetInCU: 0x490AE, offset: 0x490AE, size: 0x8, addend: 0x0, symName: __ZNKSt3__117__compressed_pairIPP7LR1ItemRNS_9allocatorIS2_EEE5firstB7v160006Ev, symObjAddr: 0x224B0, symBinAddr: 0x100025790, symSize: 0x24 }
  - { offsetInCU: 0x490D4, offset: 0x490D4, size: 0x8, addend: 0x0, symName: __ZNSt3__19allocatorI7LR1ItemE9constructB7v160006IS1_JRKS1_EEEvPT_DpOT0_, symObjAddr: 0x224D4, symBinAddr: 0x1000257B4, symSize: 0x30 }
  - { offsetInCU: 0x4912A, offset: 0x4912A, size: 0x8, addend: 0x0, symName: __ZNKSt3__15dequeI7LR1ItemNS_9allocatorIS1_EEE5emptyB7v160006Ev, symObjAddr: 0x22504, symBinAddr: 0x1000257E4, symSize: 0x30 }
  - { offsetInCU: 0x49150, offset: 0x49150, size: 0x8, addend: 0x0, symName: __ZNSt3__15dequeI7LR1ItemNS_9allocatorIS1_EEE5frontEv, symObjAddr: 0x22534, symBinAddr: 0x100025814, symSize: 0x50 }
  - { offsetInCU: 0x49178, offset: 0x49178, size: 0x8, addend: 0x0, symName: __ZNSt3__15dequeI7LR1ItemNS_9allocatorIS1_EEE9pop_frontEv, symObjAddr: 0x22584, symBinAddr: 0x100025864, symSize: 0xAC }
  - { offsetInCU: 0x491AF, offset: 0x491AF, size: 0x8, addend: 0x0, symName: __ZNSt3__15dequeI7LR1ItemNS_9allocatorIS1_EEE26__maybe_remove_front_spareB7v160006Eb, symObjAddr: 0x22644, symBinAddr: 0x100025924, symSize: 0xDC }
  - { offsetInCU: 0x491E4, offset: 0x491E4, size: 0x8, addend: 0x0, symName: __ZNKSt3__15dequeI7LR1ItemNS_9allocatorIS1_EEE20__front_spare_blocksB7v160006Ev, symObjAddr: 0x22720, symBinAddr: 0x100025A00, symSize: 0x2C }
  - { offsetInCU: 0x4920A, offset: 0x4920A, size: 0x8, addend: 0x0, symName: __ZNSt3__16__treeINS_12__value_typeIiNS_6vectorIiNS_9allocatorIiEEEEEENS_19__map_value_compareIiS6_NS_4lessIiEELb1EEENS3_IS6_EEE25__emplace_unique_key_argsIiJRKNS_21piecewise_construct_tENS_5tupleIJOiEEENSH_IJEEEEEENS_4pairINS_15__tree_iteratorIS6_PNS_11__tree_nodeIS6_PvEElEEbEERKT_DpOT0_, symObjAddr: 0x2274C, symBinAddr: 0x100025A2C, symSize: 0x100 }
  - { offsetInCU: 0x492E0, offset: 0x492E0, size: 0x8, addend: 0x0, symName: __ZNSt3__16__treeINS_12__value_typeIiNS_6vectorIiNS_9allocatorIiEEEEEENS_19__map_value_compareIiS6_NS_4lessIiEELb1EEENS3_IS6_EEE16__construct_nodeIJRKNS_21piecewise_construct_tENS_5tupleIJOiEEENSH_IJEEEEEENS_10unique_ptrINS_11__tree_nodeIS6_PvEENS_22__tree_node_destructorINS3_ISO_EEEEEEDpOT_, symObjAddr: 0x22878, symBinAddr: 0x100025B58, symSize: 0x120 }
  - { offsetInCU: 0x49369, offset: 0x49369, size: 0x8, addend: 0x0, symName: __ZNSt3__116allocator_traitsINS_9allocatorINS_11__tree_nodeINS_12__value_typeIiNS_6vectorIiNS1_IiEEEEEEPvEEEEE9constructB7v160006INS_4pairIKiS6_EEJRKNS_21piecewise_construct_tENS_5tupleIJOiEEENSJ_IJEEEEvEEvRSA_PT_DpOT0_, symObjAddr: 0x22998, symBinAddr: 0x100025C78, symSize: 0x44 }
  - { offsetInCU: 0x493E8, offset: 0x493E8, size: 0x8, addend: 0x0, symName: __ZNSt3__19allocatorINS_11__tree_nodeINS_12__value_typeIiNS_6vectorIiNS0_IiEEEEEEPvEEE9constructB7v160006INS_4pairIKiS5_EEJRKNS_21piecewise_construct_tENS_5tupleIJOiEEENSH_IJEEEEEEvPT_DpOT0_, symObjAddr: 0x229DC, symBinAddr: 0x100025CBC, symSize: 0x44 }
  - { offsetInCU: 0x49464, offset: 0x49464, size: 0x8, addend: 0x0, symName: __ZNSt3__14pairIKiNS_6vectorIiNS_9allocatorIiEEEEEC1B7v160006IJOiEJEEENS_21piecewise_construct_tENS_5tupleIJDpT_EEENSA_IJDpT0_EEE, symObjAddr: 0x22A20, symBinAddr: 0x100025D00, symSize: 0x44 }
  - { offsetInCU: 0x494CB, offset: 0x494CB, size: 0x8, addend: 0x0, symName: __ZNSt3__14pairIKiNS_6vectorIiNS_9allocatorIiEEEEEC1B7v160006IJOiEJEJLm0EEJEEENS_21piecewise_construct_tERNS_5tupleIJDpT_EEERNSA_IJDpT0_EEENS_15__tuple_indicesIJXspT1_EEEENSJ_IJXspT2_EEEE, symObjAddr: 0x22A64, symBinAddr: 0x100025D44, symSize: 0x3C }
  - { offsetInCU: 0x49558, offset: 0x49558, size: 0x8, addend: 0x0, symName: __ZNSt3__14pairIKiNS_6vectorIiNS_9allocatorIiEEEEEC2B7v160006IJOiEJEJLm0EEJEEENS_21piecewise_construct_tERNS_5tupleIJDpT_EEERNSA_IJDpT0_EEENS_15__tuple_indicesIJXspT1_EEEENSJ_IJXspT2_EEEE, symObjAddr: 0x22AA0, symBinAddr: 0x100025D80, symSize: 0x4C }
  - { offsetInCU: 0x495E5, offset: 0x495E5, size: 0x8, addend: 0x0, symName: __ZNSt3__112__tuple_leafILm0EOiLb0EE3getB7v160006Ev, symObjAddr: 0x22B10, symBinAddr: 0x100025DF0, symSize: 0x18 }
  - { offsetInCU: 0x4960B, offset: 0x4960B, size: 0x8, addend: 0x0, symName: __ZNSt3__15tupleIJOiEEC1B7v160006IJiELi0EEEDpOT_, symObjAddr: 0x22B28, symBinAddr: 0x100025E08, symSize: 0x34 }
  - { offsetInCU: 0x49655, offset: 0x49655, size: 0x8, addend: 0x0, symName: __ZNSt3__15tupleIJOiEEC2B7v160006IJiELi0EEEDpOT_, symObjAddr: 0x22B5C, symBinAddr: 0x100025E3C, symSize: 0x34 }
  - { offsetInCU: 0x4969F, offset: 0x4969F, size: 0x8, addend: 0x0, symName: __ZNSt3__112__tuple_implINS_15__tuple_indicesIJLm0EEEEJOiEEC1B7v160006IJLm0EEJS3_EJEJEJiEEENS1_IJXspT_EEEENS_13__tuple_typesIJDpT0_EEENS1_IJXspT1_EEEENS7_IJDpT2_EEEDpOT3_, symObjAddr: 0x22B90, symBinAddr: 0x100025E70, symSize: 0x34 }
  - { offsetInCU: 0x49730, offset: 0x49730, size: 0x8, addend: 0x0, symName: __ZNSt3__112__tuple_implINS_15__tuple_indicesIJLm0EEEEJOiEEC2B7v160006IJLm0EEJS3_EJEJEJiEEENS1_IJXspT_EEEENS_13__tuple_typesIJDpT0_EEENS1_IJXspT1_EEEENS7_IJDpT2_EEEDpOT3_, symObjAddr: 0x22BC4, symBinAddr: 0x100025EA4, symSize: 0x34 }
  - { offsetInCU: 0x497C1, offset: 0x497C1, size: 0x8, addend: 0x0, symName: __ZNSt3__112__tuple_leafILm0EOiLb0EEC2B7v160006IivEEOT_, symObjAddr: 0x22BF8, symBinAddr: 0x100025ED8, symSize: 0x20 }
  - { offsetInCU: 0x49804, offset: 0x49804, size: 0x8, addend: 0x0, symName: __ZNSt3__16__treeI7LR1ItemNS_4lessIS1_EENS_9allocatorIS1_EEE14__insert_multiB7v160006IRKS1_EENS_15__tree_iteratorIS1_PNS_11__tree_nodeIS1_PvEElEEOT_, symObjAddr: 0x22C18, symBinAddr: 0x100025EF8, symSize: 0x34 }
  - { offsetInCU: 0x49842, offset: 0x49842, size: 0x8, addend: 0x0, symName: __ZNSt3__16__treeI7LR1ItemNS_4lessIS1_EENS_9allocatorIS1_EEE15__emplace_multiIJRKS1_EEENS_15__tree_iteratorIS1_PNS_11__tree_nodeIS1_PvEElEEDpOT_, symObjAddr: 0x22C4C, symBinAddr: 0x100025F2C, symSize: 0xAC }
  - { offsetInCU: 0x498B1, offset: 0x498B1, size: 0x8, addend: 0x0, symName: __ZNSt3__18multisetI7LR1ItemNS_4lessIS1_EENS_9allocatorIS1_EEEC2B7v160006Ev, symObjAddr: 0x22CF8, symBinAddr: 0x100025FD8, symSize: 0x30 }
  - { offsetInCU: 0x498DB, offset: 0x498DB, size: 0x8, addend: 0x0, symName: __ZNSt3__16__treeI7LR1ItemNS_4lessIS1_EENS_9allocatorIS1_EEEC1ERKS3_, symObjAddr: 0x22D28, symBinAddr: 0x100026008, symSize: 0x34 }
  - { offsetInCU: 0x49916, offset: 0x49916, size: 0x8, addend: 0x0, symName: __ZNSt3__16__treeI7LR1ItemNS_4lessIS1_EENS_9allocatorIS1_EEEC2ERKS3_, symObjAddr: 0x22D5C, symBinAddr: 0x10002603C, symSize: 0x7C }
  - { offsetInCU: 0x49951, offset: 0x49951, size: 0x8, addend: 0x0, symName: __ZNSt3__117__compressed_pairINS_15__tree_end_nodeIPNS_16__tree_node_baseIPvEEEENS_9allocatorINS_11__tree_nodeI7LR1ItemS3_EEEEEC1B7v160006ILb1EvEEv, symObjAddr: 0x22DD8, symBinAddr: 0x1000260B8, symSize: 0x2C }
  - { offsetInCU: 0x49986, offset: 0x49986, size: 0x8, addend: 0x0, symName: __ZNSt3__117__compressed_pairINS_15__tree_end_nodeIPNS_16__tree_node_baseIPvEEEENS_9allocatorINS_11__tree_nodeI7LR1ItemS3_EEEEEC2B7v160006ILb1EvEEv, symObjAddr: 0x22E04, symBinAddr: 0x1000260E4, symSize: 0x34 }
  - { offsetInCU: 0x499BB, offset: 0x499BB, size: 0x8, addend: 0x0, symName: __ZNSt3__122__compressed_pair_elemINS_9allocatorINS_11__tree_nodeI7LR1ItemPvEEEELi1ELb1EEC2B7v160006ENS_16__value_init_tagE, symObjAddr: 0x22E38, symBinAddr: 0x100026118, symSize: 0x2C }
  - { offsetInCU: 0x499EF, offset: 0x499EF, size: 0x8, addend: 0x0, symName: __ZNSt3__19allocatorINS_11__tree_nodeI7LR1ItemPvEEEC2B7v160006Ev, symObjAddr: 0x22E64, symBinAddr: 0x100026144, symSize: 0x2C }
  - { offsetInCU: 0x49A19, offset: 0x49A19, size: 0x8, addend: 0x0, symName: __ZNSt3__16__treeI7LR1ItemNS_4lessIS1_EENS_9allocatorIS1_EEE5clearEv, symObjAddr: 0x22E90, symBinAddr: 0x100026170, symSize: 0x74 }
  - { offsetInCU: 0x49A41, offset: 0x49A41, size: 0x8, addend: 0x0, symName: __ZNSt3__121__tree_const_iteratorI7LR1ItemPNS_11__tree_nodeIS1_PvEElEC2B7v160006Ev, symObjAddr: 0x22F04, symBinAddr: 0x1000261E4, symSize: 0x14 }
  - { offsetInCU: 0x49A6B, offset: 0x49A6B, size: 0x8, addend: 0x0, symName: __ZNSt3__16__treeI7LR1ItemNS_4lessIS1_EENS_9allocatorIS1_EEE4findIS1_EENS_15__tree_iteratorIS1_PNS_11__tree_nodeIS1_PvEElEERKT_, symObjAddr: 0x22F18, symBinAddr: 0x1000261F8, symSize: 0xF8 }
  - { offsetInCU: 0x49ABA, offset: 0x49ABA, size: 0x8, addend: 0x0, symName: __ZNSt3__16__treeI7LR1ItemNS_4lessIS1_EENS_9allocatorIS1_EEE13__lower_boundIS1_EENS_15__tree_iteratorIS1_PNS_11__tree_nodeIS1_PvEElEERKT_SC_PNS_15__tree_end_nodeIPNS_16__tree_node_baseISA_EEEE, symObjAddr: 0x23010, symBinAddr: 0x1000262F0, symSize: 0xA4 }
  - { offsetInCU: 0x49B18, offset: 0x49B18, size: 0x8, addend: 0x0, symName: __ZNKSt3__115__tree_iteratorI7LR1ItemPNS_11__tree_nodeIS1_PvEElEdeB7v160006Ev, symObjAddr: 0x230E8, symBinAddr: 0x1000263C8, symSize: 0x28 }
  - { offsetInCU: 0x49B3E, offset: 0x49B3E, size: 0x8, addend: 0x0, symName: __ZNKSt3__115__tree_iteratorI7LR1ItemPNS_11__tree_nodeIS1_PvEElE8__get_npB7v160006Ev, symObjAddr: 0x23140, symBinAddr: 0x100026420, symSize: 0x18 }
  - { offsetInCU: 0x49B64, offset: 0x49B64, size: 0x8, addend: 0x0, symName: __ZNSt3__16__treeI7LR1ItemNS_4lessIS1_EENS_9allocatorIS1_EEE5eraseENS_21__tree_const_iteratorIS1_PNS_11__tree_nodeIS1_PvEElEE, symObjAddr: 0x23158, symBinAddr: 0x100026438, symSize: 0x98 }
  - { offsetInCU: 0x49BC8, offset: 0x49BC8, size: 0x8, addend: 0x0, symName: __ZNSt3__16__treeI7LR1ItemNS_4lessIS1_EENS_9allocatorIS1_EEE21__remove_node_pointerEPNS_11__tree_nodeIS1_PvEE, symObjAddr: 0x231F0, symBinAddr: 0x1000264D0, symSize: 0xB4 }
  - { offsetInCU: 0x49C0E, offset: 0x49C0E, size: 0x8, addend: 0x0, symName: __ZNSt3__115__tree_iteratorI7LR1ItemPNS_11__tree_nodeIS1_PvEElEppB7v160006Ev, symObjAddr: 0x232A4, symBinAddr: 0x100026584, symSize: 0x38 }
  - { offsetInCU: 0x49C34, offset: 0x49C34, size: 0x8, addend: 0x0, symName: __ZNSt3__15queueINS_8multisetI7LR1ItemNS_4lessIS2_EENS_9allocatorIS2_EEEENS_5dequeIS7_NS5_IS7_EEEEEC2B7v160006Ev, symObjAddr: 0x23A3C, symBinAddr: 0x100026D1C, symSize: 0x2C }
  - { offsetInCU: 0x49C5E, offset: 0x49C5E, size: 0x8, addend: 0x0, symName: __ZNSt3__15dequeINS_8multisetI7LR1ItemNS_4lessIS2_EENS_9allocatorIS2_EEEENS5_IS7_EEEC1B7v160006Ev, symObjAddr: 0x23A68, symBinAddr: 0x100026D48, symSize: 0x2C }
  - { offsetInCU: 0x49C88, offset: 0x49C88, size: 0x8, addend: 0x0, symName: __ZNSt3__15dequeINS_8multisetI7LR1ItemNS_4lessIS2_EENS_9allocatorIS2_EEEENS5_IS7_EEEC2B7v160006Ev, symObjAddr: 0x23A94, symBinAddr: 0x100026D74, symSize: 0x50 }
  - { offsetInCU: 0x49CB2, offset: 0x49CB2, size: 0x8, addend: 0x0, symName: __ZNSt3__114__split_bufferIPNS_8multisetI7LR1ItemNS_4lessIS2_EENS_9allocatorIS2_EEEENS5_IS8_EEEC1Ev, symObjAddr: 0x23AE4, symBinAddr: 0x100026DC4, symSize: 0x2C }
  - { offsetInCU: 0x49CDE, offset: 0x49CDE, size: 0x8, addend: 0x0, symName: __ZNSt3__117__compressed_pairImNS_9allocatorINS_8multisetI7LR1ItemNS_4lessIS3_EENS1_IS3_EEEEEEEC1B7v160006IiNS_18__default_init_tagEEEOT_OT0_, symObjAddr: 0x23B10, symBinAddr: 0x100026DF0, symSize: 0x3C }
  - { offsetInCU: 0x49D36, offset: 0x49D36, size: 0x8, addend: 0x0, symName: __ZNSt3__114__split_bufferIPNS_8multisetI7LR1ItemNS_4lessIS2_EENS_9allocatorIS2_EEEENS5_IS8_EEEC2Ev, symObjAddr: 0x23B4C, symBinAddr: 0x100026E2C, symSize: 0x50 }
  - { offsetInCU: 0x49D62, offset: 0x49D62, size: 0x8, addend: 0x0, symName: __ZNSt3__117__compressed_pairIPPNS_8multisetI7LR1ItemNS_4lessIS2_EENS_9allocatorIS2_EEEENS5_IS8_EEEC1B7v160006IDnNS_18__default_init_tagEEEOT_OT0_, symObjAddr: 0x23B9C, symBinAddr: 0x100026E7C, symSize: 0x3C }
  - { offsetInCU: 0x49DBA, offset: 0x49DBA, size: 0x8, addend: 0x0, symName: __ZNSt3__117__compressed_pairIPPNS_8multisetI7LR1ItemNS_4lessIS2_EENS_9allocatorIS2_EEEENS5_IS8_EEEC2B7v160006IDnNS_18__default_init_tagEEEOT_OT0_, symObjAddr: 0x23BD8, symBinAddr: 0x100026EB8, symSize: 0x40 }
  - { offsetInCU: 0x49E12, offset: 0x49E12, size: 0x8, addend: 0x0, symName: __ZNSt3__122__compressed_pair_elemIPPNS_8multisetI7LR1ItemNS_4lessIS2_EENS_9allocatorIS2_EEEELi0ELb0EEC2B7v160006IDnvEEOT_, symObjAddr: 0x23C18, symBinAddr: 0x100026EF8, symSize: 0x1C }
  - { offsetInCU: 0x49E54, offset: 0x49E54, size: 0x8, addend: 0x0, symName: __ZNSt3__122__compressed_pair_elemINS_9allocatorIPNS_8multisetI7LR1ItemNS_4lessIS3_EENS1_IS3_EEEEEELi1ELb1EEC2B7v160006ENS_18__default_init_tagE, symObjAddr: 0x23C34, symBinAddr: 0x100026F14, symSize: 0x2C }
  - { offsetInCU: 0x49E88, offset: 0x49E88, size: 0x8, addend: 0x0, symName: __ZNSt3__19allocatorIPNS_8multisetI7LR1ItemNS_4lessIS2_EENS0_IS2_EEEEEC2B7v160006Ev, symObjAddr: 0x23C60, symBinAddr: 0x100026F40, symSize: 0x2C }
  - { offsetInCU: 0x49EB2, offset: 0x49EB2, size: 0x8, addend: 0x0, symName: __ZNSt3__116__non_trivial_ifILb1ENS_9allocatorIPNS_8multisetI7LR1ItemNS_4lessIS3_EENS1_IS3_EEEEEEEC2B7v160006Ev, symObjAddr: 0x23C8C, symBinAddr: 0x100026F6C, symSize: 0x14 }
  - { offsetInCU: 0x49EDC, offset: 0x49EDC, size: 0x8, addend: 0x0, symName: __ZNSt3__117__compressed_pairImNS_9allocatorINS_8multisetI7LR1ItemNS_4lessIS3_EENS1_IS3_EEEEEEEC2B7v160006IiNS_18__default_init_tagEEEOT_OT0_, symObjAddr: 0x23CA0, symBinAddr: 0x100026F80, symSize: 0x40 }
  - { offsetInCU: 0x49F34, offset: 0x49F34, size: 0x8, addend: 0x0, symName: __ZNSt3__122__compressed_pair_elemINS_9allocatorINS_8multisetI7LR1ItemNS_4lessIS3_EENS1_IS3_EEEEEELi1ELb1EEC2B7v160006ENS_18__default_init_tagE, symObjAddr: 0x23CE0, symBinAddr: 0x100026FC0, symSize: 0x2C }
  - { offsetInCU: 0x49F68, offset: 0x49F68, size: 0x8, addend: 0x0, symName: __ZNSt3__19allocatorINS_8multisetI7LR1ItemNS_4lessIS2_EENS0_IS2_EEEEEC2B7v160006Ev, symObjAddr: 0x23D0C, symBinAddr: 0x100026FEC, symSize: 0x2C }
  - { offsetInCU: 0x49F92, offset: 0x49F92, size: 0x8, addend: 0x0, symName: __ZNSt3__116__non_trivial_ifILb1ENS_9allocatorINS_8multisetI7LR1ItemNS_4lessIS3_EENS1_IS3_EEEEEEEC2B7v160006Ev, symObjAddr: 0x23D38, symBinAddr: 0x100027018, symSize: 0x14 }
  - { offsetInCU: 0x49FBC, offset: 0x49FBC, size: 0x8, addend: 0x0, symName: __ZNSt3__16vectorI8LR1StateNS_9allocatorIS1_EEEC2B7v160006Ev, symObjAddr: 0x23D4C, symBinAddr: 0x10002702C, symSize: 0x58 }
  - { offsetInCU: 0x49FE6, offset: 0x49FE6, size: 0x8, addend: 0x0, symName: __ZNSt3__117__compressed_pairIP8LR1StateNS_9allocatorIS1_EEEC1B7v160006IDnNS_18__default_init_tagEEEOT_OT0_, symObjAddr: 0x23DA4, symBinAddr: 0x100027084, symSize: 0x3C }
  - { offsetInCU: 0x4A03E, offset: 0x4A03E, size: 0x8, addend: 0x0, symName: __ZNSt3__117__compressed_pairIP8LR1StateNS_9allocatorIS1_EEEC2B7v160006IDnNS_18__default_init_tagEEEOT_OT0_, symObjAddr: 0x23DF0, symBinAddr: 0x1000270D0, symSize: 0x40 }
  - { offsetInCU: 0x4A096, offset: 0x4A096, size: 0x8, addend: 0x0, symName: __ZNSt3__122__compressed_pair_elemIP8LR1StateLi0ELb0EEC2B7v160006IDnvEEOT_, symObjAddr: 0x23E30, symBinAddr: 0x100027110, symSize: 0x1C }
  - { offsetInCU: 0x4A0D8, offset: 0x4A0D8, size: 0x8, addend: 0x0, symName: __ZNSt3__122__compressed_pair_elemINS_9allocatorI8LR1StateEELi1ELb1EEC2B7v160006ENS_18__default_init_tagE, symObjAddr: 0x23E4C, symBinAddr: 0x10002712C, symSize: 0x2C }
  - { offsetInCU: 0x4A10C, offset: 0x4A10C, size: 0x8, addend: 0x0, symName: __ZNSt3__19allocatorI8LR1StateEC2B7v160006Ev, symObjAddr: 0x23E78, symBinAddr: 0x100027158, symSize: 0x2C }
  - { offsetInCU: 0x4A136, offset: 0x4A136, size: 0x8, addend: 0x0, symName: __ZNSt3__116__non_trivial_ifILb1ENS_9allocatorI8LR1StateEEEC2B7v160006Ev, symObjAddr: 0x23EA4, symBinAddr: 0x100027184, symSize: 0x14 }
  - { offsetInCU: 0x4A160, offset: 0x4A160, size: 0x8, addend: 0x0, symName: __ZNSt3__16vectorI8LR1StateNS_9allocatorIS1_EEED2B7v160006Ev, symObjAddr: 0x23EB8, symBinAddr: 0x100027198, symSize: 0x44 }
  - { offsetInCU: 0x4A18A, offset: 0x4A18A, size: 0x8, addend: 0x0, symName: __ZNSt3__16vectorI8LR1StateNS_9allocatorIS1_EEE16__destroy_vectorC1ERS4_, symObjAddr: 0x23EFC, symBinAddr: 0x1000271DC, symSize: 0x34 }
  - { offsetInCU: 0x4A1C3, offset: 0x4A1C3, size: 0x8, addend: 0x0, symName: __ZNSt3__16vectorI8LR1StateNS_9allocatorIS1_EEE16__destroy_vectorclB7v160006Ev, symObjAddr: 0x23F30, symBinAddr: 0x100027210, symSize: 0x9C }
  - { offsetInCU: 0x4A1E9, offset: 0x4A1E9, size: 0x8, addend: 0x0, symName: __ZNSt3__16vectorI8LR1StateNS_9allocatorIS1_EEE16__destroy_vectorC2ERS4_, symObjAddr: 0x23FCC, symBinAddr: 0x1000272AC, symSize: 0x20 }
  - { offsetInCU: 0x4A222, offset: 0x4A222, size: 0x8, addend: 0x0, symName: __ZNKSt3__16vectorI8LR1StateNS_9allocatorIS1_EEE17__annotate_deleteB7v160006Ev, symObjAddr: 0x23FEC, symBinAddr: 0x1000272CC, symSize: 0xD4 }
  - { offsetInCU: 0x4A248, offset: 0x4A248, size: 0x8, addend: 0x0, symName: __ZNSt3__16vectorI8LR1StateNS_9allocatorIS1_EEE7__clearB7v160006Ev, symObjAddr: 0x240D0, symBinAddr: 0x1000273B0, symSize: 0x28 }
  - { offsetInCU: 0x4A26E, offset: 0x4A26E, size: 0x8, addend: 0x0, symName: __ZNSt3__116allocator_traitsINS_9allocatorI8LR1StateEEE10deallocateB7v160006ERS3_PS2_m, symObjAddr: 0x240F8, symBinAddr: 0x1000273D8, symSize: 0x34 }
  - { offsetInCU: 0x4A2B0, offset: 0x4A2B0, size: 0x8, addend: 0x0, symName: __ZNSt3__16vectorI8LR1StateNS_9allocatorIS1_EEE7__allocB7v160006Ev, symObjAddr: 0x2412C, symBinAddr: 0x10002740C, symSize: 0x28 }
  - { offsetInCU: 0x4A2D6, offset: 0x4A2D6, size: 0x8, addend: 0x0, symName: __ZNKSt3__16vectorI8LR1StateNS_9allocatorIS1_EEE8capacityB7v160006Ev, symObjAddr: 0x24154, symBinAddr: 0x100027434, symSize: 0x40 }
  - { offsetInCU: 0x4A2FC, offset: 0x4A2FC, size: 0x8, addend: 0x0, symName: __ZNKSt3__16vectorI8LR1StateNS_9allocatorIS1_EEE31__annotate_contiguous_containerB7v160006EPKvS6_S6_S6_, symObjAddr: 0x24194, symBinAddr: 0x100027474, symSize: 0x20 }
  - { offsetInCU: 0x4A34E, offset: 0x4A34E, size: 0x8, addend: 0x0, symName: __ZNKSt3__16vectorI8LR1StateNS_9allocatorIS1_EEE4dataB7v160006Ev, symObjAddr: 0x241B4, symBinAddr: 0x100027494, symSize: 0x28 }
  - { offsetInCU: 0x4A374, offset: 0x4A374, size: 0x8, addend: 0x0, symName: __ZNKSt3__16vectorI8LR1StateNS_9allocatorIS1_EEE4sizeB7v160006Ev, symObjAddr: 0x241DC, symBinAddr: 0x1000274BC, symSize: 0x28 }
  - { offsetInCU: 0x4A39A, offset: 0x4A39A, size: 0x8, addend: 0x0, symName: __ZNSt3__16vectorI8LR1StateNS_9allocatorIS1_EEE22__base_destruct_at_endB7v160006EPS1_, symObjAddr: 0x24218, symBinAddr: 0x1000274F8, symSize: 0x8C }
  - { offsetInCU: 0x4A3DE, offset: 0x4A3DE, size: 0x8, addend: 0x0, symName: __ZNSt3__116allocator_traitsINS_9allocatorI8LR1StateEEE7destroyB7v160006IS2_vEEvRS3_PT_, symObjAddr: 0x242A4, symBinAddr: 0x100027584, symSize: 0x2C }
  - { offsetInCU: 0x4A41B, offset: 0x4A41B, size: 0x8, addend: 0x0, symName: __ZNSt3__19allocatorI8LR1StateE7destroyB7v160006EPS1_, symObjAddr: 0x242D0, symBinAddr: 0x1000275B0, symSize: 0x28 }
  - { offsetInCU: 0x4A44F, offset: 0x4A44F, size: 0x8, addend: 0x0, symName: __ZNSt3__19allocatorI8LR1StateE10deallocateB7v160006EPS1_m, symObjAddr: 0x242F8, symBinAddr: 0x1000275D8, symSize: 0x44 }
  - { offsetInCU: 0x4A491, offset: 0x4A491, size: 0x8, addend: 0x0, symName: __ZNSt3__117__compressed_pairIP8LR1StateNS_9allocatorIS1_EEE6secondB7v160006Ev, symObjAddr: 0x2433C, symBinAddr: 0x10002761C, symSize: 0x24 }
  - { offsetInCU: 0x4A4B7, offset: 0x4A4B7, size: 0x8, addend: 0x0, symName: __ZNSt3__122__compressed_pair_elemINS_9allocatorI8LR1StateEELi1ELb1EE5__getB7v160006Ev, symObjAddr: 0x24360, symBinAddr: 0x100027640, symSize: 0x14 }
  - { offsetInCU: 0x4A4DD, offset: 0x4A4DD, size: 0x8, addend: 0x0, symName: __ZNKSt3__16vectorI8LR1StateNS_9allocatorIS1_EEE9__end_capB7v160006Ev, symObjAddr: 0x24374, symBinAddr: 0x100027654, symSize: 0x28 }
  - { offsetInCU: 0x4A503, offset: 0x4A503, size: 0x8, addend: 0x0, symName: __ZNKSt3__117__compressed_pairIP8LR1StateNS_9allocatorIS1_EEE5firstB7v160006Ev, symObjAddr: 0x2439C, symBinAddr: 0x10002767C, symSize: 0x24 }
  - { offsetInCU: 0x4A529, offset: 0x4A529, size: 0x8, addend: 0x0, symName: __ZNKSt3__122__compressed_pair_elemIP8LR1StateLi0ELb0EE5__getB7v160006Ev, symObjAddr: 0x243C0, symBinAddr: 0x1000276A0, symSize: 0x14 }
  - { offsetInCU: 0x4A54F, offset: 0x4A54F, size: 0x8, addend: 0x0, symName: __ZNSt3__113unordered_mapIiNS_8multisetI7LR1ItemNS_4lessIS2_EENS_9allocatorIS2_EEEENS_4hashIiEENS_8equal_toIiEENS5_INS_4pairIKiS7_EEEEEC2B7v160006Ev, symObjAddr: 0x243D4, symBinAddr: 0x1000276B4, symSize: 0x3C }
  - { offsetInCU: 0x4A579, offset: 0x4A579, size: 0x8, addend: 0x0, symName: __ZNSt3__112__hash_tableINS_17__hash_value_typeIiNS_8multisetI7LR1ItemNS_4lessIS3_EENS_9allocatorIS3_EEEEEENS_22__unordered_map_hasherIiS9_NS_4hashIiEENS_8equal_toIiEELb1EEENS_21__unordered_map_equalIiS9_SE_SC_Lb1EEENS6_IS9_EEEC1Ev, symObjAddr: 0x24410, symBinAddr: 0x1000276F0, symSize: 0x2C }
  - { offsetInCU: 0x4A5A5, offset: 0x4A5A5, size: 0x8, addend: 0x0, symName: __ZNSt3__112__hash_tableINS_17__hash_value_typeIiNS_8multisetI7LR1ItemNS_4lessIS3_EENS_9allocatorIS3_EEEEEENS_22__unordered_map_hasherIiS9_NS_4hashIiEENS_8equal_toIiEELb1EEENS_21__unordered_map_equalIiS9_SE_SC_Lb1EEENS6_IS9_EEEC2Ev, symObjAddr: 0x2444C, symBinAddr: 0x10002772C, symSize: 0x7C }
  - { offsetInCU: 0x4A5D1, offset: 0x4A5D1, size: 0x8, addend: 0x0, symName: __ZNSt3__110unique_ptrIA_PNS_16__hash_node_baseIPNS_11__hash_nodeINS_17__hash_value_typeIiNS_8multisetI7LR1ItemNS_4lessIS5_EENS_9allocatorIS5_EEEEEEPvEEEENS_25__bucket_list_deallocatorINS8_ISG_EEEEEC1B7v160006ILb1EvEEv, symObjAddr: 0x244C8, symBinAddr: 0x1000277A8, symSize: 0x2C }
  - { offsetInCU: 0x4A606, offset: 0x4A606, size: 0x8, addend: 0x0, symName: __ZNSt3__117__compressed_pairINS_16__hash_node_baseIPNS_11__hash_nodeINS_17__hash_value_typeIiNS_8multisetI7LR1ItemNS_4lessIS5_EENS_9allocatorIS5_EEEEEEPvEEEENS8_ISD_EEEC1B7v160006ILb1EvEEv, symObjAddr: 0x244F4, symBinAddr: 0x1000277D4, symSize: 0x2C }
  - { offsetInCU: 0x4A63B, offset: 0x4A63B, size: 0x8, addend: 0x0, symName: __ZNSt3__117__compressed_pairImNS_22__unordered_map_hasherIiNS_17__hash_value_typeIiNS_8multisetI7LR1ItemNS_4lessIS4_EENS_9allocatorIS4_EEEEEENS_4hashIiEENS_8equal_toIiEELb1EEEEC1B7v160006IiNS_18__default_init_tagEEEOT_OT0_, symObjAddr: 0x24520, symBinAddr: 0x100027800, symSize: 0x3C }
  - { offsetInCU: 0x4A699, offset: 0x4A699, size: 0x8, addend: 0x0, symName: __ZNSt3__117__compressed_pairIfNS_21__unordered_map_equalIiNS_17__hash_value_typeIiNS_8multisetI7LR1ItemNS_4lessIS4_EENS_9allocatorIS4_EEEEEENS_8equal_toIiEENS_4hashIiEELb1EEEEC1B7v160006IfNS_18__default_init_tagEEEOT_OT0_, symObjAddr: 0x2455C, symBinAddr: 0x10002783C, symSize: 0x3C }
  - { offsetInCU: 0x4A6F1, offset: 0x4A6F1, size: 0x8, addend: 0x0, symName: __ZNSt3__110unique_ptrIA_PNS_16__hash_node_baseIPNS_11__hash_nodeINS_17__hash_value_typeIiNS_8multisetI7LR1ItemNS_4lessIS5_EENS_9allocatorIS5_EEEEEEPvEEEENS_25__bucket_list_deallocatorINS8_ISG_EEEEEC2B7v160006ILb1EvEEv, symObjAddr: 0x24598, symBinAddr: 0x100027878, symSize: 0x3C }
  - { offsetInCU: 0x4A72C, offset: 0x4A72C, size: 0x8, addend: 0x0, symName: __ZNSt3__117__compressed_pairIPPNS_16__hash_node_baseIPNS_11__hash_nodeINS_17__hash_value_typeIiNS_8multisetI7LR1ItemNS_4lessIS5_EENS_9allocatorIS5_EEEEEEPvEEEENS_25__bucket_list_deallocatorINS8_ISG_EEEEEC1B7v160006INS_16__value_init_tagESN_EEOT_OT0_, symObjAddr: 0x245D4, symBinAddr: 0x1000278B4, symSize: 0x3C }
  - { offsetInCU: 0x4A784, offset: 0x4A784, size: 0x8, addend: 0x0, symName: __ZNSt3__117__compressed_pairIPPNS_16__hash_node_baseIPNS_11__hash_nodeINS_17__hash_value_typeIiNS_8multisetI7LR1ItemNS_4lessIS5_EENS_9allocatorIS5_EEEEEEPvEEEENS_25__bucket_list_deallocatorINS8_ISG_EEEEEC2B7v160006INS_16__value_init_tagESN_EEOT_OT0_, symObjAddr: 0x24610, symBinAddr: 0x1000278F0, symSize: 0x40 }
  - { offsetInCU: 0x4A7DC, offset: 0x4A7DC, size: 0x8, addend: 0x0, symName: __ZNSt3__122__compressed_pair_elemIPPNS_16__hash_node_baseIPNS_11__hash_nodeINS_17__hash_value_typeIiNS_8multisetI7LR1ItemNS_4lessIS5_EENS_9allocatorIS5_EEEEEEPvEEEELi0ELb0EEC2B7v160006ENS_16__value_init_tagE, symObjAddr: 0x24650, symBinAddr: 0x100027930, symSize: 0x18 }
  - { offsetInCU: 0x4A810, offset: 0x4A810, size: 0x8, addend: 0x0, symName: __ZNSt3__122__compressed_pair_elemINS_25__bucket_list_deallocatorINS_9allocatorIPNS_16__hash_node_baseIPNS_11__hash_nodeINS_17__hash_value_typeIiNS_8multisetI7LR1ItemNS_4lessIS7_EENS2_IS7_EEEEEEPvEEEEEEEELi1ELb0EEC2B7v160006ENS_16__value_init_tagE, symObjAddr: 0x24668, symBinAddr: 0x100027948, symSize: 0x2C }
  - { offsetInCU: 0x4A844, offset: 0x4A844, size: 0x8, addend: 0x0, symName: __ZNSt3__125__bucket_list_deallocatorINS_9allocatorIPNS_16__hash_node_baseIPNS_11__hash_nodeINS_17__hash_value_typeIiNS_8multisetI7LR1ItemNS_4lessIS6_EENS1_IS6_EEEEEEPvEEEEEEEC1B7v160006Ev, symObjAddr: 0x24694, symBinAddr: 0x100027974, symSize: 0x2C }
  - { offsetInCU: 0x4A86E, offset: 0x4A86E, size: 0x8, addend: 0x0, symName: __ZNSt3__125__bucket_list_deallocatorINS_9allocatorIPNS_16__hash_node_baseIPNS_11__hash_nodeINS_17__hash_value_typeIiNS_8multisetI7LR1ItemNS_4lessIS6_EENS1_IS6_EEEEEEPvEEEEEEEC2B7v160006Ev, symObjAddr: 0x246C0, symBinAddr: 0x1000279A0, symSize: 0x40 }
  - { offsetInCU: 0x4A898, offset: 0x4A898, size: 0x8, addend: 0x0, symName: __ZNSt3__117__compressed_pairImNS_9allocatorIPNS_16__hash_node_baseIPNS_11__hash_nodeINS_17__hash_value_typeIiNS_8multisetI7LR1ItemNS_4lessIS6_EENS1_IS6_EEEEEEPvEEEEEEEC1B7v160006IiNS_18__default_init_tagEEEOT_OT0_, symObjAddr: 0x24700, symBinAddr: 0x1000279E0, symSize: 0x3C }
  - { offsetInCU: 0x4A8F0, offset: 0x4A8F0, size: 0x8, addend: 0x0, symName: __ZNSt3__117__compressed_pairImNS_9allocatorIPNS_16__hash_node_baseIPNS_11__hash_nodeINS_17__hash_value_typeIiNS_8multisetI7LR1ItemNS_4lessIS6_EENS1_IS6_EEEEEEPvEEEEEEEC2B7v160006IiNS_18__default_init_tagEEEOT_OT0_, symObjAddr: 0x2473C, symBinAddr: 0x100027A1C, symSize: 0x40 }
  - { offsetInCU: 0x4A948, offset: 0x4A948, size: 0x8, addend: 0x0, symName: __ZNSt3__122__compressed_pair_elemINS_9allocatorIPNS_16__hash_node_baseIPNS_11__hash_nodeINS_17__hash_value_typeIiNS_8multisetI7LR1ItemNS_4lessIS6_EENS1_IS6_EEEEEEPvEEEEEELi1ELb1EEC2B7v160006ENS_18__default_init_tagE, symObjAddr: 0x2477C, symBinAddr: 0x100027A5C, symSize: 0x2C }
  - { offsetInCU: 0x4A97C, offset: 0x4A97C, size: 0x8, addend: 0x0, symName: __ZNSt3__19allocatorIPNS_16__hash_node_baseIPNS_11__hash_nodeINS_17__hash_value_typeIiNS_8multisetI7LR1ItemNS_4lessIS5_EENS0_IS5_EEEEEEPvEEEEEC2B7v160006Ev, symObjAddr: 0x247A8, symBinAddr: 0x100027A88, symSize: 0x2C }
  - { offsetInCU: 0x4A9A6, offset: 0x4A9A6, size: 0x8, addend: 0x0, symName: __ZNSt3__116__non_trivial_ifILb1ENS_9allocatorIPNS_16__hash_node_baseIPNS_11__hash_nodeINS_17__hash_value_typeIiNS_8multisetI7LR1ItemNS_4lessIS6_EENS1_IS6_EEEEEEPvEEEEEEEC2B7v160006Ev, symObjAddr: 0x247D4, symBinAddr: 0x100027AB4, symSize: 0x14 }
  - { offsetInCU: 0x4A9D0, offset: 0x4A9D0, size: 0x8, addend: 0x0, symName: __ZNSt3__117__compressed_pairINS_16__hash_node_baseIPNS_11__hash_nodeINS_17__hash_value_typeIiNS_8multisetI7LR1ItemNS_4lessIS5_EENS_9allocatorIS5_EEEEEEPvEEEENS8_ISD_EEEC2B7v160006ILb1EvEEv, symObjAddr: 0x247E8, symBinAddr: 0x100027AC8, symSize: 0x34 }
  - { offsetInCU: 0x4AA05, offset: 0x4AA05, size: 0x8, addend: 0x0, symName: __ZNSt3__122__compressed_pair_elemINS_16__hash_node_baseIPNS_11__hash_nodeINS_17__hash_value_typeIiNS_8multisetI7LR1ItemNS_4lessIS5_EENS_9allocatorIS5_EEEEEEPvEEEELi0ELb0EEC2B7v160006ENS_16__value_init_tagE, symObjAddr: 0x2481C, symBinAddr: 0x100027AFC, symSize: 0x2C }
  - { offsetInCU: 0x4AA39, offset: 0x4AA39, size: 0x8, addend: 0x0, symName: __ZNSt3__122__compressed_pair_elemINS_9allocatorINS_11__hash_nodeINS_17__hash_value_typeIiNS_8multisetI7LR1ItemNS_4lessIS5_EENS1_IS5_EEEEEEPvEEEELi1ELb1EEC2B7v160006ENS_16__value_init_tagE, symObjAddr: 0x24848, symBinAddr: 0x100027B28, symSize: 0x2C }
  - { offsetInCU: 0x4AA6D, offset: 0x4AA6D, size: 0x8, addend: 0x0, symName: __ZNSt3__116__hash_node_baseIPNS_11__hash_nodeINS_17__hash_value_typeIiNS_8multisetI7LR1ItemNS_4lessIS4_EENS_9allocatorIS4_EEEEEEPvEEEC1B7v160006Ev, symObjAddr: 0x24874, symBinAddr: 0x100027B54, symSize: 0x2C }
  - { offsetInCU: 0x4AA97, offset: 0x4AA97, size: 0x8, addend: 0x0, symName: __ZNSt3__116__hash_node_baseIPNS_11__hash_nodeINS_17__hash_value_typeIiNS_8multisetI7LR1ItemNS_4lessIS4_EENS_9allocatorIS4_EEEEEEPvEEEC2B7v160006Ev, symObjAddr: 0x248A0, symBinAddr: 0x100027B80, symSize: 0x18 }
  - { offsetInCU: 0x4AAC1, offset: 0x4AAC1, size: 0x8, addend: 0x0, symName: __ZNSt3__19allocatorINS_11__hash_nodeINS_17__hash_value_typeIiNS_8multisetI7LR1ItemNS_4lessIS4_EENS0_IS4_EEEEEEPvEEEC2B7v160006Ev, symObjAddr: 0x248B8, symBinAddr: 0x100027B98, symSize: 0x2C }
  - { offsetInCU: 0x4AAEB, offset: 0x4AAEB, size: 0x8, addend: 0x0, symName: __ZNSt3__116__non_trivial_ifILb1ENS_9allocatorINS_11__hash_nodeINS_17__hash_value_typeIiNS_8multisetI7LR1ItemNS_4lessIS5_EENS1_IS5_EEEEEEPvEEEEEC2B7v160006Ev, symObjAddr: 0x248E4, symBinAddr: 0x100027BC4, symSize: 0x14 }
  - { offsetInCU: 0x4AB15, offset: 0x4AB15, size: 0x8, addend: 0x0, symName: __ZNSt3__117__compressed_pairImNS_22__unordered_map_hasherIiNS_17__hash_value_typeIiNS_8multisetI7LR1ItemNS_4lessIS4_EENS_9allocatorIS4_EEEEEENS_4hashIiEENS_8equal_toIiEELb1EEEEC2B7v160006IiNS_18__default_init_tagEEEOT_OT0_, symObjAddr: 0x248F8, symBinAddr: 0x100027BD8, symSize: 0x40 }
  - { offsetInCU: 0x4AB6D, offset: 0x4AB6D, size: 0x8, addend: 0x0, symName: __ZNSt3__122__compressed_pair_elemINS_22__unordered_map_hasherIiNS_17__hash_value_typeIiNS_8multisetI7LR1ItemNS_4lessIS4_EENS_9allocatorIS4_EEEEEENS_4hashIiEENS_8equal_toIiEELb1EEELi1ELb1EEC2B7v160006ENS_18__default_init_tagE, symObjAddr: 0x24938, symBinAddr: 0x100027C18, symSize: 0x2C }
  - { offsetInCU: 0x4ABA1, offset: 0x4ABA1, size: 0x8, addend: 0x0, symName: __ZNSt3__122__unordered_map_hasherIiNS_17__hash_value_typeIiNS_8multisetI7LR1ItemNS_4lessIS3_EENS_9allocatorIS3_EEEEEENS_4hashIiEENS_8equal_toIiEELb1EEC2B7v160006Ev, symObjAddr: 0x24964, symBinAddr: 0x100027C44, symSize: 0x14 }
  - { offsetInCU: 0x4ABCB, offset: 0x4ABCB, size: 0x8, addend: 0x0, symName: __ZNSt3__117__compressed_pairIfNS_21__unordered_map_equalIiNS_17__hash_value_typeIiNS_8multisetI7LR1ItemNS_4lessIS4_EENS_9allocatorIS4_EEEEEENS_8equal_toIiEENS_4hashIiEELb1EEEEC2B7v160006IfNS_18__default_init_tagEEEOT_OT0_, symObjAddr: 0x24978, symBinAddr: 0x100027C58, symSize: 0x40 }
  - { offsetInCU: 0x4AC23, offset: 0x4AC23, size: 0x8, addend: 0x0, symName: __ZNSt3__122__compressed_pair_elemIfLi0ELb0EEC2B7v160006IfvEEOT_, symObjAddr: 0x249B8, symBinAddr: 0x100027C98, symSize: 0x24 }
  - { offsetInCU: 0x4AC65, offset: 0x4AC65, size: 0x8, addend: 0x0, symName: __ZNSt3__122__compressed_pair_elemINS_21__unordered_map_equalIiNS_17__hash_value_typeIiNS_8multisetI7LR1ItemNS_4lessIS4_EENS_9allocatorIS4_EEEEEENS_8equal_toIiEENS_4hashIiEELb1EEELi1ELb1EEC2B7v160006ENS_18__default_init_tagE, symObjAddr: 0x249DC, symBinAddr: 0x100027CBC, symSize: 0x2C }
  - { offsetInCU: 0x4AC99, offset: 0x4AC99, size: 0x8, addend: 0x0, symName: __ZNSt3__121__unordered_map_equalIiNS_17__hash_value_typeIiNS_8multisetI7LR1ItemNS_4lessIS3_EENS_9allocatorIS3_EEEEEENS_8equal_toIiEENS_4hashIiEELb1EEC2B7v160006Ev, symObjAddr: 0x24A08, symBinAddr: 0x100027CE8, symSize: 0x14 }
  - { offsetInCU: 0x4ACC3, offset: 0x4ACC3, size: 0x8, addend: 0x0, symName: __ZNSt3__113unordered_mapIiNS_8multisetI7LR1ItemNS_4lessIS2_EENS_9allocatorIS2_EEEENS_4hashIiEENS_8equal_toIiEENS5_INS_4pairIKiS7_EEEEED2B7v160006Ev, symObjAddr: 0x24A1C, symBinAddr: 0x100027CFC, symSize: 0x2C }
  - { offsetInCU: 0x4ACED, offset: 0x4ACED, size: 0x8, addend: 0x0, symName: __ZNSt3__112__hash_tableINS_17__hash_value_typeIiNS_8multisetI7LR1ItemNS_4lessIS3_EENS_9allocatorIS3_EEEEEENS_22__unordered_map_hasherIiS9_NS_4hashIiEENS_8equal_toIiEELb1EEENS_21__unordered_map_equalIiS9_SE_SC_Lb1EEENS6_IS9_EEED1Ev, symObjAddr: 0x24A48, symBinAddr: 0x100027D28, symSize: 0x2C }
  - { offsetInCU: 0x4AD19, offset: 0x4AD19, size: 0x8, addend: 0x0, symName: __ZNSt3__112__hash_tableINS_17__hash_value_typeIiNS_8multisetI7LR1ItemNS_4lessIS3_EENS_9allocatorIS3_EEEEEENS_22__unordered_map_hasherIiS9_NS_4hashIiEENS_8equal_toIiEELb1EEENS_21__unordered_map_equalIiS9_SE_SC_Lb1EEENS6_IS9_EEED2Ev, symObjAddr: 0x24A74, symBinAddr: 0x100027D54, symSize: 0x58 }
  - { offsetInCU: 0x4AD45, offset: 0x4AD45, size: 0x8, addend: 0x0, symName: __ZNSt3__112__hash_tableINS_17__hash_value_typeIiNS_8multisetI7LR1ItemNS_4lessIS3_EENS_9allocatorIS3_EEEEEENS_22__unordered_map_hasherIiS9_NS_4hashIiEENS_8equal_toIiEELb1EEENS_21__unordered_map_equalIiS9_SE_SC_Lb1EEENS6_IS9_EEE17__deallocate_nodeEPNS_16__hash_node_baseIPNS_11__hash_nodeIS9_PvEEEE, symObjAddr: 0x24ACC, symBinAddr: 0x100027DAC, symSize: 0xA8 }
  - { offsetInCU: 0x4ADAF, offset: 0x4ADAF, size: 0x8, addend: 0x0, symName: __ZNSt3__117__compressed_pairINS_16__hash_node_baseIPNS_11__hash_nodeINS_17__hash_value_typeIiNS_8multisetI7LR1ItemNS_4lessIS5_EENS_9allocatorIS5_EEEEEEPvEEEENS8_ISD_EEE5firstB7v160006Ev, symObjAddr: 0x24B74, symBinAddr: 0x100027E54, symSize: 0x24 }
  - { offsetInCU: 0x4ADD5, offset: 0x4ADD5, size: 0x8, addend: 0x0, symName: __ZNSt3__110unique_ptrIA_PNS_16__hash_node_baseIPNS_11__hash_nodeINS_17__hash_value_typeIiNS_8multisetI7LR1ItemNS_4lessIS5_EENS_9allocatorIS5_EEEEEEPvEEEENS_25__bucket_list_deallocatorINS8_ISG_EEEEED1B7v160006Ev, symObjAddr: 0x24BA8, symBinAddr: 0x100027E88, symSize: 0x2C }
  - { offsetInCU: 0x4ADFF, offset: 0x4ADFF, size: 0x8, addend: 0x0, symName: __ZNSt3__112__hash_tableINS_17__hash_value_typeIiNS_8multisetI7LR1ItemNS_4lessIS3_EENS_9allocatorIS3_EEEEEENS_22__unordered_map_hasherIiS9_NS_4hashIiEENS_8equal_toIiEELb1EEENS_21__unordered_map_equalIiS9_SE_SC_Lb1EEENS6_IS9_EEE12__node_allocB7v160006Ev, symObjAddr: 0x24BD4, symBinAddr: 0x100027EB4, symSize: 0x28 }
  - { offsetInCU: 0x4AE25, offset: 0x4AE25, size: 0x8, addend: 0x0, symName: __ZNSt3__116__hash_node_baseIPNS_11__hash_nodeINS_17__hash_value_typeIiNS_8multisetI7LR1ItemNS_4lessIS4_EENS_9allocatorIS4_EEEEEEPvEEE8__upcastB7v160006Ev, symObjAddr: 0x24BFC, symBinAddr: 0x100027EDC, symSize: 0x24 }
  - { offsetInCU: 0x4AE4B, offset: 0x4AE4B, size: 0x8, addend: 0x0, symName: __ZNSt3__116allocator_traitsINS_9allocatorINS_11__hash_nodeINS_17__hash_value_typeIiNS_8multisetI7LR1ItemNS_4lessIS5_EENS1_IS5_EEEEEEPvEEEEE7destroyB7v160006INS_4pairIKiS9_EEvvEEvRSD_PT_, symObjAddr: 0x24C20, symBinAddr: 0x100027F00, symSize: 0x28 }
  - { offsetInCU: 0x4AE85, offset: 0x4AE85, size: 0x8, addend: 0x0, symName: __ZNSt3__122__hash_key_value_typesINS_17__hash_value_typeIiNS_8multisetI7LR1ItemNS_4lessIS3_EENS_9allocatorIS3_EEEEEEE9__get_ptrB7v160006ERS9_, symObjAddr: 0x24C48, symBinAddr: 0x100027F28, symSize: 0x24 }
  - { offsetInCU: 0x4AEA8, offset: 0x4AEA8, size: 0x8, addend: 0x0, symName: __ZNSt3__116allocator_traitsINS_9allocatorINS_11__hash_nodeINS_17__hash_value_typeIiNS_8multisetI7LR1ItemNS_4lessIS5_EENS1_IS5_EEEEEEPvEEEEE10deallocateB7v160006ERSD_PSC_m, symObjAddr: 0x24C6C, symBinAddr: 0x100027F4C, symSize: 0x34 }
  - { offsetInCU: 0x4AEEA, offset: 0x4AEEA, size: 0x8, addend: 0x0, symName: __ZNSt3__117__compressed_pairINS_16__hash_node_baseIPNS_11__hash_nodeINS_17__hash_value_typeIiNS_8multisetI7LR1ItemNS_4lessIS5_EENS_9allocatorIS5_EEEEEEPvEEEENS8_ISD_EEE6secondB7v160006Ev, symObjAddr: 0x24CA0, symBinAddr: 0x100027F80, symSize: 0x24 }
  - { offsetInCU: 0x4AF10, offset: 0x4AF10, size: 0x8, addend: 0x0, symName: __ZNSt3__122__compressed_pair_elemINS_9allocatorINS_11__hash_nodeINS_17__hash_value_typeIiNS_8multisetI7LR1ItemNS_4lessIS5_EENS1_IS5_EEEEEEPvEEEELi1ELb1EE5__getB7v160006Ev, symObjAddr: 0x24CC4, symBinAddr: 0x100027FA4, symSize: 0x14 }
  - { offsetInCU: 0x4AF36, offset: 0x4AF36, size: 0x8, addend: 0x0, symName: __ZNSt3__114pointer_traitsIPNS_16__hash_node_baseIPNS_11__hash_nodeINS_17__hash_value_typeIiNS_8multisetI7LR1ItemNS_4lessIS5_EENS_9allocatorIS5_EEEEEEPvEEEEE10pointer_toB7v160006ERSF_, symObjAddr: 0x24CD8, symBinAddr: 0x100027FB8, symSize: 0x14 }
  - { offsetInCU: 0x4AF59, offset: 0x4AF59, size: 0x8, addend: 0x0, symName: __ZNSt3__14pairIKiNS_8multisetI7LR1ItemNS_4lessIS3_EENS_9allocatorIS3_EEEEED1Ev, symObjAddr: 0x24CEC, symBinAddr: 0x100027FCC, symSize: 0x2C }
  - { offsetInCU: 0x4AF85, offset: 0x4AF85, size: 0x8, addend: 0x0, symName: __ZNSt3__14pairIKiNS_8multisetI7LR1ItemNS_4lessIS3_EENS_9allocatorIS3_EEEEED2Ev, symObjAddr: 0x24D18, symBinAddr: 0x100027FF8, symSize: 0x30 }
  - { offsetInCU: 0x4AFB1, offset: 0x4AFB1, size: 0x8, addend: 0x0, symName: __ZNSt3__117__hash_value_typeIiNS_8multisetI7LR1ItemNS_4lessIS2_EENS_9allocatorIS2_EEEEE11__get_valueB7v160006Ev, symObjAddr: 0x24D48, symBinAddr: 0x100028028, symSize: 0x14 }
  - { offsetInCU: 0x4AFD7, offset: 0x4AFD7, size: 0x8, addend: 0x0, symName: __ZNSt3__19allocatorINS_11__hash_nodeINS_17__hash_value_typeIiNS_8multisetI7LR1ItemNS_4lessIS4_EENS0_IS4_EEEEEEPvEEE10deallocateB7v160006EPSB_m, symObjAddr: 0x24D5C, symBinAddr: 0x10002803C, symSize: 0x44 }
  - { offsetInCU: 0x4B019, offset: 0x4B019, size: 0x8, addend: 0x0, symName: __ZNSt3__122__compressed_pair_elemINS_16__hash_node_baseIPNS_11__hash_nodeINS_17__hash_value_typeIiNS_8multisetI7LR1ItemNS_4lessIS5_EENS_9allocatorIS5_EEEEEEPvEEEELi0ELb0EE5__getB7v160006Ev, symObjAddr: 0x24DA0, symBinAddr: 0x100028080, symSize: 0x14 }
  - { offsetInCU: 0x4B03F, offset: 0x4B03F, size: 0x8, addend: 0x0, symName: __ZNSt3__110unique_ptrIA_PNS_16__hash_node_baseIPNS_11__hash_nodeINS_17__hash_value_typeIiNS_8multisetI7LR1ItemNS_4lessIS5_EENS_9allocatorIS5_EEEEEEPvEEEENS_25__bucket_list_deallocatorINS8_ISG_EEEEED2B7v160006Ev, symObjAddr: 0x24DB4, symBinAddr: 0x100028094, symSize: 0x30 }
  - { offsetInCU: 0x4B069, offset: 0x4B069, size: 0x8, addend: 0x0, symName: __ZNSt3__110unique_ptrIA_PNS_16__hash_node_baseIPNS_11__hash_nodeINS_17__hash_value_typeIiNS_8multisetI7LR1ItemNS_4lessIS5_EENS_9allocatorIS5_EEEEEEPvEEEENS_25__bucket_list_deallocatorINS8_ISG_EEEEE5resetB7v160006EDn, symObjAddr: 0x24DE4, symBinAddr: 0x1000280C4, symSize: 0x6C }
  - { offsetInCU: 0x4B0A9, offset: 0x4B0A9, size: 0x8, addend: 0x0, symName: __ZNSt3__117__compressed_pairIPPNS_16__hash_node_baseIPNS_11__hash_nodeINS_17__hash_value_typeIiNS_8multisetI7LR1ItemNS_4lessIS5_EENS_9allocatorIS5_EEEEEEPvEEEENS_25__bucket_list_deallocatorINS8_ISG_EEEEE5firstB7v160006Ev, symObjAddr: 0x24E50, symBinAddr: 0x100028130, symSize: 0x24 }
  - { offsetInCU: 0x4B0CF, offset: 0x4B0CF, size: 0x8, addend: 0x0, symName: __ZNSt3__117__compressed_pairIPPNS_16__hash_node_baseIPNS_11__hash_nodeINS_17__hash_value_typeIiNS_8multisetI7LR1ItemNS_4lessIS5_EENS_9allocatorIS5_EEEEEEPvEEEENS_25__bucket_list_deallocatorINS8_ISG_EEEEE6secondB7v160006Ev, symObjAddr: 0x24E74, symBinAddr: 0x100028154, symSize: 0x28 }
  - { offsetInCU: 0x4B0F5, offset: 0x4B0F5, size: 0x8, addend: 0x0, symName: __ZNSt3__125__bucket_list_deallocatorINS_9allocatorIPNS_16__hash_node_baseIPNS_11__hash_nodeINS_17__hash_value_typeIiNS_8multisetI7LR1ItemNS_4lessIS6_EENS1_IS6_EEEEEEPvEEEEEEEclB7v160006EPSG_, symObjAddr: 0x24E9C, symBinAddr: 0x10002817C, symSize: 0x58 }
  - { offsetInCU: 0x4B12A, offset: 0x4B12A, size: 0x8, addend: 0x0, symName: __ZNSt3__122__compressed_pair_elemIPPNS_16__hash_node_baseIPNS_11__hash_nodeINS_17__hash_value_typeIiNS_8multisetI7LR1ItemNS_4lessIS5_EENS_9allocatorIS5_EEEEEEPvEEEELi0ELb0EE5__getB7v160006Ev, symObjAddr: 0x24EF4, symBinAddr: 0x1000281D4, symSize: 0x14 }
  - { offsetInCU: 0x4B150, offset: 0x4B150, size: 0x8, addend: 0x0, symName: __ZNSt3__122__compressed_pair_elemINS_25__bucket_list_deallocatorINS_9allocatorIPNS_16__hash_node_baseIPNS_11__hash_nodeINS_17__hash_value_typeIiNS_8multisetI7LR1ItemNS_4lessIS7_EENS2_IS7_EEEEEEPvEEEEEEEELi1ELb0EE5__getB7v160006Ev, symObjAddr: 0x24F08, symBinAddr: 0x1000281E8, symSize: 0x14 }
  - { offsetInCU: 0x4B176, offset: 0x4B176, size: 0x8, addend: 0x0, symName: __ZNSt3__116allocator_traitsINS_9allocatorIPNS_16__hash_node_baseIPNS_11__hash_nodeINS_17__hash_value_typeIiNS_8multisetI7LR1ItemNS_4lessIS6_EENS1_IS6_EEEEEEPvEEEEEEE10deallocateB7v160006ERSH_PSG_m, symObjAddr: 0x24F1C, symBinAddr: 0x1000281FC, symSize: 0x34 }
  - { offsetInCU: 0x4B1B8, offset: 0x4B1B8, size: 0x8, addend: 0x0, symName: __ZNSt3__125__bucket_list_deallocatorINS_9allocatorIPNS_16__hash_node_baseIPNS_11__hash_nodeINS_17__hash_value_typeIiNS_8multisetI7LR1ItemNS_4lessIS6_EENS1_IS6_EEEEEEPvEEEEEEE7__allocB7v160006Ev, symObjAddr: 0x24F50, symBinAddr: 0x100028230, symSize: 0x24 }
  - { offsetInCU: 0x4B1DE, offset: 0x4B1DE, size: 0x8, addend: 0x0, symName: __ZNSt3__125__bucket_list_deallocatorINS_9allocatorIPNS_16__hash_node_baseIPNS_11__hash_nodeINS_17__hash_value_typeIiNS_8multisetI7LR1ItemNS_4lessIS6_EENS1_IS6_EEEEEEPvEEEEEEE4sizeB7v160006Ev, symObjAddr: 0x24F74, symBinAddr: 0x100028254, symSize: 0x24 }
  - { offsetInCU: 0x4B204, offset: 0x4B204, size: 0x8, addend: 0x0, symName: __ZNSt3__19allocatorIPNS_16__hash_node_baseIPNS_11__hash_nodeINS_17__hash_value_typeIiNS_8multisetI7LR1ItemNS_4lessIS5_EENS0_IS5_EEEEEEPvEEEEE10deallocateB7v160006EPSF_m, symObjAddr: 0x24F98, symBinAddr: 0x100028278, symSize: 0x40 }
  - { offsetInCU: 0x4B246, offset: 0x4B246, size: 0x8, addend: 0x0, symName: __ZNSt3__117__compressed_pairImNS_9allocatorIPNS_16__hash_node_baseIPNS_11__hash_nodeINS_17__hash_value_typeIiNS_8multisetI7LR1ItemNS_4lessIS6_EENS1_IS6_EEEEEEPvEEEEEEE6secondB7v160006Ev, symObjAddr: 0x24FD8, symBinAddr: 0x1000282B8, symSize: 0x24 }
  - { offsetInCU: 0x4B26C, offset: 0x4B26C, size: 0x8, addend: 0x0, symName: __ZNSt3__122__compressed_pair_elemINS_9allocatorIPNS_16__hash_node_baseIPNS_11__hash_nodeINS_17__hash_value_typeIiNS_8multisetI7LR1ItemNS_4lessIS6_EENS1_IS6_EEEEEEPvEEEEEELi1ELb1EE5__getB7v160006Ev, symObjAddr: 0x24FFC, symBinAddr: 0x1000282DC, symSize: 0x14 }
  - { offsetInCU: 0x4B292, offset: 0x4B292, size: 0x8, addend: 0x0, symName: __ZNSt3__117__compressed_pairImNS_9allocatorIPNS_16__hash_node_baseIPNS_11__hash_nodeINS_17__hash_value_typeIiNS_8multisetI7LR1ItemNS_4lessIS6_EENS1_IS6_EEEEEEPvEEEEEEE5firstB7v160006Ev, symObjAddr: 0x25010, symBinAddr: 0x1000282F0, symSize: 0x24 }
  - { offsetInCU: 0x4B2B8, offset: 0x4B2B8, size: 0x8, addend: 0x0, symName: __ZNSt3__16__treeIiNS_4lessIiEENS_9allocatorIiEEE15__insert_uniqueB7v160006EOi, symObjAddr: 0x25034, symBinAddr: 0x100028314, symSize: 0x50 }
  - { offsetInCU: 0x4B2ED, offset: 0x4B2ED, size: 0x8, addend: 0x0, symName: __ZNSt3__16__treeIiNS_4lessIiEENS_9allocatorIiEEE25__emplace_unique_key_argsIiJiEEENS_4pairINS_15__tree_iteratorIiPNS_11__tree_nodeIiPvEElEEbEERKT_DpOT0_, symObjAddr: 0x25084, symBinAddr: 0x100028364, symSize: 0xF0 }
  - { offsetInCU: 0x4B399, offset: 0x4B399, size: 0x8, addend: 0x0, symName: __ZNSt3__16__treeIiNS_4lessIiEENS_9allocatorIiEEE16__construct_nodeIJiEEENS_10unique_ptrINS_11__tree_nodeIiPvEENS_22__tree_node_destructorINS3_ISA_EEEEEEDpOT_, symObjAddr: 0x25174, symBinAddr: 0x100028454, symSize: 0x108 }
  - { offsetInCU: 0x4B3FA, offset: 0x4B3FA, size: 0x8, addend: 0x0, symName: __ZNSt3__116allocator_traitsINS_9allocatorINS_11__tree_nodeIiPvEEEEE9constructB7v160006IiJiEvEEvRS5_PT_DpOT0_, symObjAddr: 0x2527C, symBinAddr: 0x10002855C, symSize: 0x34 }
  - { offsetInCU: 0x4B451, offset: 0x4B451, size: 0x8, addend: 0x0, symName: __ZNSt3__19allocatorINS_11__tree_nodeIiPvEEE9constructB7v160006IiJiEEEvPT_DpOT0_, symObjAddr: 0x252B0, symBinAddr: 0x100028590, symSize: 0x28 }
  - { offsetInCU: 0x4B4A7, offset: 0x4B4A7, size: 0x8, addend: 0x0, symName: __ZNSt3__15dequeINS_8multisetI7LR1ItemNS_4lessIS2_EENS_9allocatorIS2_EEEENS5_IS7_EEE9push_backERKS7_, symObjAddr: 0x252D8, symBinAddr: 0x1000285B8, symSize: 0xA0 }
  - { offsetInCU: 0x4B4ED, offset: 0x4B4ED, size: 0x8, addend: 0x0, symName: __ZNKSt3__15dequeINS_8multisetI7LR1ItemNS_4lessIS2_EENS_9allocatorIS2_EEEENS5_IS7_EEE12__back_spareB7v160006Ev, symObjAddr: 0x25378, symBinAddr: 0x100028658, symSize: 0x54 }
  - { offsetInCU: 0x4B513, offset: 0x4B513, size: 0x8, addend: 0x0, symName: __ZNSt3__15dequeINS_8multisetI7LR1ItemNS_4lessIS2_EENS_9allocatorIS2_EEEENS5_IS7_EEE19__add_back_capacityEv, symObjAddr: 0x253CC, symBinAddr: 0x1000286AC, symSize: 0x314 }
  - { offsetInCU: 0x4B5C8, offset: 0x4B5C8, size: 0x8, addend: 0x0, symName: __ZNSt3__116allocator_traitsINS_9allocatorINS_8multisetI7LR1ItemNS_4lessIS3_EENS1_IS3_EEEEEEE9constructB7v160006IS7_JRKS7_EvEEvRS8_PT_DpOT0_, symObjAddr: 0x256E0, symBinAddr: 0x1000289C0, symSize: 0x34 }
  - { offsetInCU: 0x4B61F, offset: 0x4B61F, size: 0x8, addend: 0x0, symName: __ZNKSt3__15dequeINS_8multisetI7LR1ItemNS_4lessIS2_EENS_9allocatorIS2_EEEENS5_IS7_EEE10__capacityB7v160006Ev, symObjAddr: 0x25714, symBinAddr: 0x1000289F4, symSize: 0x64 }
  - { offsetInCU: 0x4B645, offset: 0x4B645, size: 0x8, addend: 0x0, symName: __ZNKSt3__15dequeINS_8multisetI7LR1ItemNS_4lessIS2_EENS_9allocatorIS2_EEEENS5_IS7_EEE13__front_spareB7v160006Ev, symObjAddr: 0x25778, symBinAddr: 0x100028A58, symSize: 0x18 }
  - { offsetInCU: 0x4B66B, offset: 0x4B66B, size: 0x8, addend: 0x0, symName: __ZNSt3__114__split_bufferIPNS_8multisetI7LR1ItemNS_4lessIS2_EENS_9allocatorIS2_EEEENS5_IS8_EEE9push_backB7v160006ERKS8_, symObjAddr: 0x25790, symBinAddr: 0x100028A70, symSize: 0x260 }
  - { offsetInCU: 0x4B6E3, offset: 0x4B6E3, size: 0x8, addend: 0x0, symName: __ZNKSt3__114__split_bufferIPNS_8multisetI7LR1ItemNS_4lessIS2_EENS_9allocatorIS2_EEEENS5_IS8_EEE12__back_spareB7v160006Ev, symObjAddr: 0x259F0, symBinAddr: 0x100028CD0, symSize: 0x40 }
  - { offsetInCU: 0x4B709, offset: 0x4B709, size: 0x8, addend: 0x0, symName: __ZNSt3__114__split_bufferIPNS_8multisetI7LR1ItemNS_4lessIS2_EENS_9allocatorIS2_EEEENS5_IS8_EEE9push_backEOS8_, symObjAddr: 0x25A30, symBinAddr: 0x100028D10, symSize: 0x260 }
  - { offsetInCU: 0x4B781, offset: 0x4B781, size: 0x8, addend: 0x0, symName: __ZNSt3__116allocator_traitsINS_9allocatorINS_8multisetI7LR1ItemNS_4lessIS3_EENS1_IS3_EEEEEEE8allocateB7v160006ERS8_m, symObjAddr: 0x25C90, symBinAddr: 0x100028F70, symSize: 0x2C }
  - { offsetInCU: 0x4B7B4, offset: 0x4B7B4, size: 0x8, addend: 0x0, symName: __ZNSt3__114__split_bufferIPNS_8multisetI7LR1ItemNS_4lessIS2_EENS_9allocatorIS2_EEEENS5_IS8_EEE10push_frontEOS8_, symObjAddr: 0x25CBC, symBinAddr: 0x100028F9C, symSize: 0x25C }
  - { offsetInCU: 0x4B82C, offset: 0x4B82C, size: 0x8, addend: 0x0, symName: __ZNSt3__114__split_bufferIPNS_8multisetI7LR1ItemNS_4lessIS2_EENS_9allocatorIS2_EEEERNS5_IS8_EEEC1EmmSA_, symObjAddr: 0x25F18, symBinAddr: 0x1000291F8, symSize: 0x44 }
  - { offsetInCU: 0x4B887, offset: 0x4B887, size: 0x8, addend: 0x0, symName: __ZNSt3__122__allocator_destructorINS_9allocatorINS_8multisetI7LR1ItemNS_4lessIS3_EENS1_IS3_EEEEEEEC1B7v160006ERS8_m, symObjAddr: 0x25F5C, symBinAddr: 0x10002923C, symSize: 0x3C }
  - { offsetInCU: 0x4B94C, offset: 0x4B94C, size: 0x8, addend: 0x0, symName: __ZNSt3__110unique_ptrIPNS_8multisetI7LR1ItemNS_4lessIS2_EENS_9allocatorIS2_EEEENS_22__allocator_destructorINS5_IS7_EEEEEC1B7v160006ILb1EvEES8_NS_16__dependent_typeINS_27__unique_ptr_deleter_sfinaeISB_EEXT_EE20__good_rval_ref_typeE, symObjAddr: 0x25F98, symBinAddr: 0x100029278, symSize: 0x3C }
  - { offsetInCU: 0x4B99D, offset: 0x4B99D, size: 0x8, addend: 0x0, symName: __ZNSt3__114__split_bufferIPNS_8multisetI7LR1ItemNS_4lessIS2_EENS_9allocatorIS2_EEEERNS5_IS8_EEE9push_backEOS8_, symObjAddr: 0x25FD4, symBinAddr: 0x1000292B4, symSize: 0x260 }
  - { offsetInCU: 0x4BA15, offset: 0x4BA15, size: 0x8, addend: 0x0, symName: __ZNKSt3__110unique_ptrIPNS_8multisetI7LR1ItemNS_4lessIS2_EENS_9allocatorIS2_EEEENS_22__allocator_destructorINS5_IS7_EEEEE3getB7v160006Ev, symObjAddr: 0x26234, symBinAddr: 0x100029514, symSize: 0x28 }
  - { offsetInCU: 0x4BA3B, offset: 0x4BA3B, size: 0x8, addend: 0x0, symName: __ZNSt3__110unique_ptrIPNS_8multisetI7LR1ItemNS_4lessIS2_EENS_9allocatorIS2_EEEENS_22__allocator_destructorINS5_IS7_EEEEE7releaseB7v160006Ev, symObjAddr: 0x2625C, symBinAddr: 0x10002953C, symSize: 0x44 }
  - { offsetInCU: 0x4BA70, offset: 0x4BA70, size: 0x8, addend: 0x0, symName: __ZNSt3__114__split_bufferIPNS_8multisetI7LR1ItemNS_4lessIS2_EENS_9allocatorIS2_EEEERNS5_IS8_EEE10push_frontERKS8_, symObjAddr: 0x262A0, symBinAddr: 0x100029580, symSize: 0x25C }
  - { offsetInCU: 0x4BAE8, offset: 0x4BAE8, size: 0x8, addend: 0x0, symName: __ZNSt3__114__split_bufferIPNS_8multisetI7LR1ItemNS_4lessIS2_EENS_9allocatorIS2_EEEENS5_IS8_EEE9__end_capB7v160006Ev, symObjAddr: 0x26538, symBinAddr: 0x100029818, symSize: 0x28 }
  - { offsetInCU: 0x4BB0E, offset: 0x4BB0E, size: 0x8, addend: 0x0, symName: __ZNSt3__114__split_bufferIPNS_8multisetI7LR1ItemNS_4lessIS2_EENS_9allocatorIS2_EEEERNS5_IS8_EEE9__end_capB7v160006Ev, symObjAddr: 0x26560, symBinAddr: 0x100029840, symSize: 0x28 }
  - { offsetInCU: 0x4BB34, offset: 0x4BB34, size: 0x8, addend: 0x0, symName: __ZNSt3__110unique_ptrIPNS_8multisetI7LR1ItemNS_4lessIS2_EENS_9allocatorIS2_EEEENS_22__allocator_destructorINS5_IS7_EEEEED1B7v160006Ev, symObjAddr: 0x26588, symBinAddr: 0x100029868, symSize: 0x2C }
  - { offsetInCU: 0x4BB5E, offset: 0x4BB5E, size: 0x8, addend: 0x0, symName: __ZNSt3__114__split_bufferIPNS_8multisetI7LR1ItemNS_4lessIS2_EENS_9allocatorIS2_EEEERNS5_IS8_EEED1Ev, symObjAddr: 0x265B4, symBinAddr: 0x100029894, symSize: 0x2C }
  - { offsetInCU: 0x4BB8A, offset: 0x4BB8A, size: 0x8, addend: 0x0, symName: __ZNSt3__114__split_bufferIPNS_8multisetI7LR1ItemNS_4lessIS2_EENS_9allocatorIS2_EEEERNS5_IS8_EEE18__construct_at_endINS_13move_iteratorIPS8_EEEENS_9enable_ifIXsr27__is_cpp17_forward_iteratorIT_EE5valueEvE4typeESH_SH_, symObjAddr: 0x26620, symBinAddr: 0x100029900, symSize: 0xFC }
  - { offsetInCU: 0x4BBE6, offset: 0x4BBE6, size: 0x8, addend: 0x0, symName: __ZNSt3__113move_iteratorIPPNS_8multisetI7LR1ItemNS_4lessIS2_EENS_9allocatorIS2_EEEEEC1B7v160006ES9_, symObjAddr: 0x2671C, symBinAddr: 0x1000299FC, symSize: 0x34 }
  - { offsetInCU: 0x4BC1E, offset: 0x4BC1E, size: 0x8, addend: 0x0, symName: __ZNSt3__116allocator_traitsINS_9allocatorIPNS_8multisetI7LR1ItemNS_4lessIS3_EENS1_IS3_EEEEEEE9constructB7v160006IS8_JRKS8_EvEEvRS9_PT_DpOT0_, symObjAddr: 0x26750, symBinAddr: 0x100029A30, symSize: 0x34 }
  - { offsetInCU: 0x4BC8F, offset: 0x4BC8F, size: 0x8, addend: 0x0, symName: __ZNKSt3__114__move_trivialclB7v160006IPNS_8multisetI7LR1ItemNS_4lessIS3_EENS_9allocatorIS3_EEEES9_Li0EEENS_4pairIPT_PT0_EESC_SC_SE_, symObjAddr: 0x26920, symBinAddr: 0x100029C00, symSize: 0x48 }
  - { offsetInCU: 0x4BCFD, offset: 0x4BCFD, size: 0x8, addend: 0x0, symName: __ZNSt3__14pairIPPNS_8multisetI7LR1ItemNS_4lessIS2_EENS_9allocatorIS2_EEEES9_EC1B7v160006IRS9_S9_LPv0EEEOT_OT0_, symObjAddr: 0x26AE8, symBinAddr: 0x100029DC8, symSize: 0x3C }
  - { offsetInCU: 0x4BD5B, offset: 0x4BD5B, size: 0x8, addend: 0x0, symName: __ZNSt3__14pairIPPNS_8multisetI7LR1ItemNS_4lessIS2_EENS_9allocatorIS2_EEEES9_EC2B7v160006IRS9_S9_LPv0EEEOT_OT0_, symObjAddr: 0x26B24, symBinAddr: 0x100029E04, symSize: 0x34 }
  - { offsetInCU: 0x4BDB9, offset: 0x4BDB9, size: 0x8, addend: 0x0, symName: __ZNSt3__118__unwrap_iter_implIPPNS_8multisetI7LR1ItemNS_4lessIS2_EENS_9allocatorIS2_EEEELb1EE8__unwrapB7v160006ES9_, symObjAddr: 0x26B58, symBinAddr: 0x100029E38, symSize: 0x24 }
  - { offsetInCU: 0x4BDDC, offset: 0x4BDDC, size: 0x8, addend: 0x0, symName: __ZNSt3__14pairIPPNS_8multisetI7LR1ItemNS_4lessIS2_EENS_9allocatorIS2_EEEES9_EC1B7v160006IS9_S9_LPv0EEEOT_OT0_, symObjAddr: 0x26B7C, symBinAddr: 0x100029E5C, symSize: 0x3C }
  - { offsetInCU: 0x4BE3A, offset: 0x4BE3A, size: 0x8, addend: 0x0, symName: __ZNSt3__14pairIPPNS_8multisetI7LR1ItemNS_4lessIS2_EENS_9allocatorIS2_EEEES9_EC2B7v160006IS9_S9_LPv0EEEOT_OT0_, symObjAddr: 0x26BB8, symBinAddr: 0x100029E98, symSize: 0x34 }
  - { offsetInCU: 0x4BE98, offset: 0x4BE98, size: 0x8, addend: 0x0, symName: __ZNSt3__118__unwrap_iter_implIPPNS_8multisetI7LR1ItemNS_4lessIS2_EENS_9allocatorIS2_EEEELb1EE8__rewrapB7v160006ES9_S9_, symObjAddr: 0x26BEC, symBinAddr: 0x100029ECC, symSize: 0x50 }
  - { offsetInCU: 0x4BED3, offset: 0x4BED3, size: 0x8, addend: 0x0, symName: __ZNSt3__114__split_bufferIPNS_8multisetI7LR1ItemNS_4lessIS2_EENS_9allocatorIS2_EEEERNS5_IS8_EEE21_ConstructTransactionC1B7v160006EPPS8_m, symObjAddr: 0x26C78, symBinAddr: 0x100029F58, symSize: 0x3C }
  - { offsetInCU: 0x4BF19, offset: 0x4BF19, size: 0x8, addend: 0x0, symName: __ZNSt3__116allocator_traitsINS_9allocatorIPNS_8multisetI7LR1ItemNS_4lessIS3_EENS1_IS3_EEEEEEE9constructB7v160006IS8_JS8_EvEEvRS9_PT_DpOT0_, symObjAddr: 0x26CB4, symBinAddr: 0x100029F94, symSize: 0x34 }
  - { offsetInCU: 0x4BF70, offset: 0x4BF70, size: 0x8, addend: 0x0, symName: __ZNSt3__114__split_bufferIPNS_8multisetI7LR1ItemNS_4lessIS2_EENS_9allocatorIS2_EEEERNS5_IS8_EEE7__allocB7v160006Ev, symObjAddr: 0x26CE8, symBinAddr: 0x100029FC8, symSize: 0x28 }
  - { offsetInCU: 0x4BF96, offset: 0x4BF96, size: 0x8, addend: 0x0, symName: __ZNKSt3__113move_iteratorIPPNS_8multisetI7LR1ItemNS_4lessIS2_EENS_9allocatorIS2_EEEEEdeB7v160006Ev, symObjAddr: 0x26D10, symBinAddr: 0x100029FF0, symSize: 0x18 }
  - { offsetInCU: 0x4BFBC, offset: 0x4BFBC, size: 0x8, addend: 0x0, symName: __ZNSt3__113move_iteratorIPPNS_8multisetI7LR1ItemNS_4lessIS2_EENS_9allocatorIS2_EEEEEppB7v160006Ev, symObjAddr: 0x26D28, symBinAddr: 0x10002A008, symSize: 0x20 }
  - { offsetInCU: 0x4BFE2, offset: 0x4BFE2, size: 0x8, addend: 0x0, symName: __ZNSt3__114__split_bufferIPNS_8multisetI7LR1ItemNS_4lessIS2_EENS_9allocatorIS2_EEEERNS5_IS8_EEE21_ConstructTransactionD1B7v160006Ev, symObjAddr: 0x26D48, symBinAddr: 0x10002A028, symSize: 0x2C }
  - { offsetInCU: 0x4C00C, offset: 0x4C00C, size: 0x8, addend: 0x0, symName: __ZNKSt3__113move_iteratorIPPNS_8multisetI7LR1ItemNS_4lessIS2_EENS_9allocatorIS2_EEEEE4baseB7v160006Ev, symObjAddr: 0x26DEC, symBinAddr: 0x10002A0CC, symSize: 0x18 }
  - { offsetInCU: 0x4C032, offset: 0x4C032, size: 0x8, addend: 0x0, symName: __ZNSt3__114__split_bufferIPNS_8multisetI7LR1ItemNS_4lessIS2_EENS_9allocatorIS2_EEEERNS5_IS8_EEE21_ConstructTransactionC2B7v160006EPPS8_m, symObjAddr: 0x26E04, symBinAddr: 0x10002A0E4, symSize: 0x44 }
  - { offsetInCU: 0x4C078, offset: 0x4C078, size: 0x8, addend: 0x0, symName: __ZNSt3__19allocatorIPNS_8multisetI7LR1ItemNS_4lessIS2_EENS0_IS2_EEEEE9constructB7v160006IS7_JS7_EEEvPT_DpOT0_, symObjAddr: 0x26E48, symBinAddr: 0x10002A128, symSize: 0x28 }
  - { offsetInCU: 0x4C0CE, offset: 0x4C0CE, size: 0x8, addend: 0x0, symName: __ZNSt3__117__compressed_pairIPPNS_8multisetI7LR1ItemNS_4lessIS2_EENS_9allocatorIS2_EEEERNS5_IS8_EEE6secondB7v160006Ev, symObjAddr: 0x26E70, symBinAddr: 0x10002A150, symSize: 0x28 }
